Archive member included to satisfy reference by file (symbol)

.build/obj_vessel_base/i2c_master.a(i2c_master.o)
                              .build/obj_vessel_base/oled_driver.o (symbol from plugin) (i2c_init)
C:/QMK_MSYS/mingw64/bin/../lib/gcc/arm-none-eabi/13.3.0/thumb/v7e-m+fp/hard\libgcc.a(_aeabi_ldivmod.o)
                              .build/obj_vessel_base/i2c_master.a(i2c_master.o) (__aeabi_ldivmod)
C:/QMK_MSYS/mingw64/bin/../lib/gcc/arm-none-eabi/13.3.0/thumb/v7e-m+fp/hard\libgcc.a(_aeabi_uldivmod.o)
                              .build/obj_vessel_base/i2c_master.a(i2c_master.o) (__aeabi_uldivmod)
C:/QMK_MSYS/mingw64/bin/../lib/gcc/arm-none-eabi/13.3.0/thumb/v7e-m+fp/hard\libgcc.a(_udivmoddi4.o)
                              C:/QMK_MSYS/mingw64/bin/../lib/gcc/arm-none-eabi/13.3.0/thumb/v7e-m+fp/hard\libgcc.a(_aeabi_ldivmod.o) (__udivmoddi4)
C:/QMK_MSYS/mingw64/bin/../lib/gcc/arm-none-eabi/13.3.0/thumb/v7e-m+fp/hard\libgcc.a(_dvmd_tls.o)
                              C:/QMK_MSYS/mingw64/bin/../lib/gcc/arm-none-eabi/13.3.0/thumb/v7e-m+fp/hard\libgcc.a(_aeabi_ldivmod.o) (__aeabi_ldiv0)
C:/QMK_MSYS/mingw64/bin/../lib/gcc/arm-none-eabi/13.3.0/../../../../arm-none-eabi/lib/thumb/v7e-m+fp/hard\libg_nano.a(libc_a-rand.o)
                              .build/obj_vessel_base/quantum/rgb_matrix/rgb_matrix.o (symbol from plugin) (rand)
C:/QMK_MSYS/mingw64/bin/../lib/gcc/arm-none-eabi/13.3.0/../../../../arm-none-eabi/lib/thumb/v7e-m+fp/hard\libg_nano.a(libc_a-ctype_.o)
                              .build/obj_vessel_base/quantum/send_string/send_string.o (symbol from plugin) (_ctype_)
C:/QMK_MSYS/mingw64/bin/../lib/gcc/arm-none-eabi/13.3.0/../../../../arm-none-eabi/lib/thumb/v7e-m+fp/hard\libg_nano.a(libc_a-impure.o)
                              C:/QMK_MSYS/mingw64/bin/../lib/gcc/arm-none-eabi/13.3.0/../../../../arm-none-eabi/lib/thumb/v7e-m+fp/hard\libg_nano.a(libc_a-rand.o) (_impure_ptr)
C:/QMK_MSYS/mingw64/bin/../lib/gcc/arm-none-eabi/13.3.0/../../../../arm-none-eabi/lib/thumb/v7e-m+fp/hard\libg_nano.a(libc_a-errno.o)
                              .build/obj_vessel_base/platforms/chibios/syscall-fallbacks.o (symbol from plugin) (__errno)
C:/QMK_MSYS/mingw64/bin/../lib/gcc/arm-none-eabi/13.3.0/../../../../arm-none-eabi/lib/thumb/v7e-m+fp/hard\libg_nano.a(libc_a-assert.o)
                              C:/QMK_MSYS/mingw64/bin/../lib/gcc/arm-none-eabi/13.3.0/../../../../arm-none-eabi/lib/thumb/v7e-m+fp/hard\libg_nano.a(libc_a-rand.o) (__assert_func)
C:/QMK_MSYS/mingw64/bin/../lib/gcc/arm-none-eabi/13.3.0/../../../../arm-none-eabi/lib/thumb/v7e-m+fp/hard\libg_nano.a(libc_a-malloc.o)
                              C:/QMK_MSYS/mingw64/bin/../lib/gcc/arm-none-eabi/13.3.0/../../../../arm-none-eabi/lib/thumb/v7e-m+fp/hard\libg_nano.a(libc_a-rand.o) (malloc)
C:/QMK_MSYS/mingw64/bin/../lib/gcc/arm-none-eabi/13.3.0/../../../../arm-none-eabi/lib/thumb/v7e-m+fp/hard\libg_nano.a(libc_a-mallocr.o)
                              C:/QMK_MSYS/mingw64/bin/../lib/gcc/arm-none-eabi/13.3.0/../../../../arm-none-eabi/lib/thumb/v7e-m+fp/hard\libg_nano.a(libc_a-malloc.o) (_malloc_r)
C:/QMK_MSYS/mingw64/bin/../lib/gcc/arm-none-eabi/13.3.0/../../../../arm-none-eabi/lib/thumb/v7e-m+fp/hard\libg_nano.a(libc_a-mlock.o)
                              C:/QMK_MSYS/mingw64/bin/../lib/gcc/arm-none-eabi/13.3.0/../../../../arm-none-eabi/lib/thumb/v7e-m+fp/hard\libg_nano.a(libc_a-mallocr.o) (__malloc_lock)
C:/QMK_MSYS/mingw64/bin/../lib/gcc/arm-none-eabi/13.3.0/../../../../arm-none-eabi/lib/thumb/v7e-m+fp/hard\libg_nano.a(libc_a-fprintf.o)
                              C:/QMK_MSYS/mingw64/bin/../lib/gcc/arm-none-eabi/13.3.0/../../../../arm-none-eabi/lib/thumb/v7e-m+fp/hard\libg_nano.a(libc_a-assert.o) (fiprintf)
C:/QMK_MSYS/mingw64/bin/../lib/gcc/arm-none-eabi/13.3.0/../../../../arm-none-eabi/lib/thumb/v7e-m+fp/hard\libg_nano.a(libc_a-lock.o)
                              C:/QMK_MSYS/mingw64/bin/../lib/gcc/arm-none-eabi/13.3.0/../../../../arm-none-eabi/lib/thumb/v7e-m+fp/hard\libg_nano.a(libc_a-mlock.o) (__retarget_lock_acquire_recursive)
C:/QMK_MSYS/mingw64/bin/../lib/gcc/arm-none-eabi/13.3.0/../../../../arm-none-eabi/lib/thumb/v7e-m+fp/hard\libg_nano.a(libc_a-abort.o)
                              C:/QMK_MSYS/mingw64/bin/../lib/gcc/arm-none-eabi/13.3.0/../../../../arm-none-eabi/lib/thumb/v7e-m+fp/hard\libg_nano.a(libc_a-assert.o) (abort)
C:/QMK_MSYS/mingw64/bin/../lib/gcc/arm-none-eabi/13.3.0/../../../../arm-none-eabi/lib/thumb/v7e-m+fp/hard\libg_nano.a(libc_a-freer.o)
                              C:/QMK_MSYS/mingw64/bin/../lib/gcc/arm-none-eabi/13.3.0/../../../../arm-none-eabi/lib/thumb/v7e-m+fp/hard\libg_nano.a(libc_a-malloc.o) (_free_r)
C:/QMK_MSYS/mingw64/bin/../lib/gcc/arm-none-eabi/13.3.0/../../../../arm-none-eabi/lib/thumb/v7e-m+fp/hard\libg_nano.a(libc_a-nano-vfprintf.o)
                              C:/QMK_MSYS/mingw64/bin/../lib/gcc/arm-none-eabi/13.3.0/../../../../arm-none-eabi/lib/thumb/v7e-m+fp/hard\libg_nano.a(libc_a-fprintf.o) (_vfprintf_r)
C:/QMK_MSYS/mingw64/bin/../lib/gcc/arm-none-eabi/13.3.0/../../../../arm-none-eabi/lib/thumb/v7e-m+fp/hard\libg_nano.a(libc_a-nano-vfprintf_i.o)
                              C:/QMK_MSYS/mingw64/bin/../lib/gcc/arm-none-eabi/13.3.0/../../../../arm-none-eabi/lib/thumb/v7e-m+fp/hard\libg_nano.a(libc_a-nano-vfprintf.o) (_printf_i)
C:/QMK_MSYS/mingw64/bin/../lib/gcc/arm-none-eabi/13.3.0/../../../../arm-none-eabi/lib/thumb/v7e-m+fp/hard\libg_nano.a(libc_a-findfp.o)
                              C:/QMK_MSYS/mingw64/bin/../lib/gcc/arm-none-eabi/13.3.0/../../../../arm-none-eabi/lib/thumb/v7e-m+fp/hard\libg_nano.a(libc_a-nano-vfprintf.o) (__sinit)
C:/QMK_MSYS/mingw64/bin/../lib/gcc/arm-none-eabi/13.3.0/../../../../arm-none-eabi/lib/thumb/v7e-m+fp/hard\libg_nano.a(libc_a-fvwrite.o)
                              C:/QMK_MSYS/mingw64/bin/../lib/gcc/arm-none-eabi/13.3.0/../../../../arm-none-eabi/lib/thumb/v7e-m+fp/hard\libg_nano.a(libc_a-nano-vfprintf.o) (__sfvwrite_r)
C:/QMK_MSYS/mingw64/bin/../lib/gcc/arm-none-eabi/13.3.0/../../../../arm-none-eabi/lib/thumb/v7e-m+fp/hard\libg_nano.a(libc_a-fwalk.o)
                              C:/QMK_MSYS/mingw64/bin/../lib/gcc/arm-none-eabi/13.3.0/../../../../arm-none-eabi/lib/thumb/v7e-m+fp/hard\libg_nano.a(libc_a-findfp.o) (_fwalk_sglue)
C:/QMK_MSYS/mingw64/bin/../lib/gcc/arm-none-eabi/13.3.0/../../../../arm-none-eabi/lib/thumb/v7e-m+fp/hard\libg_nano.a(libc_a-stdio.o)
                              C:/QMK_MSYS/mingw64/bin/../lib/gcc/arm-none-eabi/13.3.0/../../../../arm-none-eabi/lib/thumb/v7e-m+fp/hard\libg_nano.a(libc_a-findfp.o) (__sread)
C:/QMK_MSYS/mingw64/bin/../lib/gcc/arm-none-eabi/13.3.0/../../../../arm-none-eabi/lib/thumb/v7e-m+fp/hard\libg_nano.a(libc_a-wbuf.o)
                              C:/QMK_MSYS/mingw64/bin/../lib/gcc/arm-none-eabi/13.3.0/../../../../arm-none-eabi/lib/thumb/v7e-m+fp/hard\libg_nano.a(libc_a-nano-vfprintf.o) (__swbuf_r)
C:/QMK_MSYS/mingw64/bin/../lib/gcc/arm-none-eabi/13.3.0/../../../../arm-none-eabi/lib/thumb/v7e-m+fp/hard\libg_nano.a(libc_a-wsetup.o)
                              C:/QMK_MSYS/mingw64/bin/../lib/gcc/arm-none-eabi/13.3.0/../../../../arm-none-eabi/lib/thumb/v7e-m+fp/hard\libg_nano.a(libc_a-nano-vfprintf.o) (__swsetup_r)
C:/QMK_MSYS/mingw64/bin/../lib/gcc/arm-none-eabi/13.3.0/../../../../arm-none-eabi/lib/thumb/v7e-m+fp/hard\libg_nano.a(libc_a-memmove.o)
                              C:/QMK_MSYS/mingw64/bin/../lib/gcc/arm-none-eabi/13.3.0/../../../../arm-none-eabi/lib/thumb/v7e-m+fp/hard\libg_nano.a(libc_a-fvwrite.o) (memmove)
C:/QMK_MSYS/mingw64/bin/../lib/gcc/arm-none-eabi/13.3.0/../../../../arm-none-eabi/lib/thumb/v7e-m+fp/hard\libg_nano.a(libc_a-memset.o)
                              C:/QMK_MSYS/mingw64/bin/../lib/gcc/arm-none-eabi/13.3.0/../../../../arm-none-eabi/lib/thumb/v7e-m+fp/hard\libg_nano.a(libc_a-findfp.o) (memset)
C:/QMK_MSYS/mingw64/bin/../lib/gcc/arm-none-eabi/13.3.0/../../../../arm-none-eabi/lib/thumb/v7e-m+fp/hard\libg_nano.a(libc_a-signal.o)
                              C:/QMK_MSYS/mingw64/bin/../lib/gcc/arm-none-eabi/13.3.0/../../../../arm-none-eabi/lib/thumb/v7e-m+fp/hard\libg_nano.a(libc_a-abort.o) (raise)
C:/QMK_MSYS/mingw64/bin/../lib/gcc/arm-none-eabi/13.3.0/../../../../arm-none-eabi/lib/thumb/v7e-m+fp/hard\libg_nano.a(libc_a-signalr.o)
                              C:/QMK_MSYS/mingw64/bin/../lib/gcc/arm-none-eabi/13.3.0/../../../../arm-none-eabi/lib/thumb/v7e-m+fp/hard\libg_nano.a(libc_a-signal.o) (_kill_r)
C:/QMK_MSYS/mingw64/bin/../lib/gcc/arm-none-eabi/13.3.0/../../../../arm-none-eabi/lib/thumb/v7e-m+fp/hard\libg_nano.a(libc_a-memchr.o)
                              C:/QMK_MSYS/mingw64/bin/../lib/gcc/arm-none-eabi/13.3.0/../../../../arm-none-eabi/lib/thumb/v7e-m+fp/hard\libg_nano.a(libc_a-nano-vfprintf.o) (memchr)
C:/QMK_MSYS/mingw64/bin/../lib/gcc/arm-none-eabi/13.3.0/../../../../arm-none-eabi/lib/thumb/v7e-m+fp/hard\libg_nano.a(libc_a-memcpy.o)
                              C:/QMK_MSYS/mingw64/bin/../lib/gcc/arm-none-eabi/13.3.0/../../../../arm-none-eabi/lib/thumb/v7e-m+fp/hard\libg_nano.a(libc_a-fvwrite.o) (memcpy)
C:/QMK_MSYS/mingw64/bin/../lib/gcc/arm-none-eabi/13.3.0/../../../../arm-none-eabi/lib/thumb/v7e-m+fp/hard\libg_nano.a(libc_a-reallocr.o)
                              C:/QMK_MSYS/mingw64/bin/../lib/gcc/arm-none-eabi/13.3.0/../../../../arm-none-eabi/lib/thumb/v7e-m+fp/hard\libg_nano.a(libc_a-fvwrite.o) (_realloc_r)
C:/QMK_MSYS/mingw64/bin/../lib/gcc/arm-none-eabi/13.3.0/../../../../arm-none-eabi/lib/thumb/v7e-m+fp/hard\libg_nano.a(libc_a-fflush.o)
                              C:/QMK_MSYS/mingw64/bin/../lib/gcc/arm-none-eabi/13.3.0/../../../../arm-none-eabi/lib/thumb/v7e-m+fp/hard\libg_nano.a(libc_a-findfp.o) (_fflush_r)
C:/QMK_MSYS/mingw64/bin/../lib/gcc/arm-none-eabi/13.3.0/../../../../arm-none-eabi/lib/thumb/v7e-m+fp/hard\libg_nano.a(libc_a-makebuf.o)
                              C:/QMK_MSYS/mingw64/bin/../lib/gcc/arm-none-eabi/13.3.0/../../../../arm-none-eabi/lib/thumb/v7e-m+fp/hard\libg_nano.a(libc_a-wsetup.o) (__smakebuf_r)
C:/QMK_MSYS/mingw64/bin/../lib/gcc/arm-none-eabi/13.3.0/../../../../arm-none-eabi/lib/thumb/v7e-m+fp/hard\libg_nano.a(libc_a-reent.o)
                              C:/QMK_MSYS/mingw64/bin/../lib/gcc/arm-none-eabi/13.3.0/../../../../arm-none-eabi/lib/thumb/v7e-m+fp/hard\libg_nano.a(libc_a-signalr.o) (errno)
C:/QMK_MSYS/mingw64/bin/../lib/gcc/arm-none-eabi/13.3.0/../../../../arm-none-eabi/lib/thumb/v7e-m+fp/hard\libg_nano.a(libc_a-msizer.o)
                              C:/QMK_MSYS/mingw64/bin/../lib/gcc/arm-none-eabi/13.3.0/../../../../arm-none-eabi/lib/thumb/v7e-m+fp/hard\libg_nano.a(libc_a-reallocr.o) (_malloc_usable_size_r)
C:/QMK_MSYS/mingw64/bin/../lib/gcc/arm-none-eabi/13.3.0/../../../../arm-none-eabi/lib/thumb/v7e-m+fp/hard\libg_nano.a(libc_a-memcmp.o)
                              C:\QMK_MSYS\tmp\ccs2W3Vd.ltrans0.ltrans.o (memcmp)

Allocating common symbols
Common symbol       size              file

event_queue         0x10              .build/obj_vessel_base/protocol/chibios/usb_main.o (symbol from plugin)
rgb_matrix_config   0x8               .build/obj_vessel_base/quantum/rgb_matrix/rgb_matrix.o (symbol from plugin)
keymap_config       0x2               .build/obj_vessel_base/quantum/keycode_config.o (symbol from plugin)
event_queue_head    0x1               .build/obj_vessel_base/protocol/chibios/usb_main.o (symbol from plugin)
I2CD1               0x38              C:\QMK_MSYS\tmp\ccs2W3Vd.ltrans0.ltrans.o
oled_buffer         0x400             .build/obj_vessel_base/oled_driver.o (symbol from plugin)
g_rgb_timer         0x4               .build/obj_vessel_base/quantum/rgb_matrix/rgb_matrix.o (symbol from plugin)
raw_matrix          0x1c              .build/obj_vessel_base/quantum/matrix_common.o (symbol from plugin)
ch_system           0x8               .build/obj_vessel_base/lib/chibios/os/rt/src/chsys.o (symbol from plugin)
rgb_matrix_ws2812_array
                    0x132             .build/obj_vessel_base/quantum/rgb_matrix/rgb_matrix_drivers.o (symbol from plugin)
oled_timeout        0x4               .build/obj_vessel_base/oled_driver.o (symbol from plugin)
USBD1               0x78              .build/obj_vessel_base/lib/chibios/os/hal/ports/STM32/LLD/OTGv1/hal_usb_lld.o (symbol from plugin)
matrix              0x1c              .build/obj_vessel_base/quantum/matrix_common.o (symbol from plugin)
tp_buttons          0x4               .build/obj_vessel_base/quantum/action.o (symbol from plugin)
ch0                 0x60              .build/obj_vessel_base/lib/chibios/os/rt/src/chsys.o (symbol from plugin)
g_last_hit_tracker  0x29              .build/obj_vessel_base/quantum/rgb_matrix/rgb_matrix.o (symbol from plugin)
event_queue_tail    0x1               .build/obj_vessel_base/protocol/chibios/usb_main.o (symbol from plugin)
ch_memcore          0x8               .build/obj_vessel_base/lib/chibios/os/oslib/src/chmemcore.o (symbol from plugin)
oled_cursor         0x4               .build/obj_vessel_base/oled_driver.o (symbol from plugin)

Discarded input sections

 .text          0x00000000        0x0 C:\QMK_MSYS\tmp\ccs2W3Vd.ltrans0.ltrans.o
 .data          0x00000000        0x0 C:\QMK_MSYS\tmp\ccs2W3Vd.ltrans0.ltrans.o
 .bss           0x00000000        0x0 C:\QMK_MSYS\tmp\ccs2W3Vd.ltrans0.ltrans.o
 .text.putchar_via_gadget
                0x00000000       0x2a C:\QMK_MSYS\tmp\ccs2W3Vd.ltrans0.ltrans.o
 .text.putchar_wrapper
                0x00000000        0xc C:\QMK_MSYS\tmp\ccs2W3Vd.ltrans0.ltrans.o
 .text.out_rev_
                0x00000000       0x60 C:\QMK_MSYS\tmp\ccs2W3Vd.ltrans0.ltrans.o
 .text.print_integer
                0x00000000      0x194 C:\QMK_MSYS\tmp\ccs2W3Vd.ltrans0.ltrans.o
 .rodata.vsnprintf_impl.constprop.0.str1.1
                0x00000000        0xd C:\QMK_MSYS\tmp\ccs2W3Vd.ltrans0.ltrans.o
 .text.vsnprintf_impl.constprop.0
                0x00000000      0x3a0 C:\QMK_MSYS\tmp\ccs2W3Vd.ltrans0.ltrans.o
 .text.vprintf  0x00000000       0x28 C:\QMK_MSYS\tmp\ccs2W3Vd.ltrans0.ltrans.o
 .text.vsnprintf
                0x00000000       0x30 C:\QMK_MSYS\tmp\ccs2W3Vd.ltrans0.ltrans.o
 .text.vsprintf
                0x00000000        0xc C:\QMK_MSYS\tmp\ccs2W3Vd.ltrans0.ltrans.o
 .text.sprintf  0x00000000       0x1a C:\QMK_MSYS\tmp\ccs2W3Vd.ltrans0.ltrans.o
 .text.snprintf
                0x00000000       0x1a C:\QMK_MSYS\tmp\ccs2W3Vd.ltrans0.ltrans.o
 .text.i2cMasterReceiveTimeout
                0x00000000       0xe4 C:\QMK_MSYS\tmp\ccs2W3Vd.ltrans0.ltrans.o
 .text._open_r  0x00000000        0xa C:\QMK_MSYS\tmp\ccs2W3Vd.ltrans0.ltrans.o
 .rodata.__cxa_pure_virtual.str1.1
                0x00000000        0xd C:\QMK_MSYS\tmp\ccs2W3Vd.ltrans0.ltrans.o
 .text.__cxa_pure_virtual
                0x00000000       0x14 C:\QMK_MSYS\tmp\ccs2W3Vd.ltrans0.ltrans.o
 .text._link_r  0x00000000        0xa C:\QMK_MSYS\tmp\ccs2W3Vd.ltrans0.ltrans.o
 .text._unlink_r
                0x00000000        0xa C:\QMK_MSYS\tmp\ccs2W3Vd.ltrans0.ltrans.o
 .text._times_r
                0x00000000        0xa C:\QMK_MSYS\tmp\ccs2W3Vd.ltrans0.ltrans.o
 .text._gettimeofday_r
                0x00000000        0xa C:\QMK_MSYS\tmp\ccs2W3Vd.ltrans0.ltrans.o
 .bss.__dso_handle
                0x00000000        0x4 C:\QMK_MSYS\tmp\ccs2W3Vd.ltrans0.ltrans.o
 .comment       0x00000000       0x13 C:\QMK_MSYS\tmp\ccYy8zNJ.debug.temp.o
 .debug_info    0x00000000      0x272 C:\QMK_MSYS\tmp\ccsjiLQb.debug.temp.o
 .debug_abbrev  0x00000000       0xde C:\QMK_MSYS\tmp\ccsjiLQb.debug.temp.o
 .debug_line    0x00000000       0x71 C:\QMK_MSYS\tmp\ccsjiLQb.debug.temp.o
 .debug_str     0x00000000      0x2e8 C:\QMK_MSYS\tmp\ccsjiLQb.debug.temp.o
 .debug_line_str
                0x00000000      0x19c C:\QMK_MSYS\tmp\ccsjiLQb.debug.temp.o
 .comment       0x00000000       0x13 C:\QMK_MSYS\tmp\ccsjiLQb.debug.temp.o
 .comment       0x00000000       0x13 C:\QMK_MSYS\tmp\cc8jr1VC.debug.temp.o
 .comment       0x00000000       0x13 C:\QMK_MSYS\tmp\ccO4b5Y3.debug.temp.o
 .debug_info    0x00000000      0x1cd C:\QMK_MSYS\tmp\ccWNKcdv.debug.temp.o
 .debug_abbrev  0x00000000       0x7f C:\QMK_MSYS\tmp\ccWNKcdv.debug.temp.o
 .debug_line    0x00000000       0x4c C:\QMK_MSYS\tmp\ccWNKcdv.debug.temp.o
 .debug_str     0x00000000      0x274 C:\QMK_MSYS\tmp\ccWNKcdv.debug.temp.o
 .debug_line_str
                0x00000000       0xd3 C:\QMK_MSYS\tmp\ccWNKcdv.debug.temp.o
 .comment       0x00000000       0x13 C:\QMK_MSYS\tmp\ccWNKcdv.debug.temp.o
 .comment       0x00000000       0x13 C:\QMK_MSYS\tmp\ccU9JcqW.debug.temp.o
 .comment       0x00000000       0x13 C:\QMK_MSYS\tmp\ccgoXcxn.debug.temp.o
 .comment       0x00000000       0x13 C:\QMK_MSYS\tmp\ccsxOlSO.debug.temp.o
 .comment       0x00000000       0x13 C:\QMK_MSYS\tmp\cciViwbg.debug.temp.o
 .comment       0x00000000       0x13 C:\QMK_MSYS\tmp\cca0yIIH.debug.temp.o
 .comment       0x00000000       0x13 C:\QMK_MSYS\tmp\cc0pCGa9.debug.temp.o
 .comment       0x00000000       0x13 C:\QMK_MSYS\tmp\ccwjgFEz.debug.temp.o
 .comment       0x00000000       0x13 C:\QMK_MSYS\tmp\ccunYi4Z.debug.temp.o
 .comment       0x00000000       0x13 C:\QMK_MSYS\tmp\cci23xsq.debug.temp.o
 .debug_info    0x00000000       0x6c C:\QMK_MSYS\tmp\ccqpLh1Q.debug.temp.o
 .debug_abbrev  0x00000000       0x26 C:\QMK_MSYS\tmp\ccqpLh1Q.debug.temp.o
 .debug_line    0x00000000       0x31 C:\QMK_MSYS\tmp\ccqpLh1Q.debug.temp.o
 .debug_str     0x00000000      0x1f6 C:\QMK_MSYS\tmp\ccqpLh1Q.debug.temp.o
 .debug_line_str
                0x00000000       0x49 C:\QMK_MSYS\tmp\ccqpLh1Q.debug.temp.o
 .comment       0x00000000       0x13 C:\QMK_MSYS\tmp\ccqpLh1Q.debug.temp.o
 .comment       0x00000000       0x13 C:\QMK_MSYS\tmp\ccaulbyh.debug.temp.o
 .comment       0x00000000       0x13 C:\QMK_MSYS\tmp\ccEA8olI.debug.temp.o
 .comment       0x00000000       0x13 C:\QMK_MSYS\tmp\ccWeMX28.debug.temp.o
 .comment       0x00000000       0x13 C:\QMK_MSYS\tmp\cco2DIJz.debug.temp.o
 .comment       0x00000000       0x13 C:\QMK_MSYS\tmp\ccmAD3C0.debug.temp.o
 .comment       0x00000000       0x13 C:\QMK_MSYS\tmp\cc47Kovr.debug.temp.o
 .comment       0x00000000       0x13 C:\QMK_MSYS\tmp\ccsbw1pR.debug.temp.o
 .comment       0x00000000       0x13 C:\QMK_MSYS\tmp\cc6u1jfh.debug.temp.o
 .comment       0x00000000       0x13 C:\QMK_MSYS\tmp\ccWqp82G.debug.temp.o
 .comment       0x00000000       0x13 C:\QMK_MSYS\tmp\cc2KLL36.debug.temp.o
 .comment       0x00000000       0x13 C:\QMK_MSYS\tmp\ccCAUx2w.debug.temp.o
 .comment       0x00000000       0x13 C:\QMK_MSYS\tmp\ccavKcfX.debug.temp.o
 .comment       0x00000000       0x13 C:\QMK_MSYS\tmp\ccGKnDmn.debug.temp.o
 .comment       0x00000000       0x13 C:\QMK_MSYS\tmp\cce79oHN.debug.temp.o
 .comment       0x00000000       0x13 C:\QMK_MSYS\tmp\cckRVoYd.debug.temp.o
 .comment       0x00000000       0x13 C:\QMK_MSYS\tmp\ccqbgfYH.debug.temp.o
 .comment       0x00000000       0x13 C:\QMK_MSYS\tmp\cciESETb.debug.temp.o
 .comment       0x00000000       0x13 C:\QMK_MSYS\tmp\ccGvlT2F.debug.temp.o
 .comment       0x00000000       0x13 C:\QMK_MSYS\tmp\cc4I5Saa.debug.temp.o
 .comment       0x00000000       0x13 C:\QMK_MSYS\tmp\ccSnR1cE.debug.temp.o
 .comment       0x00000000       0x13 C:\QMK_MSYS\tmp\ccyWH1w8.debug.temp.o
 .comment       0x00000000       0x13 C:\QMK_MSYS\tmp\ccoCtGLC.debug.temp.o
 .comment       0x00000000       0x13 C:\QMK_MSYS\tmp\ccQpxRe7.debug.temp.o
 .comment       0x00000000       0x13 C:\QMK_MSYS\tmp\ccMU9izB.debug.temp.o
 .comment       0x00000000       0x13 C:\QMK_MSYS\tmp\ccO4Lu04.debug.temp.o
 .debug_info    0x00000000     0x2643 C:\QMK_MSYS\tmp\ccMA0Zmy.debug.temp.o
 .debug_abbrev  0x00000000      0x181 C:\QMK_MSYS\tmp\ccMA0Zmy.debug.temp.o
 .debug_line    0x00000000       0x7b C:\QMK_MSYS\tmp\ccMA0Zmy.debug.temp.o
 .debug_str     0x00000000     0x43a2 C:\QMK_MSYS\tmp\ccMA0Zmy.debug.temp.o
 .debug_line_str
                0x00000000      0x187 C:\QMK_MSYS\tmp\ccMA0Zmy.debug.temp.o
 .comment       0x00000000       0x13 C:\QMK_MSYS\tmp\ccMA0Zmy.debug.temp.o
 .comment       0x00000000       0x13 C:\QMK_MSYS\tmp\ccgPjOV1.debug.temp.o
 .comment       0x00000000       0x13 C:\QMK_MSYS\tmp\ccwAvutv.debug.temp.o
 .comment       0x00000000       0x13 C:\QMK_MSYS\tmp\ccW8nlXY.debug.temp.o
 .comment       0x00000000       0x13 C:\QMK_MSYS\tmp\cccktRCs.debug.temp.o
 .comment       0x00000000       0x13 C:\QMK_MSYS\tmp\cc6pXUhW.debug.temp.o
 .debug_info    0x00000000       0x96 C:\QMK_MSYS\tmp\cc2qiF8p.debug.temp.o
 .debug_abbrev  0x00000000       0x4c C:\QMK_MSYS\tmp\cc2qiF8p.debug.temp.o
 .debug_line    0x00000000       0x3a C:\QMK_MSYS\tmp\cc2qiF8p.debug.temp.o
 .debug_str     0x00000000      0x241 C:\QMK_MSYS\tmp\cc2qiF8p.debug.temp.o
 .debug_line_str
                0x00000000       0x6e C:\QMK_MSYS\tmp\cc2qiF8p.debug.temp.o
 .comment       0x00000000       0x13 C:\QMK_MSYS\tmp\cc2qiF8p.debug.temp.o
 .comment       0x00000000       0x13 C:\QMK_MSYS\tmp\ccek32UT.debug.temp.o
 .debug_info    0x00000000       0x1e C:\QMK_MSYS\tmp\cc4lWdLm.debug.temp.o
 .debug_abbrev  0x00000000       0x10 C:\QMK_MSYS\tmp\cc4lWdLm.debug.temp.o
 .debug_line    0x00000000       0x31 C:\QMK_MSYS\tmp\cc4lWdLm.debug.temp.o
 .debug_str     0x00000000      0x178 C:\QMK_MSYS\tmp\cc4lWdLm.debug.temp.o
 .debug_line_str
                0x00000000       0x55 C:\QMK_MSYS\tmp\cc4lWdLm.debug.temp.o
 .comment       0x00000000       0x13 C:\QMK_MSYS\tmp\cc4lWdLm.debug.temp.o
 .debug_info    0x00000000       0xd4 C:\QMK_MSYS\tmp\ccK0Z0vP.debug.temp.o
 .debug_abbrev  0x00000000       0x9f C:\QMK_MSYS\tmp\ccK0Z0vP.debug.temp.o
 .debug_line    0x00000000       0x4c C:\QMK_MSYS\tmp\ccK0Z0vP.debug.temp.o
 .debug_str     0x00000000      0x253 C:\QMK_MSYS\tmp\ccK0Z0vP.debug.temp.o
 .debug_line_str
                0x00000000       0xd3 C:\QMK_MSYS\tmp\ccK0Z0vP.debug.temp.o
 .comment       0x00000000       0x13 C:\QMK_MSYS\tmp\ccK0Z0vP.debug.temp.o
 .debug_info    0x00000000       0xda C:\QMK_MSYS\tmp\ccSNksgi.debug.temp.o
 .debug_abbrev  0x00000000       0x8b C:\QMK_MSYS\tmp\ccSNksgi.debug.temp.o
 .debug_line    0x00000000       0x55 C:\QMK_MSYS\tmp\ccSNksgi.debug.temp.o
 .debug_str     0x00000000      0x243 C:\QMK_MSYS\tmp\ccSNksgi.debug.temp.o
 .debug_line_str
                0x00000000      0x107 C:\QMK_MSYS\tmp\ccSNksgi.debug.temp.o
 .comment       0x00000000       0x13 C:\QMK_MSYS\tmp\ccSNksgi.debug.temp.o
 .comment       0x00000000       0x13 C:\QMK_MSYS\tmp\ccwnQKdL.debug.temp.o
 .comment       0x00000000       0x13 C:\QMK_MSYS\tmp\ccOJie5d.debug.temp.o
 .comment       0x00000000       0x13 C:\QMK_MSYS\tmp\ccG4SEeH.debug.temp.o
 .comment       0x00000000       0x13 C:\QMK_MSYS\tmp\cckinsha.debug.temp.o
 .comment       0x00000000       0x13 C:\QMK_MSYS\tmp\ccgRbtjD.debug.temp.o
 .comment       0x00000000       0x13 C:\QMK_MSYS\tmp\ccGbXBy6.debug.temp.o
 .comment       0x00000000       0x13 C:\QMK_MSYS\tmp\ccqU3HIz.debug.temp.o
 .comment       0x00000000       0x13 C:\QMK_MSYS\tmp\cccI8FZ1.debug.temp.o
 .comment       0x00000000       0x13 C:\QMK_MSYS\tmp\ccuGGubu.debug.temp.o
 .comment       0x00000000       0x13 C:\QMK_MSYS\tmp\ccwcIvzW.debug.temp.o
 .debug_info    0x00000000     0x127c C:\QMK_MSYS\tmp\ccaCUkXo.debug.temp.o
 .debug_abbrev  0x00000000      0x22c C:\QMK_MSYS\tmp\ccaCUkXo.debug.temp.o
 .debug_line    0x00000000       0xb8 C:\QMK_MSYS\tmp\ccaCUkXo.debug.temp.o
 .debug_str     0x00000000      0xca8 C:\QMK_MSYS\tmp\ccaCUkXo.debug.temp.o
 .debug_line_str
                0x00000000      0x29a C:\QMK_MSYS\tmp\ccaCUkXo.debug.temp.o
 .comment       0x00000000       0x13 C:\QMK_MSYS\tmp\ccaCUkXo.debug.temp.o
 .comment       0x00000000       0x13 C:\QMK_MSYS\tmp\ccU2tOfR.debug.temp.o
 .comment       0x00000000       0x13 C:\QMK_MSYS\tmp\ccOcGXKj.debug.temp.o
 .comment       0x00000000       0x13 C:\QMK_MSYS\tmp\ccW11CeM.debug.temp.o
 .debug_info    0x00000000       0x73 C:\QMK_MSYS\tmp\ccWgJ1Ve.debug.temp.o
 .debug_abbrev  0x00000000       0x26 C:\QMK_MSYS\tmp\ccWgJ1Ve.debug.temp.o
 .debug_line    0x00000000       0x31 C:\QMK_MSYS\tmp\ccWgJ1Ve.debug.temp.o
 .debug_str     0x00000000      0x20c C:\QMK_MSYS\tmp\ccWgJ1Ve.debug.temp.o
 .debug_line_str
                0x00000000       0x54 C:\QMK_MSYS\tmp\ccWgJ1Ve.debug.temp.o
 .comment       0x00000000       0x13 C:\QMK_MSYS\tmp\ccWgJ1Ve.debug.temp.o
 .debug_info    0x00000000       0x73 C:\QMK_MSYS\tmp\cc8hi3yH.debug.temp.o
 .debug_abbrev  0x00000000       0x26 C:\QMK_MSYS\tmp\cc8hi3yH.debug.temp.o
 .debug_line    0x00000000       0x31 C:\QMK_MSYS\tmp\cc8hi3yH.debug.temp.o
 .debug_str     0x00000000      0x20c C:\QMK_MSYS\tmp\cc8hi3yH.debug.temp.o
 .debug_line_str
                0x00000000       0x54 C:\QMK_MSYS\tmp\cc8hi3yH.debug.temp.o
 .comment       0x00000000       0x13 C:\QMK_MSYS\tmp\cc8hi3yH.debug.temp.o
 .comment       0x00000000       0x13 C:\QMK_MSYS\tmp\ccS8sjUd.debug.temp.o
 .comment       0x00000000       0x13 C:\QMK_MSYS\tmp\ccMcYjfK.debug.temp.o
 .comment       0x00000000       0x13 C:\QMK_MSYS\tmp\ccyqoOug.debug.temp.o
 .comment       0x00000000       0x13 C:\QMK_MSYS\tmp\cccqrNWM.debug.temp.o
 .debug_info    0x00000000       0x73 C:\QMK_MSYS\tmp\cccTphoj.debug.temp.o
 .debug_abbrev  0x00000000       0x26 C:\QMK_MSYS\tmp\cccTphoj.debug.temp.o
 .debug_line    0x00000000       0x31 C:\QMK_MSYS\tmp\cccTphoj.debug.temp.o
 .debug_str     0x00000000      0x209 C:\QMK_MSYS\tmp\cccTphoj.debug.temp.o
 .debug_line_str
                0x00000000       0x51 C:\QMK_MSYS\tmp\cccTphoj.debug.temp.o
 .comment       0x00000000       0x13 C:\QMK_MSYS\tmp\cccTphoj.debug.temp.o
 .debug_info    0x00000000       0x73 C:\QMK_MSYS\tmp\ccC3P92P.debug.temp.o
 .debug_abbrev  0x00000000       0x26 C:\QMK_MSYS\tmp\ccC3P92P.debug.temp.o
 .debug_line    0x00000000       0x31 C:\QMK_MSYS\tmp\ccC3P92P.debug.temp.o
 .debug_str     0x00000000      0x20c C:\QMK_MSYS\tmp\ccC3P92P.debug.temp.o
 .debug_line_str
                0x00000000       0x54 C:\QMK_MSYS\tmp\ccC3P92P.debug.temp.o
 .comment       0x00000000       0x13 C:\QMK_MSYS\tmp\ccC3P92P.debug.temp.o
 .debug_info    0x00000000       0x73 C:\QMK_MSYS\tmp\ccWUVnCm.debug.temp.o
 .debug_abbrev  0x00000000       0x26 C:\QMK_MSYS\tmp\ccWUVnCm.debug.temp.o
 .debug_line    0x00000000       0x31 C:\QMK_MSYS\tmp\ccWUVnCm.debug.temp.o
 .debug_str     0x00000000      0x20f C:\QMK_MSYS\tmp\ccWUVnCm.debug.temp.o
 .debug_line_str
                0x00000000       0x57 C:\QMK_MSYS\tmp\ccWUVnCm.debug.temp.o
 .comment       0x00000000       0x13 C:\QMK_MSYS\tmp\ccWUVnCm.debug.temp.o
 .debug_info    0x00000000      0xb4c C:\QMK_MSYS\tmp\cc2MnlaT.debug.temp.o
 .debug_abbrev  0x00000000      0x2b8 C:\QMK_MSYS\tmp\cc2MnlaT.debug.temp.o
 .debug_line    0x00000000       0xa2 C:\QMK_MSYS\tmp\cc2MnlaT.debug.temp.o
 .debug_str     0x00000000      0x72a C:\QMK_MSYS\tmp\cc2MnlaT.debug.temp.o
 .debug_line_str
                0x00000000      0x209 C:\QMK_MSYS\tmp\cc2MnlaT.debug.temp.o
 .comment       0x00000000       0x13 C:\QMK_MSYS\tmp\cc2MnlaT.debug.temp.o
 .comment       0x00000000       0x13 C:\QMK_MSYS\tmp\cckT9yUp.debug.temp.o
 .debug_info    0x00000000       0x73 C:\QMK_MSYS\tmp\ccSpVPAW.debug.temp.o
 .debug_abbrev  0x00000000       0x26 C:\QMK_MSYS\tmp\ccSpVPAW.debug.temp.o
 .debug_line    0x00000000       0x31 C:\QMK_MSYS\tmp\ccSpVPAW.debug.temp.o
 .debug_str     0x00000000      0x20b C:\QMK_MSYS\tmp\ccSpVPAW.debug.temp.o
 .debug_line_str
                0x00000000       0x53 C:\QMK_MSYS\tmp\ccSpVPAW.debug.temp.o
 .comment       0x00000000       0x13 C:\QMK_MSYS\tmp\ccSpVPAW.debug.temp.o
 .debug_info    0x00000000      0xd25 C:\QMK_MSYS\tmp\cc8uREns.debug.temp.o
 .debug_abbrev  0x00000000      0x2a6 C:\QMK_MSYS\tmp\cc8uREns.debug.temp.o
 .debug_line    0x00000000       0xa7 C:\QMK_MSYS\tmp\cc8uREns.debug.temp.o
 .debug_str     0x00000000      0x800 C:\QMK_MSYS\tmp\cc8uREns.debug.temp.o
 .debug_line_str
                0x00000000      0x21a C:\QMK_MSYS\tmp\cc8uREns.debug.temp.o
 .comment       0x00000000       0x13 C:\QMK_MSYS\tmp\cc8uREns.debug.temp.o
 .debug_info    0x00000000       0x73 C:\QMK_MSYS\tmp\ccASVY1X.debug.temp.o
 .debug_abbrev  0x00000000       0x26 C:\QMK_MSYS\tmp\ccASVY1X.debug.temp.o
 .debug_line    0x00000000       0x31 C:\QMK_MSYS\tmp\ccASVY1X.debug.temp.o
 .debug_str     0x00000000      0x20a C:\QMK_MSYS\tmp\ccASVY1X.debug.temp.o
 .debug_line_str
                0x00000000       0x52 C:\QMK_MSYS\tmp\ccASVY1X.debug.temp.o
 .comment       0x00000000       0x13 C:\QMK_MSYS\tmp\ccASVY1X.debug.temp.o
 .debug_info    0x00000000       0x73 C:\QMK_MSYS\tmp\ccmkp5Xt.debug.temp.o
 .debug_abbrev  0x00000000       0x26 C:\QMK_MSYS\tmp\ccmkp5Xt.debug.temp.o
 .debug_line    0x00000000       0x31 C:\QMK_MSYS\tmp\ccmkp5Xt.debug.temp.o
 .debug_str     0x00000000      0x20e C:\QMK_MSYS\tmp\ccmkp5Xt.debug.temp.o
 .debug_line_str
                0x00000000       0x56 C:\QMK_MSYS\tmp\ccmkp5Xt.debug.temp.o
 .comment       0x00000000       0x13 C:\QMK_MSYS\tmp\ccmkp5Xt.debug.temp.o
 .comment       0x00000000       0x13 C:\QMK_MSYS\tmp\ccUajHNZ.debug.temp.o
 .debug_info    0x00000000       0x73 C:\QMK_MSYS\tmp\ccGWwOQv.debug.temp.o
 .debug_abbrev  0x00000000       0x26 C:\QMK_MSYS\tmp\ccGWwOQv.debug.temp.o
 .debug_line    0x00000000       0x31 C:\QMK_MSYS\tmp\ccGWwOQv.debug.temp.o
 .debug_str     0x00000000      0x212 C:\QMK_MSYS\tmp\ccGWwOQv.debug.temp.o
 .debug_line_str
                0x00000000       0x5a C:\QMK_MSYS\tmp\ccGWwOQv.debug.temp.o
 .comment       0x00000000       0x13 C:\QMK_MSYS\tmp\ccGWwOQv.debug.temp.o
 .debug_info    0x00000000       0x73 C:\QMK_MSYS\tmp\ccSJE1S1.debug.temp.o
 .debug_abbrev  0x00000000       0x26 C:\QMK_MSYS\tmp\ccSJE1S1.debug.temp.o
 .debug_line    0x00000000       0x31 C:\QMK_MSYS\tmp\ccSJE1S1.debug.temp.o
 .debug_str     0x00000000      0x210 C:\QMK_MSYS\tmp\ccSJE1S1.debug.temp.o
 .debug_line_str
                0x00000000       0x58 C:\QMK_MSYS\tmp\ccSJE1S1.debug.temp.o
 .comment       0x00000000       0x13 C:\QMK_MSYS\tmp\ccSJE1S1.debug.temp.o
 .comment       0x00000000       0x13 C:\QMK_MSYS\tmp\ccCSIbRx.debug.temp.o
 .debug_info    0x00000000       0x73 C:\QMK_MSYS\tmp\ccOjPTY3.debug.temp.o
 .debug_abbrev  0x00000000       0x26 C:\QMK_MSYS\tmp\ccOjPTY3.debug.temp.o
 .debug_line    0x00000000       0x31 C:\QMK_MSYS\tmp\ccOjPTY3.debug.temp.o
 .debug_str     0x00000000      0x212 C:\QMK_MSYS\tmp\ccOjPTY3.debug.temp.o
 .debug_line_str
                0x00000000       0x5a C:\QMK_MSYS\tmp\ccOjPTY3.debug.temp.o
 .comment       0x00000000       0x13 C:\QMK_MSYS\tmp\ccOjPTY3.debug.temp.o
 .debug_info    0x00000000       0x73 C:\QMK_MSYS\tmp\ccgBye6z.debug.temp.o
 .debug_abbrev  0x00000000       0x26 C:\QMK_MSYS\tmp\ccgBye6z.debug.temp.o
 .debug_line    0x00000000       0x31 C:\QMK_MSYS\tmp\ccgBye6z.debug.temp.o
 .debug_str     0x00000000      0x212 C:\QMK_MSYS\tmp\ccgBye6z.debug.temp.o
 .debug_line_str
                0x00000000       0x5a C:\QMK_MSYS\tmp\ccgBye6z.debug.temp.o
 .comment       0x00000000       0x13 C:\QMK_MSYS\tmp\ccgBye6z.debug.temp.o
 .debug_info    0x00000000       0x73 C:\QMK_MSYS\tmp\ccQ2IDf5.debug.temp.o
 .debug_abbrev  0x00000000       0x26 C:\QMK_MSYS\tmp\ccQ2IDf5.debug.temp.o
 .debug_line    0x00000000       0x31 C:\QMK_MSYS\tmp\ccQ2IDf5.debug.temp.o
 .debug_str     0x00000000      0x20f C:\QMK_MSYS\tmp\ccQ2IDf5.debug.temp.o
 .debug_line_str
                0x00000000       0x57 C:\QMK_MSYS\tmp\ccQ2IDf5.debug.temp.o
 .comment       0x00000000       0x13 C:\QMK_MSYS\tmp\ccQ2IDf5.debug.temp.o
 .debug_info    0x00000000       0x73 C:\QMK_MSYS\tmp\ccUD89jA.debug.temp.o
 .debug_abbrev  0x00000000       0x26 C:\QMK_MSYS\tmp\ccUD89jA.debug.temp.o
 .debug_line    0x00000000       0x31 C:\QMK_MSYS\tmp\ccUD89jA.debug.temp.o
 .debug_str     0x00000000      0x213 C:\QMK_MSYS\tmp\ccUD89jA.debug.temp.o
 .debug_line_str
                0x00000000       0x5b C:\QMK_MSYS\tmp\ccUD89jA.debug.temp.o
 .comment       0x00000000       0x13 C:\QMK_MSYS\tmp\ccUD89jA.debug.temp.o
 .debug_info    0x00000000       0x73 C:\QMK_MSYS\tmp\ccgIQMB5.debug.temp.o
 .debug_abbrev  0x00000000       0x26 C:\QMK_MSYS\tmp\ccgIQMB5.debug.temp.o
 .debug_line    0x00000000       0x31 C:\QMK_MSYS\tmp\ccgIQMB5.debug.temp.o
 .debug_str     0x00000000      0x213 C:\QMK_MSYS\tmp\ccgIQMB5.debug.temp.o
 .debug_line_str
                0x00000000       0x5b C:\QMK_MSYS\tmp\ccgIQMB5.debug.temp.o
 .comment       0x00000000       0x13 C:\QMK_MSYS\tmp\ccgIQMB5.debug.temp.o
 .debug_info    0x00000000       0x73 C:\QMK_MSYS\tmp\cckJppSA.debug.temp.o
 .debug_abbrev  0x00000000       0x26 C:\QMK_MSYS\tmp\cckJppSA.debug.temp.o
 .debug_line    0x00000000       0x31 C:\QMK_MSYS\tmp\cckJppSA.debug.temp.o
 .debug_str     0x00000000      0x211 C:\QMK_MSYS\tmp\cckJppSA.debug.temp.o
 .debug_line_str
                0x00000000       0x59 C:\QMK_MSYS\tmp\cckJppSA.debug.temp.o
 .comment       0x00000000       0x13 C:\QMK_MSYS\tmp\cckJppSA.debug.temp.o
 .comment       0x00000000       0x13 C:\QMK_MSYS\tmp\ccgwBwl6.debug.temp.o
 .comment       0x00000000       0x13 C:\QMK_MSYS\tmp\ccKS4vMB.debug.temp.o
 .comment       0x00000000       0x13 C:\QMK_MSYS\tmp\cca7GX86.debug.temp.o
 .debug_info    0x00000000      0x83f C:\QMK_MSYS\tmp\ccOkJsJC.debug.temp.o
 .debug_abbrev  0x00000000      0x20c C:\QMK_MSYS\tmp\ccOkJsJC.debug.temp.o
 .debug_line    0x00000000       0xa4 C:\QMK_MSYS\tmp\ccOkJsJC.debug.temp.o
 .debug_str     0x00000000      0x516 C:\QMK_MSYS\tmp\ccOkJsJC.debug.temp.o
 .debug_line_str
                0x00000000      0x27b C:\QMK_MSYS\tmp\ccOkJsJC.debug.temp.o
 .comment       0x00000000       0x13 C:\QMK_MSYS\tmp\ccOkJsJC.debug.temp.o
 .debug_info    0x00000000      0x5a5 C:\QMK_MSYS\tmp\ccibcQi8.debug.temp.o
 .debug_abbrev  0x00000000      0x15f C:\QMK_MSYS\tmp\ccibcQi8.debug.temp.o
 .debug_line    0x00000000       0x75 C:\QMK_MSYS\tmp\ccibcQi8.debug.temp.o
 .debug_str     0x00000000      0x589 C:\QMK_MSYS\tmp\ccibcQi8.debug.temp.o
 .debug_line_str
                0x00000000      0x1b3 C:\QMK_MSYS\tmp\ccibcQi8.debug.temp.o
 .comment       0x00000000       0x13 C:\QMK_MSYS\tmp\ccibcQi8.debug.temp.o
 .debug_info    0x00000000       0x7a C:\QMK_MSYS\tmp\cc8w1jUC.debug.temp.o
 .debug_abbrev  0x00000000       0x26 C:\QMK_MSYS\tmp\cc8w1jUC.debug.temp.o
 .debug_line    0x00000000       0x31 C:\QMK_MSYS\tmp\cc8w1jUC.debug.temp.o
 .debug_str     0x00000000      0x215 C:\QMK_MSYS\tmp\cc8w1jUC.debug.temp.o
 .debug_line_str
                0x00000000       0x57 C:\QMK_MSYS\tmp\cc8w1jUC.debug.temp.o
 .comment       0x00000000       0x13 C:\QMK_MSYS\tmp\cc8w1jUC.debug.temp.o
 .debug_info    0x00000000       0x7a C:\QMK_MSYS\tmp\ccS98Pq7.debug.temp.o
 .debug_abbrev  0x00000000       0x26 C:\QMK_MSYS\tmp\ccS98Pq7.debug.temp.o
 .debug_line    0x00000000       0x31 C:\QMK_MSYS\tmp\ccS98Pq7.debug.temp.o
 .debug_str     0x00000000      0x213 C:\QMK_MSYS\tmp\ccS98Pq7.debug.temp.o
 .debug_line_str
                0x00000000       0x55 C:\QMK_MSYS\tmp\ccS98Pq7.debug.temp.o
 .comment       0x00000000       0x13 C:\QMK_MSYS\tmp\ccS98Pq7.debug.temp.o
 .debug_info    0x00000000       0x7a C:\QMK_MSYS\tmp\ccUxYSVB.debug.temp.o
 .debug_abbrev  0x00000000       0x26 C:\QMK_MSYS\tmp\ccUxYSVB.debug.temp.o
 .debug_line    0x00000000       0x31 C:\QMK_MSYS\tmp\ccUxYSVB.debug.temp.o
 .debug_str     0x00000000      0x213 C:\QMK_MSYS\tmp\ccUxYSVB.debug.temp.o
 .debug_line_str
                0x00000000       0x55 C:\QMK_MSYS\tmp\ccUxYSVB.debug.temp.o
 .comment       0x00000000       0x13 C:\QMK_MSYS\tmp\ccUxYSVB.debug.temp.o
 .debug_info    0x00000000       0x7a C:\QMK_MSYS\tmp\ccKhEVE6.debug.temp.o
 .debug_abbrev  0x00000000       0x26 C:\QMK_MSYS\tmp\ccKhEVE6.debug.temp.o
 .debug_line    0x00000000       0x31 C:\QMK_MSYS\tmp\ccKhEVE6.debug.temp.o
 .debug_str     0x00000000      0x216 C:\QMK_MSYS\tmp\ccKhEVE6.debug.temp.o
 .debug_line_str
                0x00000000       0x58 C:\QMK_MSYS\tmp\ccKhEVE6.debug.temp.o
 .comment       0x00000000       0x13 C:\QMK_MSYS\tmp\ccKhEVE6.debug.temp.o
 .debug_info    0x00000000       0x7a C:\QMK_MSYS\tmp\ccAjfVhB.debug.temp.o
 .debug_abbrev  0x00000000       0x26 C:\QMK_MSYS\tmp\ccAjfVhB.debug.temp.o
 .debug_line    0x00000000       0x31 C:\QMK_MSYS\tmp\ccAjfVhB.debug.temp.o
 .debug_str     0x00000000      0x213 C:\QMK_MSYS\tmp\ccAjfVhB.debug.temp.o
 .debug_line_str
                0x00000000       0x55 C:\QMK_MSYS\tmp\ccAjfVhB.debug.temp.o
 .comment       0x00000000       0x13 C:\QMK_MSYS\tmp\ccAjfVhB.debug.temp.o
 .debug_info    0x00000000       0x7a C:\QMK_MSYS\tmp\ccOXdic6.debug.temp.o
 .debug_abbrev  0x00000000       0x26 C:\QMK_MSYS\tmp\ccOXdic6.debug.temp.o
 .debug_line    0x00000000       0x31 C:\QMK_MSYS\tmp\ccOXdic6.debug.temp.o
 .debug_str     0x00000000      0x213 C:\QMK_MSYS\tmp\ccOXdic6.debug.temp.o
 .debug_line_str
                0x00000000       0x55 C:\QMK_MSYS\tmp\ccOXdic6.debug.temp.o
 .comment       0x00000000       0x13 C:\QMK_MSYS\tmp\ccOXdic6.debug.temp.o
 .debug_info    0x00000000       0x7a C:\QMK_MSYS\tmp\ccmYul1A.debug.temp.o
 .debug_abbrev  0x00000000       0x26 C:\QMK_MSYS\tmp\ccmYul1A.debug.temp.o
 .debug_line    0x00000000       0x31 C:\QMK_MSYS\tmp\ccmYul1A.debug.temp.o
 .debug_str     0x00000000      0x213 C:\QMK_MSYS\tmp\ccmYul1A.debug.temp.o
 .debug_line_str
                0x00000000       0x55 C:\QMK_MSYS\tmp\ccmYul1A.debug.temp.o
 .comment       0x00000000       0x13 C:\QMK_MSYS\tmp\ccmYul1A.debug.temp.o
 .comment       0x00000000       0x13 C:\QMK_MSYS\tmp\ccEe4n45.debug.temp.o
 .debug_info    0x00000000       0x7a C:\QMK_MSYS\tmp\ccycgk1A.debug.temp.o
 .debug_abbrev  0x00000000       0x26 C:\QMK_MSYS\tmp\ccycgk1A.debug.temp.o
 .debug_line    0x00000000       0x31 C:\QMK_MSYS\tmp\ccycgk1A.debug.temp.o
 .debug_str     0x00000000      0x213 C:\QMK_MSYS\tmp\ccycgk1A.debug.temp.o
 .debug_line_str
                0x00000000       0x55 C:\QMK_MSYS\tmp\ccycgk1A.debug.temp.o
 .comment       0x00000000       0x13 C:\QMK_MSYS\tmp\ccycgk1A.debug.temp.o
 .debug_info    0x00000000       0x7a C:\QMK_MSYS\tmp\ccWl0UX5.debug.temp.o
 .debug_abbrev  0x00000000       0x26 C:\QMK_MSYS\tmp\ccWl0UX5.debug.temp.o
 .debug_line    0x00000000       0x31 C:\QMK_MSYS\tmp\ccWl0UX5.debug.temp.o
 .debug_str     0x00000000      0x213 C:\QMK_MSYS\tmp\ccWl0UX5.debug.temp.o
 .debug_line_str
                0x00000000       0x55 C:\QMK_MSYS\tmp\ccWl0UX5.debug.temp.o
 .comment       0x00000000       0x13 C:\QMK_MSYS\tmp\ccWl0UX5.debug.temp.o
 .debug_info    0x00000000       0x7a C:\QMK_MSYS\tmp\ccaMPMCE.debug.temp.o
 .debug_abbrev  0x00000000       0x26 C:\QMK_MSYS\tmp\ccaMPMCE.debug.temp.o
 .debug_line    0x00000000       0x31 C:\QMK_MSYS\tmp\ccaMPMCE.debug.temp.o
 .debug_str     0x00000000      0x213 C:\QMK_MSYS\tmp\ccaMPMCE.debug.temp.o
 .debug_line_str
                0x00000000       0x55 C:\QMK_MSYS\tmp\ccaMPMCE.debug.temp.o
 .comment       0x00000000       0x13 C:\QMK_MSYS\tmp\ccaMPMCE.debug.temp.o
 .debug_info    0x00000000       0x7a C:\QMK_MSYS\tmp\cc0vXvcd.debug.temp.o
 .debug_abbrev  0x00000000       0x26 C:\QMK_MSYS\tmp\cc0vXvcd.debug.temp.o
 .debug_line    0x00000000       0x31 C:\QMK_MSYS\tmp\cc0vXvcd.debug.temp.o
 .debug_str     0x00000000      0x217 C:\QMK_MSYS\tmp\cc0vXvcd.debug.temp.o
 .debug_line_str
                0x00000000       0x59 C:\QMK_MSYS\tmp\cc0vXvcd.debug.temp.o
 .comment       0x00000000       0x13 C:\QMK_MSYS\tmp\cc0vXvcd.debug.temp.o
 .debug_info    0x00000000      0x2e8 C:\QMK_MSYS\tmp\ccGwgp3L.debug.temp.o
 .debug_abbrev  0x00000000      0x136 C:\QMK_MSYS\tmp\ccGwgp3L.debug.temp.o
 .debug_line    0x00000000       0x6c C:\QMK_MSYS\tmp\ccGwgp3L.debug.temp.o
 .debug_str     0x00000000      0x313 C:\QMK_MSYS\tmp\ccGwgp3L.debug.temp.o
 .debug_line_str
                0x00000000      0x18e C:\QMK_MSYS\tmp\ccGwgp3L.debug.temp.o
 .comment       0x00000000       0x13 C:\QMK_MSYS\tmp\ccGwgp3L.debug.temp.o
 .debug_info    0x00000000       0x7a C:\QMK_MSYS\tmp\ccq3emPk.debug.temp.o
 .debug_abbrev  0x00000000       0x26 C:\QMK_MSYS\tmp\ccq3emPk.debug.temp.o
 .debug_line    0x00000000       0x31 C:\QMK_MSYS\tmp\ccq3emPk.debug.temp.o
 .debug_str     0x00000000      0x213 C:\QMK_MSYS\tmp\ccq3emPk.debug.temp.o
 .debug_line_str
                0x00000000       0x55 C:\QMK_MSYS\tmp\ccq3emPk.debug.temp.o
 .comment       0x00000000       0x13 C:\QMK_MSYS\tmp\ccq3emPk.debug.temp.o
 .debug_info    0x00000000       0x7a C:\QMK_MSYS\tmp\cc8oKcAT.debug.temp.o
 .debug_abbrev  0x00000000       0x26 C:\QMK_MSYS\tmp\cc8oKcAT.debug.temp.o
 .debug_line    0x00000000       0x31 C:\QMK_MSYS\tmp\cc8oKcAT.debug.temp.o
 .debug_str     0x00000000      0x213 C:\QMK_MSYS\tmp\cc8oKcAT.debug.temp.o
 .debug_line_str
                0x00000000       0x55 C:\QMK_MSYS\tmp\cc8oKcAT.debug.temp.o
 .comment       0x00000000       0x13 C:\QMK_MSYS\tmp\cc8oKcAT.debug.temp.o
 .debug_info    0x00000000       0x7a C:\QMK_MSYS\tmp\cc0nJTws.debug.temp.o
 .debug_abbrev  0x00000000       0x26 C:\QMK_MSYS\tmp\cc0nJTws.debug.temp.o
 .debug_line    0x00000000       0x31 C:\QMK_MSYS\tmp\cc0nJTws.debug.temp.o
 .debug_str     0x00000000      0x213 C:\QMK_MSYS\tmp\cc0nJTws.debug.temp.o
 .debug_line_str
                0x00000000       0x55 C:\QMK_MSYS\tmp\cc0nJTws.debug.temp.o
 .comment       0x00000000       0x13 C:\QMK_MSYS\tmp\cc0nJTws.debug.temp.o
 .debug_info    0x00000000       0x7a C:\QMK_MSYS\tmp\cckjHAr1.debug.temp.o
 .debug_abbrev  0x00000000       0x26 C:\QMK_MSYS\tmp\cckjHAr1.debug.temp.o
 .debug_line    0x00000000       0x31 C:\QMK_MSYS\tmp\cckjHAr1.debug.temp.o
 .debug_str     0x00000000      0x216 C:\QMK_MSYS\tmp\cckjHAr1.debug.temp.o
 .debug_line_str
                0x00000000       0x58 C:\QMK_MSYS\tmp\cckjHAr1.debug.temp.o
 .comment       0x00000000       0x13 C:\QMK_MSYS\tmp\cckjHAr1.debug.temp.o
 .debug_info    0x00000000       0x7a C:\QMK_MSYS\tmp\cckELplA.debug.temp.o
 .debug_abbrev  0x00000000       0x26 C:\QMK_MSYS\tmp\cckELplA.debug.temp.o
 .debug_line    0x00000000       0x31 C:\QMK_MSYS\tmp\cckELplA.debug.temp.o
 .debug_str     0x00000000      0x21a C:\QMK_MSYS\tmp\cckELplA.debug.temp.o
 .debug_line_str
                0x00000000       0x5c C:\QMK_MSYS\tmp\cckELplA.debug.temp.o
 .comment       0x00000000       0x13 C:\QMK_MSYS\tmp\cckELplA.debug.temp.o
 .debug_info    0x00000000       0x7a C:\QMK_MSYS\tmp\ccwPPss9.debug.temp.o
 .debug_abbrev  0x00000000       0x26 C:\QMK_MSYS\tmp\ccwPPss9.debug.temp.o
 .debug_line    0x00000000       0x31 C:\QMK_MSYS\tmp\ccwPPss9.debug.temp.o
 .debug_str     0x00000000      0x213 C:\QMK_MSYS\tmp\ccwPPss9.debug.temp.o
 .debug_line_str
                0x00000000       0x55 C:\QMK_MSYS\tmp\ccwPPss9.debug.temp.o
 .comment       0x00000000       0x13 C:\QMK_MSYS\tmp\ccwPPss9.debug.temp.o
 .debug_info    0x00000000       0x7a C:\QMK_MSYS\tmp\ccQA4iuI.debug.temp.o
 .debug_abbrev  0x00000000       0x26 C:\QMK_MSYS\tmp\ccQA4iuI.debug.temp.o
 .debug_line    0x00000000       0x31 C:\QMK_MSYS\tmp\ccQA4iuI.debug.temp.o
 .debug_str     0x00000000      0x213 C:\QMK_MSYS\tmp\ccQA4iuI.debug.temp.o
 .debug_line_str
                0x00000000       0x55 C:\QMK_MSYS\tmp\ccQA4iuI.debug.temp.o
 .comment       0x00000000       0x13 C:\QMK_MSYS\tmp\ccQA4iuI.debug.temp.o
 .debug_info    0x00000000       0x7a C:\QMK_MSYS\tmp\ccAvNFyg.debug.temp.o
 .debug_abbrev  0x00000000       0x26 C:\QMK_MSYS\tmp\ccAvNFyg.debug.temp.o
 .debug_line    0x00000000       0x31 C:\QMK_MSYS\tmp\ccAvNFyg.debug.temp.o
 .debug_str     0x00000000      0x214 C:\QMK_MSYS\tmp\ccAvNFyg.debug.temp.o
 .debug_line_str
                0x00000000       0x56 C:\QMK_MSYS\tmp\ccAvNFyg.debug.temp.o
 .comment       0x00000000       0x13 C:\QMK_MSYS\tmp\ccAvNFyg.debug.temp.o
 .debug_info    0x00000000       0x7a C:\QMK_MSYS\tmp\ccUyB3AO.debug.temp.o
 .debug_abbrev  0x00000000       0x26 C:\QMK_MSYS\tmp\ccUyB3AO.debug.temp.o
 .debug_line    0x00000000       0x31 C:\QMK_MSYS\tmp\ccUyB3AO.debug.temp.o
 .debug_str     0x00000000      0x214 C:\QMK_MSYS\tmp\ccUyB3AO.debug.temp.o
 .debug_line_str
                0x00000000       0x56 C:\QMK_MSYS\tmp\ccUyB3AO.debug.temp.o
 .comment       0x00000000       0x13 C:\QMK_MSYS\tmp\ccUyB3AO.debug.temp.o
 .comment       0x00000000       0x13 C:\QMK_MSYS\tmp\ccKK5gCm.debug.temp.o
 .debug_info    0x00000000       0x7a C:\QMK_MSYS\tmp\ccOPQIQU.debug.temp.o
 .debug_abbrev  0x00000000       0x26 C:\QMK_MSYS\tmp\ccOPQIQU.debug.temp.o
 .debug_line    0x00000000       0x31 C:\QMK_MSYS\tmp\ccOPQIQU.debug.temp.o
 .debug_str     0x00000000      0x213 C:\QMK_MSYS\tmp\ccOPQIQU.debug.temp.o
 .debug_line_str
                0x00000000       0x55 C:\QMK_MSYS\tmp\ccOPQIQU.debug.temp.o
 .comment       0x00000000       0x13 C:\QMK_MSYS\tmp\ccOPQIQU.debug.temp.o
 .debug_info    0x00000000       0x7a C:\QMK_MSYS\tmp\ccSeAoZs.debug.temp.o
 .debug_abbrev  0x00000000       0x26 C:\QMK_MSYS\tmp\ccSeAoZs.debug.temp.o
 .debug_line    0x00000000       0x31 C:\QMK_MSYS\tmp\ccSeAoZs.debug.temp.o
 .debug_str     0x00000000      0x214 C:\QMK_MSYS\tmp\ccSeAoZs.debug.temp.o
 .debug_line_str
                0x00000000       0x56 C:\QMK_MSYS\tmp\ccSeAoZs.debug.temp.o
 .comment       0x00000000       0x13 C:\QMK_MSYS\tmp\ccSeAoZs.debug.temp.o
 .comment       0x00000000       0x13 C:\QMK_MSYS\tmp\ccCHaup1.debug.temp.o
 .comment       0x00000000       0x13 C:\QMK_MSYS\tmp\ccaMHsKz.debug.temp.o
 .comment       0x00000000       0x13 C:\QMK_MSYS\tmp\cco0Ypj8.debug.temp.o
 .debug_info    0x00000000       0x7a C:\QMK_MSYS\tmp\ccENNfOG.debug.temp.o
 .debug_abbrev  0x00000000       0x26 C:\QMK_MSYS\tmp\ccENNfOG.debug.temp.o
 .debug_line    0x00000000       0x31 C:\QMK_MSYS\tmp\ccENNfOG.debug.temp.o
 .debug_str     0x00000000      0x229 C:\QMK_MSYS\tmp\ccENNfOG.debug.temp.o
 .debug_line_str
                0x00000000       0x6b C:\QMK_MSYS\tmp\ccENNfOG.debug.temp.o
 .comment       0x00000000       0x13 C:\QMK_MSYS\tmp\ccENNfOG.debug.temp.o
 .debug_info    0x00000000       0x7a C:\QMK_MSYS\tmp\ccE8HPke.debug.temp.o
 .debug_abbrev  0x00000000       0x26 C:\QMK_MSYS\tmp\ccE8HPke.debug.temp.o
 .debug_line    0x00000000       0x31 C:\QMK_MSYS\tmp\ccE8HPke.debug.temp.o
 .debug_str     0x00000000      0x229 C:\QMK_MSYS\tmp\ccE8HPke.debug.temp.o
 .debug_line_str
                0x00000000       0x6b C:\QMK_MSYS\tmp\ccE8HPke.debug.temp.o
 .comment       0x00000000       0x13 C:\QMK_MSYS\tmp\ccE8HPke.debug.temp.o
 .debug_info    0x00000000       0x7a C:\QMK_MSYS\tmp\ccERGbML.debug.temp.o
 .debug_abbrev  0x00000000       0x26 C:\QMK_MSYS\tmp\ccERGbML.debug.temp.o
 .debug_line    0x00000000       0x31 C:\QMK_MSYS\tmp\ccERGbML.debug.temp.o
 .debug_str     0x00000000      0x229 C:\QMK_MSYS\tmp\ccERGbML.debug.temp.o
 .debug_line_str
                0x00000000       0x6b C:\QMK_MSYS\tmp\ccERGbML.debug.temp.o
 .comment       0x00000000       0x13 C:\QMK_MSYS\tmp\ccERGbML.debug.temp.o
 .debug_info    0x00000000       0x7a C:\QMK_MSYS\tmp\cc8F4mcj.debug.temp.o
 .debug_abbrev  0x00000000       0x26 C:\QMK_MSYS\tmp\cc8F4mcj.debug.temp.o
 .debug_line    0x00000000       0x31 C:\QMK_MSYS\tmp\cc8F4mcj.debug.temp.o
 .debug_str     0x00000000      0x22d C:\QMK_MSYS\tmp\cc8F4mcj.debug.temp.o
 .debug_line_str
                0x00000000       0x6f C:\QMK_MSYS\tmp\cc8F4mcj.debug.temp.o
 .comment       0x00000000       0x13 C:\QMK_MSYS\tmp\cc8F4mcj.debug.temp.o
 .debug_info    0x00000000       0x7a C:\QMK_MSYS\tmp\cciuX9OQ.debug.temp.o
 .debug_abbrev  0x00000000       0x26 C:\QMK_MSYS\tmp\cciuX9OQ.debug.temp.o
 .debug_line    0x00000000       0x31 C:\QMK_MSYS\tmp\cciuX9OQ.debug.temp.o
 .debug_str     0x00000000      0x229 C:\QMK_MSYS\tmp\cciuX9OQ.debug.temp.o
 .debug_line_str
                0x00000000       0x6b C:\QMK_MSYS\tmp\cciuX9OQ.debug.temp.o
 .comment       0x00000000       0x13 C:\QMK_MSYS\tmp\cciuX9OQ.debug.temp.o
 .comment       0x00000000       0x13 C:\QMK_MSYS\tmp\cc4Drlro.debug.temp.o
 .debug_info    0x00000000       0x7a C:\QMK_MSYS\tmp\ccOMtAgW.debug.temp.o
 .debug_abbrev  0x00000000       0x26 C:\QMK_MSYS\tmp\ccOMtAgW.debug.temp.o
 .debug_line    0x00000000       0x31 C:\QMK_MSYS\tmp\ccOMtAgW.debug.temp.o
 .debug_str     0x00000000      0x229 C:\QMK_MSYS\tmp\ccOMtAgW.debug.temp.o
 .debug_line_str
                0x00000000       0x6b C:\QMK_MSYS\tmp\ccOMtAgW.debug.temp.o
 .comment       0x00000000       0x13 C:\QMK_MSYS\tmp\ccOMtAgW.debug.temp.o
 .comment       0x00000000       0x13 C:\QMK_MSYS\tmp\ccAQkt0t.debug.temp.o
 .comment       0x00000000       0x13 C:\QMK_MSYS\tmp\ccQpYuI1.debug.temp.o
 .debug_info    0x00000000       0x7a C:\QMK_MSYS\tmp\ccggOBDz.debug.temp.o
 .debug_abbrev  0x00000000       0x26 C:\QMK_MSYS\tmp\ccggOBDz.debug.temp.o
 .debug_line    0x00000000       0x31 C:\QMK_MSYS\tmp\ccggOBDz.debug.temp.o
 .debug_str     0x00000000      0x229 C:\QMK_MSYS\tmp\ccggOBDz.debug.temp.o
 .debug_line_str
                0x00000000       0x6b C:\QMK_MSYS\tmp\ccggOBDz.debug.temp.o
 .comment       0x00000000       0x13 C:\QMK_MSYS\tmp\ccggOBDz.debug.temp.o
 .comment       0x00000000       0x13 C:\QMK_MSYS\tmp\ccu6aUw7.debug.temp.o
 .debug_info    0x00000000       0x7a C:\QMK_MSYS\tmp\ccU82opF.debug.temp.o
 .debug_abbrev  0x00000000       0x26 C:\QMK_MSYS\tmp\ccU82opF.debug.temp.o
 .debug_line    0x00000000       0x31 C:\QMK_MSYS\tmp\ccU82opF.debug.temp.o
 .debug_str     0x00000000      0x22e C:\QMK_MSYS\tmp\ccU82opF.debug.temp.o
 .debug_line_str
                0x00000000       0x70 C:\QMK_MSYS\tmp\ccU82opF.debug.temp.o
 .comment       0x00000000       0x13 C:\QMK_MSYS\tmp\ccU82opF.debug.temp.o
 .debug_info    0x00000000       0x7a C:\QMK_MSYS\tmp\ccoFbhjc.debug.temp.o
 .debug_abbrev  0x00000000       0x26 C:\QMK_MSYS\tmp\ccoFbhjc.debug.temp.o
 .debug_line    0x00000000       0x31 C:\QMK_MSYS\tmp\ccoFbhjc.debug.temp.o
 .debug_str     0x00000000      0x229 C:\QMK_MSYS\tmp\ccoFbhjc.debug.temp.o
 .debug_line_str
                0x00000000       0x6b C:\QMK_MSYS\tmp\ccoFbhjc.debug.temp.o
 .comment       0x00000000       0x13 C:\QMK_MSYS\tmp\ccoFbhjc.debug.temp.o
 .debug_info    0x00000000       0x7a C:\QMK_MSYS\tmp\ccQqembJ.debug.temp.o
 .debug_abbrev  0x00000000       0x26 C:\QMK_MSYS\tmp\ccQqembJ.debug.temp.o
 .debug_line    0x00000000       0x31 C:\QMK_MSYS\tmp\ccQqembJ.debug.temp.o
 .debug_str     0x00000000      0x229 C:\QMK_MSYS\tmp\ccQqembJ.debug.temp.o
 .debug_line_str
                0x00000000       0x6b C:\QMK_MSYS\tmp\ccQqembJ.debug.temp.o
 .comment       0x00000000       0x13 C:\QMK_MSYS\tmp\ccQqembJ.debug.temp.o
 .debug_info    0x00000000       0x7a C:\QMK_MSYS\tmp\cciMFUgg.debug.temp.o
 .debug_abbrev  0x00000000       0x26 C:\QMK_MSYS\tmp\cciMFUgg.debug.temp.o
 .debug_line    0x00000000       0x31 C:\QMK_MSYS\tmp\cciMFUgg.debug.temp.o
 .debug_str     0x00000000      0x22c C:\QMK_MSYS\tmp\cciMFUgg.debug.temp.o
 .debug_line_str
                0x00000000       0x6e C:\QMK_MSYS\tmp\cciMFUgg.debug.temp.o
 .comment       0x00000000       0x13 C:\QMK_MSYS\tmp\cciMFUgg.debug.temp.o
 .debug_info    0x00000000       0x7a C:\QMK_MSYS\tmp\ccgkDAhN.debug.temp.o
 .debug_abbrev  0x00000000       0x26 C:\QMK_MSYS\tmp\ccgkDAhN.debug.temp.o
 .debug_line    0x00000000       0x31 C:\QMK_MSYS\tmp\ccgkDAhN.debug.temp.o
 .debug_str     0x00000000      0x22a C:\QMK_MSYS\tmp\ccgkDAhN.debug.temp.o
 .debug_line_str
                0x00000000       0x6c C:\QMK_MSYS\tmp\ccgkDAhN.debug.temp.o
 .comment       0x00000000       0x13 C:\QMK_MSYS\tmp\ccgkDAhN.debug.temp.o
 .comment       0x00000000       0x13 C:\QMK_MSYS\tmp\cc6xi9gk.debug.temp.o
 .debug_info    0x00000000       0x7a C:\QMK_MSYS\tmp\ccCpVhqR.debug.temp.o
 .debug_abbrev  0x00000000       0x26 C:\QMK_MSYS\tmp\ccCpVhqR.debug.temp.o
 .debug_line    0x00000000       0x31 C:\QMK_MSYS\tmp\ccCpVhqR.debug.temp.o
 .debug_str     0x00000000      0x229 C:\QMK_MSYS\tmp\ccCpVhqR.debug.temp.o
 .debug_line_str
                0x00000000       0x6b C:\QMK_MSYS\tmp\ccCpVhqR.debug.temp.o
 .comment       0x00000000       0x13 C:\QMK_MSYS\tmp\ccCpVhqR.debug.temp.o
 .debug_info    0x00000000       0x7a C:\QMK_MSYS\tmp\ccCu9lzo.debug.temp.o
 .debug_abbrev  0x00000000       0x26 C:\QMK_MSYS\tmp\ccCu9lzo.debug.temp.o
 .debug_line    0x00000000       0x31 C:\QMK_MSYS\tmp\ccCu9lzo.debug.temp.o
 .debug_str     0x00000000      0x229 C:\QMK_MSYS\tmp\ccCu9lzo.debug.temp.o
 .debug_line_str
                0x00000000       0x6b C:\QMK_MSYS\tmp\ccCu9lzo.debug.temp.o
 .comment       0x00000000       0x13 C:\QMK_MSYS\tmp\ccCu9lzo.debug.temp.o
 .debug_info    0x00000000       0x7a C:\QMK_MSYS\tmp\ccwohVUV.debug.temp.o
 .debug_abbrev  0x00000000       0x26 C:\QMK_MSYS\tmp\ccwohVUV.debug.temp.o
 .debug_line    0x00000000       0x31 C:\QMK_MSYS\tmp\ccwohVUV.debug.temp.o
 .debug_str     0x00000000      0x229 C:\QMK_MSYS\tmp\ccwohVUV.debug.temp.o
 .debug_line_str
                0x00000000       0x6b C:\QMK_MSYS\tmp\ccwohVUV.debug.temp.o
 .comment       0x00000000       0x13 C:\QMK_MSYS\tmp\ccwohVUV.debug.temp.o
 .debug_info    0x00000000       0x7a C:\QMK_MSYS\tmp\cc69Vcft.debug.temp.o
 .debug_abbrev  0x00000000       0x26 C:\QMK_MSYS\tmp\cc69Vcft.debug.temp.o
 .debug_line    0x00000000       0x31 C:\QMK_MSYS\tmp\cc69Vcft.debug.temp.o
 .debug_str     0x00000000      0x22e C:\QMK_MSYS\tmp\cc69Vcft.debug.temp.o
 .debug_line_str
                0x00000000       0x70 C:\QMK_MSYS\tmp\cc69Vcft.debug.temp.o
 .comment       0x00000000       0x13 C:\QMK_MSYS\tmp\cc69Vcft.debug.temp.o
 .debug_info    0x00000000       0x7a C:\QMK_MSYS\tmp\ccc8i2g4.debug.temp.o
 .debug_abbrev  0x00000000       0x26 C:\QMK_MSYS\tmp\ccc8i2g4.debug.temp.o
 .debug_line    0x00000000       0x31 C:\QMK_MSYS\tmp\ccc8i2g4.debug.temp.o
 .debug_str     0x00000000      0x22c C:\QMK_MSYS\tmp\ccc8i2g4.debug.temp.o
 .debug_line_str
                0x00000000       0x6e C:\QMK_MSYS\tmp\ccc8i2g4.debug.temp.o
 .comment       0x00000000       0x13 C:\QMK_MSYS\tmp\ccc8i2g4.debug.temp.o
 .debug_info    0x00000000       0x7a C:\QMK_MSYS\tmp\ccE57uiF.debug.temp.o
 .debug_abbrev  0x00000000       0x26 C:\QMK_MSYS\tmp\ccE57uiF.debug.temp.o
 .debug_line    0x00000000       0x31 C:\QMK_MSYS\tmp\ccE57uiF.debug.temp.o
 .debug_str     0x00000000      0x22a C:\QMK_MSYS\tmp\ccE57uiF.debug.temp.o
 .debug_line_str
                0x00000000       0x6c C:\QMK_MSYS\tmp\ccE57uiF.debug.temp.o
 .comment       0x00000000       0x13 C:\QMK_MSYS\tmp\ccE57uiF.debug.temp.o
 .comment       0x00000000       0x13 C:\QMK_MSYS\tmp\ccurH6dg.debug.temp.o
 .debug_info    0x00000000      0x523 C:\QMK_MSYS\tmp\cciM41qR.debug.temp.o
 .debug_abbrev  0x00000000      0x1c9 C:\QMK_MSYS\tmp\cciM41qR.debug.temp.o
 .debug_line    0x00000000       0x76 C:\QMK_MSYS\tmp\cciM41qR.debug.temp.o
 .debug_str     0x00000000      0x3c3 C:\QMK_MSYS\tmp\cciM41qR.debug.temp.o
 .debug_line_str
                0x00000000      0x1b3 C:\QMK_MSYS\tmp\cciM41qR.debug.temp.o
 .comment       0x00000000       0x13 C:\QMK_MSYS\tmp\cciM41qR.debug.temp.o
 .debug_info    0x00000000      0x4b6 C:\QMK_MSYS\tmp\ccA4oqxs.debug.temp.o
 .debug_abbrev  0x00000000      0x1bd C:\QMK_MSYS\tmp\ccA4oqxs.debug.temp.o
 .debug_line    0x00000000       0x7f C:\QMK_MSYS\tmp\ccA4oqxs.debug.temp.o
 .debug_str     0x00000000      0x376 C:\QMK_MSYS\tmp\ccA4oqxs.debug.temp.o
 .debug_line_str
                0x00000000      0x1e3 C:\QMK_MSYS\tmp\ccA4oqxs.debug.temp.o
 .comment       0x00000000       0x13 C:\QMK_MSYS\tmp\ccA4oqxs.debug.temp.o
 .debug_info    0x00000000      0x34d C:\QMK_MSYS\tmp\ccms8DC3.debug.temp.o
 .debug_abbrev  0x00000000      0x128 C:\QMK_MSYS\tmp\ccms8DC3.debug.temp.o
 .debug_line    0x00000000       0x6c C:\QMK_MSYS\tmp\ccms8DC3.debug.temp.o
 .debug_str     0x00000000      0x2d1 C:\QMK_MSYS\tmp\ccms8DC3.debug.temp.o
 .debug_line_str
                0x00000000      0x1ad C:\QMK_MSYS\tmp\ccms8DC3.debug.temp.o
 .comment       0x00000000       0x13 C:\QMK_MSYS\tmp\ccms8DC3.debug.temp.o
 .debug_info    0x00000000      0x294 C:\QMK_MSYS\tmp\cce1vWUE.debug.temp.o
 .debug_abbrev  0x00000000      0x111 C:\QMK_MSYS\tmp\cce1vWUE.debug.temp.o
 .debug_line    0x00000000       0x63 C:\QMK_MSYS\tmp\cce1vWUE.debug.temp.o
 .debug_str     0x00000000      0x2a6 C:\QMK_MSYS\tmp\cce1vWUE.debug.temp.o
 .debug_line_str
                0x00000000      0x17d C:\QMK_MSYS\tmp\cce1vWUE.debug.temp.o
 .comment       0x00000000       0x13 C:\QMK_MSYS\tmp\cce1vWUE.debug.temp.o
 .debug_info    0x00000000      0x3f7 C:\QMK_MSYS\tmp\ccgLUr8f.debug.temp.o
 .debug_abbrev  0x00000000      0x14b C:\QMK_MSYS\tmp\ccgLUr8f.debug.temp.o
 .debug_line    0x00000000       0x75 C:\QMK_MSYS\tmp\ccgLUr8f.debug.temp.o
 .debug_str     0x00000000      0x332 C:\QMK_MSYS\tmp\ccgLUr8f.debug.temp.o
 .debug_line_str
                0x00000000      0x1d6 C:\QMK_MSYS\tmp\ccgLUr8f.debug.temp.o
 .comment       0x00000000       0x13 C:\QMK_MSYS\tmp\ccgLUr8f.debug.temp.o
 .comment       0x00000000       0x13 C:\QMK_MSYS\tmp\ccad69BR.debug.temp.o
 .comment       0x00000000       0x13 C:\QMK_MSYS\tmp\ccAjuQ4s.debug.temp.o
 .debug_info    0x00000000       0x7a C:\QMK_MSYS\tmp\ccqnqOr4.debug.temp.o
 .debug_abbrev  0x00000000       0x26 C:\QMK_MSYS\tmp\ccqnqOr4.debug.temp.o
 .debug_line    0x00000000       0x31 C:\QMK_MSYS\tmp\ccqnqOr4.debug.temp.o
 .debug_str     0x00000000      0x20b C:\QMK_MSYS\tmp\ccqnqOr4.debug.temp.o
 .debug_line_str
                0x00000000       0x4d C:\QMK_MSYS\tmp\ccqnqOr4.debug.temp.o
 .comment       0x00000000       0x13 C:\QMK_MSYS\tmp\ccqnqOr4.debug.temp.o
 .debug_info    0x00000000       0x73 C:\QMK_MSYS\tmp\ccQLn2UE.debug.temp.o
 .debug_abbrev  0x00000000       0x26 C:\QMK_MSYS\tmp\ccQLn2UE.debug.temp.o
 .debug_line    0x00000000       0x31 C:\QMK_MSYS\tmp\ccQLn2UE.debug.temp.o
 .debug_str     0x00000000      0x215 C:\QMK_MSYS\tmp\ccQLn2UE.debug.temp.o
 .debug_line_str
                0x00000000       0x5d C:\QMK_MSYS\tmp\ccQLn2UE.debug.temp.o
 .comment       0x00000000       0x13 C:\QMK_MSYS\tmp\ccQLn2UE.debug.temp.o
 .debug_info    0x00000000       0x73 C:\QMK_MSYS\tmp\cc8rsQjf.debug.temp.o
 .debug_abbrev  0x00000000       0x26 C:\QMK_MSYS\tmp\cc8rsQjf.debug.temp.o
 .debug_line    0x00000000       0x31 C:\QMK_MSYS\tmp\cc8rsQjf.debug.temp.o
 .debug_str     0x00000000      0x213 C:\QMK_MSYS\tmp\cc8rsQjf.debug.temp.o
 .debug_line_str
                0x00000000       0x5b C:\QMK_MSYS\tmp\cc8rsQjf.debug.temp.o
 .comment       0x00000000       0x13 C:\QMK_MSYS\tmp\cc8rsQjf.debug.temp.o
 .text          0x00000000        0x0 .build/obj_vessel_base/i2c_master.a(i2c_master.o)
 .data          0x00000000        0x0 .build/obj_vessel_base/i2c_master.a(i2c_master.o)
 .bss           0x00000000        0x0 .build/obj_vessel_base/i2c_master.a(i2c_master.o)
 .text.i2c_receive
                0x00000000       0x58 .build/obj_vessel_base/i2c_master.a(i2c_master.o)
 .text.i2c_write_register16
                0x00000000       0x98 .build/obj_vessel_base/i2c_master.a(i2c_master.o)
 .text.i2c_read_register
                0x00000000       0x68 .build/obj_vessel_base/i2c_master.a(i2c_master.o)
 .text.i2c_read_register16
                0x00000000       0x68 .build/obj_vessel_base/i2c_master.a(i2c_master.o)
 .text.i2c_ping_address
                0x00000000       0x1c .build/obj_vessel_base/i2c_master.a(i2c_master.o)
 .data          0x00000000        0x0 .build/obj_vessel_base/./lib/chibios/os/common/startup/ARMCMx/compilers/GCC/crt0_v7m.o
 .bss           0x00000000        0x0 .build/obj_vessel_base/./lib/chibios/os/common/startup/ARMCMx/compilers/GCC/crt0_v7m.o
 .data          0x00000000        0x0 .build/obj_vessel_base/./lib/chibios/os/common/startup/ARMCMx/compilers/GCC/vectors.o
 .bss           0x00000000        0x0 .build/obj_vessel_base/./lib/chibios/os/common/startup/ARMCMx/compilers/GCC/vectors.o
 .data          0x00000000        0x0 .build/obj_vessel_base/./lib/chibios/os/common/ports/ARMv7-M/compilers/GCC/chcoreasm.o
 .bss           0x00000000        0x0 .build/obj_vessel_base/./lib/chibios/os/common/ports/ARMv7-M/compilers/GCC/chcoreasm.o
 .text          0x00000000       0xa0 C:/QMK_MSYS/mingw64/bin/../lib/gcc/arm-none-eabi/13.3.0/thumb/v7e-m+fp/hard\libgcc.a(_aeabi_ldivmod.o)
 .data          0x00000000        0x0 C:/QMK_MSYS/mingw64/bin/../lib/gcc/arm-none-eabi/13.3.0/thumb/v7e-m+fp/hard\libgcc.a(_aeabi_ldivmod.o)
 .bss           0x00000000        0x0 C:/QMK_MSYS/mingw64/bin/../lib/gcc/arm-none-eabi/13.3.0/thumb/v7e-m+fp/hard\libgcc.a(_aeabi_ldivmod.o)
 .debug_line    0x00000000       0x6c C:/QMK_MSYS/mingw64/bin/../lib/gcc/arm-none-eabi/13.3.0/thumb/v7e-m+fp/hard\libgcc.a(_aeabi_ldivmod.o)
 .debug_line_str
                0x00000000       0x72 C:/QMK_MSYS/mingw64/bin/../lib/gcc/arm-none-eabi/13.3.0/thumb/v7e-m+fp/hard\libgcc.a(_aeabi_ldivmod.o)
 .debug_info    0x00000000       0x25 C:/QMK_MSYS/mingw64/bin/../lib/gcc/arm-none-eabi/13.3.0/thumb/v7e-m+fp/hard\libgcc.a(_aeabi_ldivmod.o)
 .debug_abbrev  0x00000000       0x14 C:/QMK_MSYS/mingw64/bin/../lib/gcc/arm-none-eabi/13.3.0/thumb/v7e-m+fp/hard\libgcc.a(_aeabi_ldivmod.o)
 .debug_aranges
                0x00000000       0x20 C:/QMK_MSYS/mingw64/bin/../lib/gcc/arm-none-eabi/13.3.0/thumb/v7e-m+fp/hard\libgcc.a(_aeabi_ldivmod.o)
 .debug_str     0x00000000       0x7e C:/QMK_MSYS/mingw64/bin/../lib/gcc/arm-none-eabi/13.3.0/thumb/v7e-m+fp/hard\libgcc.a(_aeabi_ldivmod.o)
 .debug_frame   0x00000000       0x44 C:/QMK_MSYS/mingw64/bin/../lib/gcc/arm-none-eabi/13.3.0/thumb/v7e-m+fp/hard\libgcc.a(_aeabi_ldivmod.o)
 .ARM.attributes
                0x00000000       0x22 C:/QMK_MSYS/mingw64/bin/../lib/gcc/arm-none-eabi/13.3.0/thumb/v7e-m+fp/hard\libgcc.a(_aeabi_ldivmod.o)
 .data          0x00000000        0x0 C:/QMK_MSYS/mingw64/bin/../lib/gcc/arm-none-eabi/13.3.0/thumb/v7e-m+fp/hard\libgcc.a(_aeabi_uldivmod.o)
 .bss           0x00000000        0x0 C:/QMK_MSYS/mingw64/bin/../lib/gcc/arm-none-eabi/13.3.0/thumb/v7e-m+fp/hard\libgcc.a(_aeabi_uldivmod.o)
 .text          0x00000000        0x0 C:/QMK_MSYS/mingw64/bin/../lib/gcc/arm-none-eabi/13.3.0/thumb/v7e-m+fp/hard\libgcc.a(_udivmoddi4.o)
 .data          0x00000000        0x0 C:/QMK_MSYS/mingw64/bin/../lib/gcc/arm-none-eabi/13.3.0/thumb/v7e-m+fp/hard\libgcc.a(_udivmoddi4.o)
 .bss           0x00000000        0x0 C:/QMK_MSYS/mingw64/bin/../lib/gcc/arm-none-eabi/13.3.0/thumb/v7e-m+fp/hard\libgcc.a(_udivmoddi4.o)
 .ARM.extab.text.__udivmoddi4
                0x00000000        0x0 C:/QMK_MSYS/mingw64/bin/../lib/gcc/arm-none-eabi/13.3.0/thumb/v7e-m+fp/hard\libgcc.a(_udivmoddi4.o)
 .data          0x00000000        0x0 C:/QMK_MSYS/mingw64/bin/../lib/gcc/arm-none-eabi/13.3.0/thumb/v7e-m+fp/hard\libgcc.a(_dvmd_tls.o)
 .bss           0x00000000        0x0 C:/QMK_MSYS/mingw64/bin/../lib/gcc/arm-none-eabi/13.3.0/thumb/v7e-m+fp/hard\libgcc.a(_dvmd_tls.o)
 .data          0x00000000        0x0 C:/QMK_MSYS/mingw64/bin/../lib/gcc/arm-none-eabi/13.3.0/../../../../arm-none-eabi/lib/thumb/v7e-m+fp/hard\libg_nano.a(libc_a-rand.o)
 .bss           0x00000000        0x0 C:/QMK_MSYS/mingw64/bin/../lib/gcc/arm-none-eabi/13.3.0/../../../../arm-none-eabi/lib/thumb/v7e-m+fp/hard\libg_nano.a(libc_a-rand.o)
 .text          0x00000000        0x0 C:/QMK_MSYS/mingw64/bin/../lib/gcc/arm-none-eabi/13.3.0/../../../../arm-none-eabi/lib/thumb/v7e-m+fp/hard\libg_nano.a(libc_a-ctype_.o)
 .data          0x00000000        0x0 C:/QMK_MSYS/mingw64/bin/../lib/gcc/arm-none-eabi/13.3.0/../../../../arm-none-eabi/lib/thumb/v7e-m+fp/hard\libg_nano.a(libc_a-ctype_.o)
 .bss           0x00000000        0x0 C:/QMK_MSYS/mingw64/bin/../lib/gcc/arm-none-eabi/13.3.0/../../../../arm-none-eabi/lib/thumb/v7e-m+fp/hard\libg_nano.a(libc_a-ctype_.o)
 .rodata        0x00000000      0x101 C:/QMK_MSYS/mingw64/bin/../lib/gcc/arm-none-eabi/13.3.0/../../../../arm-none-eabi/lib/thumb/v7e-m+fp/hard\libg_nano.a(libc_a-ctype_.o)
 .debug_info    0x00000000       0xb9 C:/QMK_MSYS/mingw64/bin/../lib/gcc/arm-none-eabi/13.3.0/../../../../arm-none-eabi/lib/thumb/v7e-m+fp/hard\libg_nano.a(libc_a-ctype_.o)
 .debug_abbrev  0x00000000       0x62 C:/QMK_MSYS/mingw64/bin/../lib/gcc/arm-none-eabi/13.3.0/../../../../arm-none-eabi/lib/thumb/v7e-m+fp/hard\libg_nano.a(libc_a-ctype_.o)
 .debug_aranges
                0x00000000       0x18 C:/QMK_MSYS/mingw64/bin/../lib/gcc/arm-none-eabi/13.3.0/../../../../arm-none-eabi/lib/thumb/v7e-m+fp/hard\libg_nano.a(libc_a-ctype_.o)
 .debug_line    0x00000000       0x9c C:/QMK_MSYS/mingw64/bin/../lib/gcc/arm-none-eabi/13.3.0/../../../../arm-none-eabi/lib/thumb/v7e-m+fp/hard\libg_nano.a(libc_a-ctype_.o)
 .debug_str     0x00000000      0x180 C:/QMK_MSYS/mingw64/bin/../lib/gcc/arm-none-eabi/13.3.0/../../../../arm-none-eabi/lib/thumb/v7e-m+fp/hard\libg_nano.a(libc_a-ctype_.o)
 .comment       0x00000000       0x13 C:/QMK_MSYS/mingw64/bin/../lib/gcc/arm-none-eabi/13.3.0/../../../../arm-none-eabi/lib/thumb/v7e-m+fp/hard\libg_nano.a(libc_a-ctype_.o)
 .ARM.attributes
                0x00000000       0x34 C:/QMK_MSYS/mingw64/bin/../lib/gcc/arm-none-eabi/13.3.0/../../../../arm-none-eabi/lib/thumb/v7e-m+fp/hard\libg_nano.a(libc_a-ctype_.o)
 .text          0x00000000        0x0 C:/QMK_MSYS/mingw64/bin/../lib/gcc/arm-none-eabi/13.3.0/../../../../arm-none-eabi/lib/thumb/v7e-m+fp/hard\libg_nano.a(libc_a-impure.o)
 .bss           0x00000000        0x0 C:/QMK_MSYS/mingw64/bin/../lib/gcc/arm-none-eabi/13.3.0/../../../../arm-none-eabi/lib/thumb/v7e-m+fp/hard\libg_nano.a(libc_a-impure.o)
 .text          0x00000000        0xc C:/QMK_MSYS/mingw64/bin/../lib/gcc/arm-none-eabi/13.3.0/../../../../arm-none-eabi/lib/thumb/v7e-m+fp/hard\libg_nano.a(libc_a-errno.o)
 .data          0x00000000        0x0 C:/QMK_MSYS/mingw64/bin/../lib/gcc/arm-none-eabi/13.3.0/../../../../arm-none-eabi/lib/thumb/v7e-m+fp/hard\libg_nano.a(libc_a-errno.o)
 .bss           0x00000000        0x0 C:/QMK_MSYS/mingw64/bin/../lib/gcc/arm-none-eabi/13.3.0/../../../../arm-none-eabi/lib/thumb/v7e-m+fp/hard\libg_nano.a(libc_a-errno.o)
 .debug_info    0x00000000      0x6fb C:/QMK_MSYS/mingw64/bin/../lib/gcc/arm-none-eabi/13.3.0/../../../../arm-none-eabi/lib/thumb/v7e-m+fp/hard\libg_nano.a(libc_a-errno.o)
 .debug_abbrev  0x00000000      0x15e C:/QMK_MSYS/mingw64/bin/../lib/gcc/arm-none-eabi/13.3.0/../../../../arm-none-eabi/lib/thumb/v7e-m+fp/hard\libg_nano.a(libc_a-errno.o)
 .debug_aranges
                0x00000000       0x20 C:/QMK_MSYS/mingw64/bin/../lib/gcc/arm-none-eabi/13.3.0/../../../../arm-none-eabi/lib/thumb/v7e-m+fp/hard\libg_nano.a(libc_a-errno.o)
 .debug_line    0x00000000      0x120 C:/QMK_MSYS/mingw64/bin/../lib/gcc/arm-none-eabi/13.3.0/../../../../arm-none-eabi/lib/thumb/v7e-m+fp/hard\libg_nano.a(libc_a-errno.o)
 .debug_str     0x00000000      0x4a1 C:/QMK_MSYS/mingw64/bin/../lib/gcc/arm-none-eabi/13.3.0/../../../../arm-none-eabi/lib/thumb/v7e-m+fp/hard\libg_nano.a(libc_a-errno.o)
 .comment       0x00000000       0x13 C:/QMK_MSYS/mingw64/bin/../lib/gcc/arm-none-eabi/13.3.0/../../../../arm-none-eabi/lib/thumb/v7e-m+fp/hard\libg_nano.a(libc_a-errno.o)
 .debug_frame   0x00000000       0x20 C:/QMK_MSYS/mingw64/bin/../lib/gcc/arm-none-eabi/13.3.0/../../../../arm-none-eabi/lib/thumb/v7e-m+fp/hard\libg_nano.a(libc_a-errno.o)
 .ARM.attributes
                0x00000000       0x34 C:/QMK_MSYS/mingw64/bin/../lib/gcc/arm-none-eabi/13.3.0/../../../../arm-none-eabi/lib/thumb/v7e-m+fp/hard\libg_nano.a(libc_a-errno.o)
 .data          0x00000000        0x0 C:/QMK_MSYS/mingw64/bin/../lib/gcc/arm-none-eabi/13.3.0/../../../../arm-none-eabi/lib/thumb/v7e-m+fp/hard\libg_nano.a(libc_a-assert.o)
 .bss           0x00000000        0x0 C:/QMK_MSYS/mingw64/bin/../lib/gcc/arm-none-eabi/13.3.0/../../../../arm-none-eabi/lib/thumb/v7e-m+fp/hard\libg_nano.a(libc_a-assert.o)
 .data          0x00000000        0x0 C:/QMK_MSYS/mingw64/bin/../lib/gcc/arm-none-eabi/13.3.0/../../../../arm-none-eabi/lib/thumb/v7e-m+fp/hard\libg_nano.a(libc_a-malloc.o)
 .bss           0x00000000        0x0 C:/QMK_MSYS/mingw64/bin/../lib/gcc/arm-none-eabi/13.3.0/../../../../arm-none-eabi/lib/thumb/v7e-m+fp/hard\libg_nano.a(libc_a-malloc.o)
 .data          0x00000000        0x0 C:/QMK_MSYS/mingw64/bin/../lib/gcc/arm-none-eabi/13.3.0/../../../../arm-none-eabi/lib/thumb/v7e-m+fp/hard\libg_nano.a(libc_a-mallocr.o)
 .data          0x00000000        0x0 C:/QMK_MSYS/mingw64/bin/../lib/gcc/arm-none-eabi/13.3.0/../../../../arm-none-eabi/lib/thumb/v7e-m+fp/hard\libg_nano.a(libc_a-mlock.o)
 .bss           0x00000000        0x0 C:/QMK_MSYS/mingw64/bin/../lib/gcc/arm-none-eabi/13.3.0/../../../../arm-none-eabi/lib/thumb/v7e-m+fp/hard\libg_nano.a(libc_a-mlock.o)
 .data          0x00000000        0x0 C:/QMK_MSYS/mingw64/bin/../lib/gcc/arm-none-eabi/13.3.0/../../../../arm-none-eabi/lib/thumb/v7e-m+fp/hard\libg_nano.a(libc_a-fprintf.o)
 .bss           0x00000000        0x0 C:/QMK_MSYS/mingw64/bin/../lib/gcc/arm-none-eabi/13.3.0/../../../../arm-none-eabi/lib/thumb/v7e-m+fp/hard\libg_nano.a(libc_a-fprintf.o)
 .data          0x00000000        0x0 C:/QMK_MSYS/mingw64/bin/../lib/gcc/arm-none-eabi/13.3.0/../../../../arm-none-eabi/lib/thumb/v7e-m+fp/hard\libg_nano.a(libc_a-lock.o)
 .data          0x00000000        0x0 C:/QMK_MSYS/mingw64/bin/../lib/gcc/arm-none-eabi/13.3.0/../../../../arm-none-eabi/lib/thumb/v7e-m+fp/hard\libg_nano.a(libc_a-abort.o)
 .bss           0x00000000        0x0 C:/QMK_MSYS/mingw64/bin/../lib/gcc/arm-none-eabi/13.3.0/../../../../arm-none-eabi/lib/thumb/v7e-m+fp/hard\libg_nano.a(libc_a-abort.o)
 .data          0x00000000        0x0 C:/QMK_MSYS/mingw64/bin/../lib/gcc/arm-none-eabi/13.3.0/../../../../arm-none-eabi/lib/thumb/v7e-m+fp/hard\libg_nano.a(libc_a-freer.o)
 .bss           0x00000000        0x0 C:/QMK_MSYS/mingw64/bin/../lib/gcc/arm-none-eabi/13.3.0/../../../../arm-none-eabi/lib/thumb/v7e-m+fp/hard\libg_nano.a(libc_a-freer.o)
 .data          0x00000000        0x0 C:/QMK_MSYS/mingw64/bin/../lib/gcc/arm-none-eabi/13.3.0/../../../../arm-none-eabi/lib/thumb/v7e-m+fp/hard\libg_nano.a(libc_a-nano-vfprintf.o)
 .bss           0x00000000        0x0 C:/QMK_MSYS/mingw64/bin/../lib/gcc/arm-none-eabi/13.3.0/../../../../arm-none-eabi/lib/thumb/v7e-m+fp/hard\libg_nano.a(libc_a-nano-vfprintf.o)
 .data          0x00000000        0x0 C:/QMK_MSYS/mingw64/bin/../lib/gcc/arm-none-eabi/13.3.0/../../../../arm-none-eabi/lib/thumb/v7e-m+fp/hard\libg_nano.a(libc_a-nano-vfprintf_i.o)
 .bss           0x00000000        0x0 C:/QMK_MSYS/mingw64/bin/../lib/gcc/arm-none-eabi/13.3.0/../../../../arm-none-eabi/lib/thumb/v7e-m+fp/hard\libg_nano.a(libc_a-nano-vfprintf_i.o)
 .data          0x00000000        0x0 C:/QMK_MSYS/mingw64/bin/../lib/gcc/arm-none-eabi/13.3.0/../../../../arm-none-eabi/lib/thumb/v7e-m+fp/hard\libg_nano.a(libc_a-fvwrite.o)
 .bss           0x00000000        0x0 C:/QMK_MSYS/mingw64/bin/../lib/gcc/arm-none-eabi/13.3.0/../../../../arm-none-eabi/lib/thumb/v7e-m+fp/hard\libg_nano.a(libc_a-fvwrite.o)
 .data          0x00000000        0x0 C:/QMK_MSYS/mingw64/bin/../lib/gcc/arm-none-eabi/13.3.0/../../../../arm-none-eabi/lib/thumb/v7e-m+fp/hard\libg_nano.a(libc_a-fwalk.o)
 .bss           0x00000000        0x0 C:/QMK_MSYS/mingw64/bin/../lib/gcc/arm-none-eabi/13.3.0/../../../../arm-none-eabi/lib/thumb/v7e-m+fp/hard\libg_nano.a(libc_a-fwalk.o)
 .data          0x00000000        0x0 C:/QMK_MSYS/mingw64/bin/../lib/gcc/arm-none-eabi/13.3.0/../../../../arm-none-eabi/lib/thumb/v7e-m+fp/hard\libg_nano.a(libc_a-stdio.o)
 .bss           0x00000000        0x0 C:/QMK_MSYS/mingw64/bin/../lib/gcc/arm-none-eabi/13.3.0/../../../../arm-none-eabi/lib/thumb/v7e-m+fp/hard\libg_nano.a(libc_a-stdio.o)
 .data          0x00000000        0x0 C:/QMK_MSYS/mingw64/bin/../lib/gcc/arm-none-eabi/13.3.0/../../../../arm-none-eabi/lib/thumb/v7e-m+fp/hard\libg_nano.a(libc_a-wbuf.o)
 .bss           0x00000000        0x0 C:/QMK_MSYS/mingw64/bin/../lib/gcc/arm-none-eabi/13.3.0/../../../../arm-none-eabi/lib/thumb/v7e-m+fp/hard\libg_nano.a(libc_a-wbuf.o)
 .data          0x00000000        0x0 C:/QMK_MSYS/mingw64/bin/../lib/gcc/arm-none-eabi/13.3.0/../../../../arm-none-eabi/lib/thumb/v7e-m+fp/hard\libg_nano.a(libc_a-wsetup.o)
 .bss           0x00000000        0x0 C:/QMK_MSYS/mingw64/bin/../lib/gcc/arm-none-eabi/13.3.0/../../../../arm-none-eabi/lib/thumb/v7e-m+fp/hard\libg_nano.a(libc_a-wsetup.o)
 .data          0x00000000        0x0 C:/QMK_MSYS/mingw64/bin/../lib/gcc/arm-none-eabi/13.3.0/../../../../arm-none-eabi/lib/thumb/v7e-m+fp/hard\libg_nano.a(libc_a-memmove.o)
 .bss           0x00000000        0x0 C:/QMK_MSYS/mingw64/bin/../lib/gcc/arm-none-eabi/13.3.0/../../../../arm-none-eabi/lib/thumb/v7e-m+fp/hard\libg_nano.a(libc_a-memmove.o)
 .data          0x00000000        0x0 C:/QMK_MSYS/mingw64/bin/../lib/gcc/arm-none-eabi/13.3.0/../../../../arm-none-eabi/lib/thumb/v7e-m+fp/hard\libg_nano.a(libc_a-memset.o)
 .bss           0x00000000        0x0 C:/QMK_MSYS/mingw64/bin/../lib/gcc/arm-none-eabi/13.3.0/../../../../arm-none-eabi/lib/thumb/v7e-m+fp/hard\libg_nano.a(libc_a-memset.o)
 .data          0x00000000        0x0 C:/QMK_MSYS/mingw64/bin/../lib/gcc/arm-none-eabi/13.3.0/../../../../arm-none-eabi/lib/thumb/v7e-m+fp/hard\libg_nano.a(libc_a-signal.o)
 .bss           0x00000000        0x0 C:/QMK_MSYS/mingw64/bin/../lib/gcc/arm-none-eabi/13.3.0/../../../../arm-none-eabi/lib/thumb/v7e-m+fp/hard\libg_nano.a(libc_a-signal.o)
 .data          0x00000000        0x0 C:/QMK_MSYS/mingw64/bin/../lib/gcc/arm-none-eabi/13.3.0/../../../../arm-none-eabi/lib/thumb/v7e-m+fp/hard\libg_nano.a(libc_a-signalr.o)
 .bss           0x00000000        0x0 C:/QMK_MSYS/mingw64/bin/../lib/gcc/arm-none-eabi/13.3.0/../../../../arm-none-eabi/lib/thumb/v7e-m+fp/hard\libg_nano.a(libc_a-signalr.o)
 .data          0x00000000        0x0 C:/QMK_MSYS/mingw64/bin/../lib/gcc/arm-none-eabi/13.3.0/../../../../arm-none-eabi/lib/thumb/v7e-m+fp/hard\libg_nano.a(libc_a-memchr.o)
 .bss           0x00000000        0x0 C:/QMK_MSYS/mingw64/bin/../lib/gcc/arm-none-eabi/13.3.0/../../../../arm-none-eabi/lib/thumb/v7e-m+fp/hard\libg_nano.a(libc_a-memchr.o)
 .ARM.extab     0x00000000        0x0 C:/QMK_MSYS/mingw64/bin/../lib/gcc/arm-none-eabi/13.3.0/../../../../arm-none-eabi/lib/thumb/v7e-m+fp/hard\libg_nano.a(libc_a-memchr.o)
 .eh_frame      0x00000000       0x50 C:/QMK_MSYS/mingw64/bin/../lib/gcc/arm-none-eabi/13.3.0/../../../../arm-none-eabi/lib/thumb/v7e-m+fp/hard\libg_nano.a(libc_a-memchr.o)
 .data          0x00000000        0x0 C:/QMK_MSYS/mingw64/bin/../lib/gcc/arm-none-eabi/13.3.0/../../../../arm-none-eabi/lib/thumb/v7e-m+fp/hard\libg_nano.a(libc_a-memcpy.o)
 .bss           0x00000000        0x0 C:/QMK_MSYS/mingw64/bin/../lib/gcc/arm-none-eabi/13.3.0/../../../../arm-none-eabi/lib/thumb/v7e-m+fp/hard\libg_nano.a(libc_a-memcpy.o)
 .ARM.extab     0x00000000        0x0 C:/QMK_MSYS/mingw64/bin/../lib/gcc/arm-none-eabi/13.3.0/../../../../arm-none-eabi/lib/thumb/v7e-m+fp/hard\libg_nano.a(libc_a-memcpy.o)
 .eh_frame      0x00000000       0x2c C:/QMK_MSYS/mingw64/bin/../lib/gcc/arm-none-eabi/13.3.0/../../../../arm-none-eabi/lib/thumb/v7e-m+fp/hard\libg_nano.a(libc_a-memcpy.o)
 .data          0x00000000        0x0 C:/QMK_MSYS/mingw64/bin/../lib/gcc/arm-none-eabi/13.3.0/../../../../arm-none-eabi/lib/thumb/v7e-m+fp/hard\libg_nano.a(libc_a-reallocr.o)
 .bss           0x00000000        0x0 C:/QMK_MSYS/mingw64/bin/../lib/gcc/arm-none-eabi/13.3.0/../../../../arm-none-eabi/lib/thumb/v7e-m+fp/hard\libg_nano.a(libc_a-reallocr.o)
 .data          0x00000000        0x0 C:/QMK_MSYS/mingw64/bin/../lib/gcc/arm-none-eabi/13.3.0/../../../../arm-none-eabi/lib/thumb/v7e-m+fp/hard\libg_nano.a(libc_a-fflush.o)
 .bss           0x00000000        0x0 C:/QMK_MSYS/mingw64/bin/../lib/gcc/arm-none-eabi/13.3.0/../../../../arm-none-eabi/lib/thumb/v7e-m+fp/hard\libg_nano.a(libc_a-fflush.o)
 .data          0x00000000        0x0 C:/QMK_MSYS/mingw64/bin/../lib/gcc/arm-none-eabi/13.3.0/../../../../arm-none-eabi/lib/thumb/v7e-m+fp/hard\libg_nano.a(libc_a-makebuf.o)
 .bss           0x00000000        0x0 C:/QMK_MSYS/mingw64/bin/../lib/gcc/arm-none-eabi/13.3.0/../../../../arm-none-eabi/lib/thumb/v7e-m+fp/hard\libg_nano.a(libc_a-makebuf.o)
 .text          0x00000000       0xd4 C:/QMK_MSYS/mingw64/bin/../lib/gcc/arm-none-eabi/13.3.0/../../../../arm-none-eabi/lib/thumb/v7e-m+fp/hard\libg_nano.a(libc_a-reent.o)
 .data          0x00000000        0x0 C:/QMK_MSYS/mingw64/bin/../lib/gcc/arm-none-eabi/13.3.0/../../../../arm-none-eabi/lib/thumb/v7e-m+fp/hard\libg_nano.a(libc_a-reent.o)
 .data          0x00000000        0x0 C:/QMK_MSYS/mingw64/bin/../lib/gcc/arm-none-eabi/13.3.0/../../../../arm-none-eabi/lib/thumb/v7e-m+fp/hard\libg_nano.a(libc_a-msizer.o)
 .bss           0x00000000        0x0 C:/QMK_MSYS/mingw64/bin/../lib/gcc/arm-none-eabi/13.3.0/../../../../arm-none-eabi/lib/thumb/v7e-m+fp/hard\libg_nano.a(libc_a-msizer.o)
 .data          0x00000000        0x0 C:/QMK_MSYS/mingw64/bin/../lib/gcc/arm-none-eabi/13.3.0/../../../../arm-none-eabi/lib/thumb/v7e-m+fp/hard\libg_nano.a(libc_a-memcmp.o)
 .bss           0x00000000        0x0 C:/QMK_MSYS/mingw64/bin/../lib/gcc/arm-none-eabi/13.3.0/../../../../arm-none-eabi/lib/thumb/v7e-m+fp/hard\libg_nano.a(libc_a-memcmp.o)

Memory Configuration

Name             Origin             Length             Attributes
flash0           0x08000000         0x00080000         xr
flash1           0x00000000         0x00000000         xr
flash2           0x00000000         0x00000000         xr
flash3           0x00000000         0x00000000         xr
flash4           0x00000000         0x00000000         xr
flash5           0x00000000         0x00000000         xr
flash6           0x00000000         0x00000000         xr
flash7           0x00000000         0x00000000         xr
ram0             0x20000000         0x00020000         xw
ram1             0x20000000         0x0001c000         xw
ram2             0x00000000         0x00004000         xw
ram3             0x00000000         0x00000000         xw
ram4             0x00000000         0x00000000         xw
ram5             0x00000000         0x00000000         xw
ram6             0x00000000         0x00000000         xw
ram7             0x00000000         0x00000000         xw
*default*        0x00000000         0xffffffff

Linker script and memory map

LOAD .build/obj_vessel_base/keyboards/vessel/vessel.o
LOAD C:\QMK_MSYS\tmp\ccs2W3Vd.ltrans0.ltrans.o
LOAD C:\QMK_MSYS\tmp\ccYy8zNJ.debug.temp.o
LOAD C:\QMK_MSYS\tmp\ccsjiLQb.debug.temp.o
LOAD C:\QMK_MSYS\tmp\cc8jr1VC.debug.temp.o
LOAD C:\QMK_MSYS\tmp\ccO4b5Y3.debug.temp.o
LOAD C:\QMK_MSYS\tmp\ccWNKcdv.debug.temp.o
LOAD C:\QMK_MSYS\tmp\ccU9JcqW.debug.temp.o
LOAD C:\QMK_MSYS\tmp\ccgoXcxn.debug.temp.o
LOAD C:\QMK_MSYS\tmp\ccsxOlSO.debug.temp.o
LOAD C:\QMK_MSYS\tmp\cciViwbg.debug.temp.o
LOAD C:\QMK_MSYS\tmp\cca0yIIH.debug.temp.o
LOAD C:\QMK_MSYS\tmp\cc0pCGa9.debug.temp.o
LOAD C:\QMK_MSYS\tmp\ccwjgFEz.debug.temp.o
LOAD C:\QMK_MSYS\tmp\ccunYi4Z.debug.temp.o
LOAD C:\QMK_MSYS\tmp\cci23xsq.debug.temp.o
LOAD C:\QMK_MSYS\tmp\ccqpLh1Q.debug.temp.o
LOAD C:\QMK_MSYS\tmp\ccaulbyh.debug.temp.o
LOAD C:\QMK_MSYS\tmp\ccEA8olI.debug.temp.o
LOAD C:\QMK_MSYS\tmp\ccWeMX28.debug.temp.o
LOAD C:\QMK_MSYS\tmp\cco2DIJz.debug.temp.o
LOAD C:\QMK_MSYS\tmp\ccmAD3C0.debug.temp.o
LOAD C:\QMK_MSYS\tmp\cc47Kovr.debug.temp.o
LOAD C:\QMK_MSYS\tmp\ccsbw1pR.debug.temp.o
LOAD C:\QMK_MSYS\tmp\cc6u1jfh.debug.temp.o
LOAD C:\QMK_MSYS\tmp\ccWqp82G.debug.temp.o
LOAD C:\QMK_MSYS\tmp\cc2KLL36.debug.temp.o
LOAD C:\QMK_MSYS\tmp\ccCAUx2w.debug.temp.o
LOAD C:\QMK_MSYS\tmp\ccavKcfX.debug.temp.o
LOAD C:\QMK_MSYS\tmp\ccGKnDmn.debug.temp.o
LOAD C:\QMK_MSYS\tmp\cce79oHN.debug.temp.o
LOAD C:\QMK_MSYS\tmp\cckRVoYd.debug.temp.o
LOAD C:\QMK_MSYS\tmp\ccqbgfYH.debug.temp.o
LOAD C:\QMK_MSYS\tmp\cciESETb.debug.temp.o
LOAD C:\QMK_MSYS\tmp\ccGvlT2F.debug.temp.o
LOAD C:\QMK_MSYS\tmp\cc4I5Saa.debug.temp.o
LOAD C:\QMK_MSYS\tmp\ccSnR1cE.debug.temp.o
LOAD C:\QMK_MSYS\tmp\ccyWH1w8.debug.temp.o
LOAD C:\QMK_MSYS\tmp\ccoCtGLC.debug.temp.o
LOAD C:\QMK_MSYS\tmp\ccQpxRe7.debug.temp.o
LOAD C:\QMK_MSYS\tmp\ccMU9izB.debug.temp.o
LOAD C:\QMK_MSYS\tmp\ccO4Lu04.debug.temp.o
LOAD C:\QMK_MSYS\tmp\ccMA0Zmy.debug.temp.o
LOAD C:\QMK_MSYS\tmp\ccgPjOV1.debug.temp.o
LOAD C:\QMK_MSYS\tmp\ccwAvutv.debug.temp.o
LOAD C:\QMK_MSYS\tmp\ccW8nlXY.debug.temp.o
LOAD C:\QMK_MSYS\tmp\cccktRCs.debug.temp.o
LOAD C:\QMK_MSYS\tmp\cc6pXUhW.debug.temp.o
LOAD C:\QMK_MSYS\tmp\cc2qiF8p.debug.temp.o
LOAD C:\QMK_MSYS\tmp\ccek32UT.debug.temp.o
LOAD C:\QMK_MSYS\tmp\cc4lWdLm.debug.temp.o
LOAD C:\QMK_MSYS\tmp\ccK0Z0vP.debug.temp.o
LOAD C:\QMK_MSYS\tmp\ccSNksgi.debug.temp.o
LOAD C:\QMK_MSYS\tmp\ccwnQKdL.debug.temp.o
LOAD C:\QMK_MSYS\tmp\ccOJie5d.debug.temp.o
LOAD C:\QMK_MSYS\tmp\ccG4SEeH.debug.temp.o
LOAD C:\QMK_MSYS\tmp\cckinsha.debug.temp.o
LOAD C:\QMK_MSYS\tmp\ccgRbtjD.debug.temp.o
LOAD C:\QMK_MSYS\tmp\ccGbXBy6.debug.temp.o
LOAD C:\QMK_MSYS\tmp\ccqU3HIz.debug.temp.o
LOAD C:\QMK_MSYS\tmp\cccI8FZ1.debug.temp.o
LOAD C:\QMK_MSYS\tmp\ccuGGubu.debug.temp.o
LOAD C:\QMK_MSYS\tmp\ccwcIvzW.debug.temp.o
LOAD C:\QMK_MSYS\tmp\ccaCUkXo.debug.temp.o
LOAD C:\QMK_MSYS\tmp\ccU2tOfR.debug.temp.o
LOAD C:\QMK_MSYS\tmp\ccOcGXKj.debug.temp.o
LOAD C:\QMK_MSYS\tmp\ccW11CeM.debug.temp.o
LOAD C:\QMK_MSYS\tmp\ccWgJ1Ve.debug.temp.o
LOAD C:\QMK_MSYS\tmp\cc8hi3yH.debug.temp.o
LOAD C:\QMK_MSYS\tmp\ccS8sjUd.debug.temp.o
LOAD C:\QMK_MSYS\tmp\ccMcYjfK.debug.temp.o
LOAD C:\QMK_MSYS\tmp\ccyqoOug.debug.temp.o
LOAD C:\QMK_MSYS\tmp\cccqrNWM.debug.temp.o
LOAD C:\QMK_MSYS\tmp\cccTphoj.debug.temp.o
LOAD C:\QMK_MSYS\tmp\ccC3P92P.debug.temp.o
LOAD C:\QMK_MSYS\tmp\ccWUVnCm.debug.temp.o
LOAD C:\QMK_MSYS\tmp\cc2MnlaT.debug.temp.o
LOAD C:\QMK_MSYS\tmp\cckT9yUp.debug.temp.o
LOAD C:\QMK_MSYS\tmp\ccSpVPAW.debug.temp.o
LOAD C:\QMK_MSYS\tmp\cc8uREns.debug.temp.o
LOAD C:\QMK_MSYS\tmp\ccASVY1X.debug.temp.o
LOAD C:\QMK_MSYS\tmp\ccmkp5Xt.debug.temp.o
LOAD C:\QMK_MSYS\tmp\ccUajHNZ.debug.temp.o
LOAD C:\QMK_MSYS\tmp\ccGWwOQv.debug.temp.o
LOAD C:\QMK_MSYS\tmp\ccSJE1S1.debug.temp.o
LOAD C:\QMK_MSYS\tmp\ccCSIbRx.debug.temp.o
LOAD C:\QMK_MSYS\tmp\ccOjPTY3.debug.temp.o
LOAD C:\QMK_MSYS\tmp\ccgBye6z.debug.temp.o
LOAD C:\QMK_MSYS\tmp\ccQ2IDf5.debug.temp.o
LOAD C:\QMK_MSYS\tmp\ccUD89jA.debug.temp.o
LOAD C:\QMK_MSYS\tmp\ccgIQMB5.debug.temp.o
LOAD C:\QMK_MSYS\tmp\cckJppSA.debug.temp.o
LOAD C:\QMK_MSYS\tmp\ccgwBwl6.debug.temp.o
LOAD C:\QMK_MSYS\tmp\ccKS4vMB.debug.temp.o
LOAD C:\QMK_MSYS\tmp\cca7GX86.debug.temp.o
LOAD C:\QMK_MSYS\tmp\ccOkJsJC.debug.temp.o
LOAD C:\QMK_MSYS\tmp\ccibcQi8.debug.temp.o
LOAD C:\QMK_MSYS\tmp\cc8w1jUC.debug.temp.o
LOAD C:\QMK_MSYS\tmp\ccS98Pq7.debug.temp.o
LOAD C:\QMK_MSYS\tmp\ccUxYSVB.debug.temp.o
LOAD C:\QMK_MSYS\tmp\ccKhEVE6.debug.temp.o
LOAD C:\QMK_MSYS\tmp\ccAjfVhB.debug.temp.o
LOAD C:\QMK_MSYS\tmp\ccOXdic6.debug.temp.o
LOAD C:\QMK_MSYS\tmp\ccmYul1A.debug.temp.o
LOAD C:\QMK_MSYS\tmp\ccEe4n45.debug.temp.o
LOAD C:\QMK_MSYS\tmp\ccycgk1A.debug.temp.o
LOAD C:\QMK_MSYS\tmp\ccWl0UX5.debug.temp.o
LOAD C:\QMK_MSYS\tmp\ccaMPMCE.debug.temp.o
LOAD C:\QMK_MSYS\tmp\cc0vXvcd.debug.temp.o
LOAD C:\QMK_MSYS\tmp\ccGwgp3L.debug.temp.o
LOAD C:\QMK_MSYS\tmp\ccq3emPk.debug.temp.o
LOAD C:\QMK_MSYS\tmp\cc8oKcAT.debug.temp.o
LOAD C:\QMK_MSYS\tmp\cc0nJTws.debug.temp.o
LOAD C:\QMK_MSYS\tmp\cckjHAr1.debug.temp.o
LOAD C:\QMK_MSYS\tmp\cckELplA.debug.temp.o
LOAD C:\QMK_MSYS\tmp\ccwPPss9.debug.temp.o
LOAD C:\QMK_MSYS\tmp\ccQA4iuI.debug.temp.o
LOAD C:\QMK_MSYS\tmp\ccAvNFyg.debug.temp.o
LOAD C:\QMK_MSYS\tmp\ccUyB3AO.debug.temp.o
LOAD C:\QMK_MSYS\tmp\ccKK5gCm.debug.temp.o
LOAD C:\QMK_MSYS\tmp\ccOPQIQU.debug.temp.o
LOAD C:\QMK_MSYS\tmp\ccSeAoZs.debug.temp.o
LOAD C:\QMK_MSYS\tmp\ccCHaup1.debug.temp.o
LOAD C:\QMK_MSYS\tmp\ccaMHsKz.debug.temp.o
LOAD C:\QMK_MSYS\tmp\cco0Ypj8.debug.temp.o
LOAD C:\QMK_MSYS\tmp\ccENNfOG.debug.temp.o
LOAD C:\QMK_MSYS\tmp\ccE8HPke.debug.temp.o
LOAD C:\QMK_MSYS\tmp\ccERGbML.debug.temp.o
LOAD C:\QMK_MSYS\tmp\cc8F4mcj.debug.temp.o
LOAD C:\QMK_MSYS\tmp\cciuX9OQ.debug.temp.o
LOAD C:\QMK_MSYS\tmp\cc4Drlro.debug.temp.o
LOAD C:\QMK_MSYS\tmp\ccOMtAgW.debug.temp.o
LOAD C:\QMK_MSYS\tmp\ccAQkt0t.debug.temp.o
LOAD C:\QMK_MSYS\tmp\ccQpYuI1.debug.temp.o
LOAD C:\QMK_MSYS\tmp\ccggOBDz.debug.temp.o
LOAD C:\QMK_MSYS\tmp\ccu6aUw7.debug.temp.o
LOAD C:\QMK_MSYS\tmp\ccU82opF.debug.temp.o
LOAD C:\QMK_MSYS\tmp\ccoFbhjc.debug.temp.o
LOAD C:\QMK_MSYS\tmp\ccQqembJ.debug.temp.o
LOAD C:\QMK_MSYS\tmp\cciMFUgg.debug.temp.o
LOAD C:\QMK_MSYS\tmp\ccgkDAhN.debug.temp.o
LOAD C:\QMK_MSYS\tmp\cc6xi9gk.debug.temp.o
LOAD C:\QMK_MSYS\tmp\ccCpVhqR.debug.temp.o
LOAD C:\QMK_MSYS\tmp\ccCu9lzo.debug.temp.o
LOAD C:\QMK_MSYS\tmp\ccwohVUV.debug.temp.o
LOAD C:\QMK_MSYS\tmp\cc69Vcft.debug.temp.o
LOAD C:\QMK_MSYS\tmp\ccc8i2g4.debug.temp.o
LOAD C:\QMK_MSYS\tmp\ccE57uiF.debug.temp.o
LOAD C:\QMK_MSYS\tmp\ccurH6dg.debug.temp.o
LOAD C:\QMK_MSYS\tmp\cciM41qR.debug.temp.o
LOAD C:\QMK_MSYS\tmp\ccA4oqxs.debug.temp.o
LOAD C:\QMK_MSYS\tmp\ccms8DC3.debug.temp.o
LOAD C:\QMK_MSYS\tmp\cce1vWUE.debug.temp.o
LOAD C:\QMK_MSYS\tmp\ccgLUr8f.debug.temp.o
LOAD C:\QMK_MSYS\tmp\ccad69BR.debug.temp.o
LOAD C:\QMK_MSYS\tmp\ccAjuQ4s.debug.temp.o
LOAD C:\QMK_MSYS\tmp\ccqnqOr4.debug.temp.o
LOAD C:\QMK_MSYS\tmp\ccQLn2UE.debug.temp.o
LOAD C:\QMK_MSYS\tmp\cc8rsQjf.debug.temp.o
LOAD .build/obj_vessel_base/.build/obj_vessel_base/src/default_keyboard.o
LOAD .build/obj_vessel_base/quantum/keymap_introspection.o
LOAD .build/obj_vessel_base/quantum/quantum.o
LOAD .build/obj_vessel_base/quantum/bitwise.o
LOAD .build/obj_vessel_base/quantum/led.o
LOAD .build/obj_vessel_base/quantum/action.o
LOAD .build/obj_vessel_base/quantum/action_layer.o
LOAD .build/obj_vessel_base/quantum/action_tapping.o
LOAD .build/obj_vessel_base/quantum/action_util.o
LOAD .build/obj_vessel_base/quantum/eeconfig.o
LOAD .build/obj_vessel_base/quantum/keyboard.o
LOAD .build/obj_vessel_base/quantum/keymap_common.o
LOAD .build/obj_vessel_base/quantum/keycode_config.o
LOAD .build/obj_vessel_base/quantum/sync_timer.o
LOAD .build/obj_vessel_base/quantum/logging/debug.o
LOAD .build/obj_vessel_base/quantum/logging/sendchar.o
LOAD .build/obj_vessel_base/quantum/logging/print.o
LOAD .build/obj_vessel_base/quantum/matrix_common.o
LOAD .build/obj_vessel_base/quantum/matrix.o
LOAD .build/obj_vessel_base/quantum/debounce/sym_eager_pk.o
LOAD .build/obj_vessel_base/quantum/main.o
LOAD .build/obj_vessel_base/printf.o
LOAD .build/obj_vessel_base/eeprom_driver.o
LOAD .build/obj_vessel_base/eeprom_transient.o
LOAD .build/obj_vessel_base/quantum/color.o
LOAD .build/obj_vessel_base/quantum/rgb_matrix/rgb_matrix.o
LOAD .build/obj_vessel_base/quantum/rgb_matrix/rgb_matrix_drivers.o
LOAD .build/obj_vessel_base/quantum/process_keycode/process_rgb.o
LOAD .build/obj_vessel_base/quantum/led_tables.o
LOAD .build/obj_vessel_base/lib/lib8tion/lib8tion.o
LOAD .build/obj_vessel_base/oled_driver.o
LOAD .build/obj_vessel_base/quantum/encoder.o
LOAD .build/obj_vessel_base/encoder_quadrature.o
LOAD .build/obj_vessel_base/ws2812_bitbang.o
LOAD .build/obj_vessel_base/quantum/bootmagic/bootmagic.o
LOAD .build/obj_vessel_base/quantum/process_keycode/process_grave_esc.o
LOAD .build/obj_vessel_base/quantum/process_keycode/process_magic.o
LOAD .build/obj_vessel_base/quantum/process_keycode/process_programmable_button.o
LOAD .build/obj_vessel_base/quantum/programmable_button.o
LOAD .build/obj_vessel_base/quantum/send_string/send_string.o
LOAD .build/obj_vessel_base/quantum/process_keycode/process_space_cadet.o
LOAD .build/obj_vessel_base/quantum/process_keycode/process_tap_dance.o
LOAD .build/obj_vessel_base/protocol/host.o
LOAD .build/obj_vessel_base/protocol/report.o
LOAD .build/obj_vessel_base/protocol/usb_device_state.o
LOAD .build/obj_vessel_base/protocol/usb_util.o
LOAD .build/obj_vessel_base/platforms/suspend.o
LOAD .build/obj_vessel_base/platforms/synchronization_util.o
LOAD .build/obj_vessel_base/platforms/timer.o
LOAD .build/obj_vessel_base/platforms/chibios/hardware_id.o
LOAD .build/obj_vessel_base/platforms/chibios/platform.o
LOAD .build/obj_vessel_base/platforms/chibios/suspend.o
LOAD .build/obj_vessel_base/platforms/chibios/timer.o
LOAD .build/obj_vessel_base/platforms/chibios/bootloaders/stm32_dfu.o
LOAD .build/obj_vessel_base/i2c_master.a
LOAD .build/obj_vessel_base/./lib/chibios/os/common/startup/ARMCMx/compilers/GCC/crt0_v7m.o
LOAD .build/obj_vessel_base/./lib/chibios/os/common/startup/ARMCMx/compilers/GCC/vectors.o
LOAD .build/obj_vessel_base/./lib/chibios/os/common/ports/ARMv7-M/compilers/GCC/chcoreasm.o
LOAD .build/obj_vessel_base/protocol/chibios/usb_main.o
LOAD .build/obj_vessel_base/protocol/chibios/chibios.o
LOAD .build/obj_vessel_base/usb_descriptor.o
LOAD .build/obj_vessel_base/protocol/chibios/usb_driver.o
LOAD .build/obj_vessel_base/protocol/chibios/usb_endpoints.o
LOAD .build/obj_vessel_base/protocol/chibios/usb_report_handling.o
LOAD .build/obj_vessel_base/protocol/chibios/usb_util.o
LOAD .build/obj_vessel_base/lib/chibios/os/common/startup/ARMCMx/compilers/GCC/crt1.o
LOAD .build/obj_vessel_base/lib/chibios/os/rt/src/chsys.o
LOAD .build/obj_vessel_base/lib/chibios/os/rt/src/chrfcu.o
LOAD .build/obj_vessel_base/lib/chibios/os/rt/src/chdebug.o
LOAD .build/obj_vessel_base/lib/chibios/os/rt/src/chtrace.o
LOAD .build/obj_vessel_base/lib/chibios/os/rt/src/chvt.o
LOAD .build/obj_vessel_base/lib/chibios/os/rt/src/chschd.o
LOAD .build/obj_vessel_base/lib/chibios/os/rt/src/chinstances.o
LOAD .build/obj_vessel_base/lib/chibios/os/rt/src/chthreads.o
LOAD .build/obj_vessel_base/lib/chibios/os/rt/src/chtm.o
LOAD .build/obj_vessel_base/lib/chibios/os/rt/src/chstats.o
LOAD .build/obj_vessel_base/lib/chibios/os/rt/src/chregistry.o
LOAD .build/obj_vessel_base/lib/chibios/os/rt/src/chsem.o
LOAD .build/obj_vessel_base/lib/chibios/os/rt/src/chmtx.o
LOAD .build/obj_vessel_base/lib/chibios/os/rt/src/chcond.o
LOAD .build/obj_vessel_base/lib/chibios/os/rt/src/chevents.o
LOAD .build/obj_vessel_base/lib/chibios/os/rt/src/chmsg.o
LOAD .build/obj_vessel_base/lib/chibios/os/rt/src/chdynamic.o
LOAD .build/obj_vessel_base/lib/chibios/os/common/ports/ARMv7-M/chcore.o
LOAD .build/obj_vessel_base/lib/chibios/os/hal/osal/rt-nil/osal.o
LOAD .build/obj_vessel_base/lib/chibios/os/oslib/src/chmboxes.o
LOAD .build/obj_vessel_base/lib/chibios/os/oslib/src/chmemcore.o
LOAD .build/obj_vessel_base/lib/chibios/os/oslib/src/chmemheaps.o
LOAD .build/obj_vessel_base/lib/chibios/os/oslib/src/chmempools.o
LOAD .build/obj_vessel_base/lib/chibios/os/oslib/src/chpipes.o
LOAD .build/obj_vessel_base/lib/chibios/os/oslib/src/chobjcaches.o
LOAD .build/obj_vessel_base/lib/chibios/os/oslib/src/chdelegates.o
LOAD .build/obj_vessel_base/lib/chibios/os/oslib/src/chfactory.o
LOAD .build/obj_vessel_base/lib/chibios/os/hal/src/hal.o
LOAD .build/obj_vessel_base/lib/chibios/os/hal/src/hal_st.o
LOAD .build/obj_vessel_base/lib/chibios/os/hal/src/hal_buffers.o
LOAD .build/obj_vessel_base/lib/chibios/os/hal/src/hal_queues.o
LOAD .build/obj_vessel_base/lib/chibios/os/hal/src/hal_flash.o
LOAD .build/obj_vessel_base/lib/chibios/os/hal/src/hal_mmcsd.o
LOAD .build/obj_vessel_base/lib/chibios/os/hal/src/hal_adc.o
LOAD .build/obj_vessel_base/lib/chibios/os/hal/src/hal_can.o
LOAD .build/obj_vessel_base/lib/chibios/os/hal/src/hal_crypto.o
LOAD .build/obj_vessel_base/lib/chibios/os/hal/src/hal_dac.o
LOAD .build/obj_vessel_base/lib/chibios/os/hal/src/hal_efl.o
LOAD .build/obj_vessel_base/lib/chibios/os/hal/src/hal_gpt.o
LOAD .build/obj_vessel_base/lib/chibios/os/hal/src/hal_i2c.o
LOAD .build/obj_vessel_base/lib/chibios/os/hal/src/hal_i2s.o
LOAD .build/obj_vessel_base/lib/chibios/os/hal/src/hal_icu.o
LOAD .build/obj_vessel_base/lib/chibios/os/hal/src/hal_mac.o
LOAD .build/obj_vessel_base/lib/chibios/os/hal/src/hal_mmc_spi.o
LOAD .build/obj_vessel_base/lib/chibios/os/hal/src/hal_pal.o
LOAD .build/obj_vessel_base/lib/chibios/os/hal/src/hal_pwm.o
LOAD .build/obj_vessel_base/lib/chibios/os/hal/src/hal_rtc.o
LOAD .build/obj_vessel_base/lib/chibios/os/hal/src/hal_sdc.o
LOAD .build/obj_vessel_base/lib/chibios/os/hal/src/hal_serial.o
LOAD .build/obj_vessel_base/lib/chibios/os/hal/src/hal_serial_usb.o
LOAD .build/obj_vessel_base/lib/chibios/os/hal/src/hal_sio.o
LOAD .build/obj_vessel_base/lib/chibios/os/hal/src/hal_spi.o
LOAD .build/obj_vessel_base/lib/chibios/os/hal/src/hal_trng.o
LOAD .build/obj_vessel_base/lib/chibios/os/hal/src/hal_uart.o
LOAD .build/obj_vessel_base/lib/chibios/os/hal/src/hal_usb.o
LOAD .build/obj_vessel_base/lib/chibios/os/hal/src/hal_wdg.o
LOAD .build/obj_vessel_base/lib/chibios/os/hal/src/hal_wspi.o
LOAD .build/obj_vessel_base/lib/chibios/os/hal/ports/common/ARMCMx/nvic.o
LOAD .build/obj_vessel_base/lib/chibios/os/hal/ports/STM32/STM32F4xx/stm32_isr.o
LOAD .build/obj_vessel_base/lib/chibios/os/hal/ports/STM32/STM32F4xx/hal_lld.o
LOAD .build/obj_vessel_base/lib/chibios/os/hal/ports/STM32/STM32F4xx/hal_efl_lld.o
LOAD .build/obj_vessel_base/lib/chibios/os/hal/ports/STM32/LLD/ADCv2/hal_adc_lld.o
LOAD .build/obj_vessel_base/lib/chibios/os/hal/ports/STM32/LLD/CANv1/hal_can_lld.o
LOAD .build/obj_vessel_base/lib/chibios/os/hal/ports/STM32/LLD/CRYPv1/hal_crypto_lld.o
LOAD .build/obj_vessel_base/lib/chibios/os/hal/ports/STM32/LLD/DACv1/hal_dac_lld.o
LOAD .build/obj_vessel_base/lib/chibios/os/hal/ports/STM32/LLD/DMAv2/stm32_dma.o
LOAD .build/obj_vessel_base/lib/chibios/os/hal/ports/STM32/LLD/EXTIv1/stm32_exti.o
LOAD .build/obj_vessel_base/lib/chibios/os/hal/ports/STM32/LLD/GPIOv2/hal_pal_lld.o
LOAD .build/obj_vessel_base/lib/chibios/os/hal/ports/STM32/LLD/I2Cv1/hal_i2c_lld.o
LOAD .build/obj_vessel_base/lib/chibios/os/hal/ports/STM32/LLD/MACv1/hal_mac_lld.o
LOAD .build/obj_vessel_base/lib/chibios/os/hal/ports/STM32/LLD/OTGv1/hal_usb_lld.o
LOAD .build/obj_vessel_base/lib/chibios/os/hal/ports/STM32/LLD/QUADSPIv1/hal_wspi_lld.o
LOAD .build/obj_vessel_base/lib/chibios/os/hal/ports/STM32/LLD/RTCv2/hal_rtc_lld.o
LOAD .build/obj_vessel_base/lib/chibios/os/hal/ports/STM32/LLD/SPIv1/hal_i2s_lld.o
LOAD .build/obj_vessel_base/lib/chibios/os/hal/ports/STM32/LLD/SPIv1/hal_spi_v2_lld.o
LOAD .build/obj_vessel_base/lib/chibios/os/hal/ports/STM32/LLD/SDIOv1/hal_sdc_lld.o
LOAD .build/obj_vessel_base/lib/chibios/os/hal/ports/STM32/LLD/SYSTICKv1/hal_st_lld.o
LOAD .build/obj_vessel_base/lib/chibios/os/hal/ports/STM32/LLD/TIMv1/hal_gpt_lld.o
LOAD .build/obj_vessel_base/lib/chibios/os/hal/ports/STM32/LLD/TIMv1/hal_icu_lld.o
LOAD .build/obj_vessel_base/lib/chibios/os/hal/ports/STM32/LLD/TIMv1/hal_pwm_lld.o
LOAD .build/obj_vessel_base/lib/chibios/os/hal/ports/STM32/LLD/USARTv1/hal_serial_lld.o
LOAD .build/obj_vessel_base/lib/chibios/os/hal/ports/STM32/LLD/USARTv1/hal_uart_lld.o
LOAD .build/obj_vessel_base/lib/chibios/os/hal/ports/STM32/LLD/xWDGv1/hal_wdg_lld.o
LOAD .build/obj_vessel_base/lib/chibios/os/hal/boards/ST_NUCLEO64_F446RE/board.o
LOAD .build/obj_vessel_base/lib/chibios/os/hal/lib/streams/chprintf.o
LOAD .build/obj_vessel_base/lib/chibios/os/hal/lib/streams/chscanf.o
LOAD .build/obj_vessel_base/lib/chibios/os/hal/lib/streams/memstreams.o
LOAD .build/obj_vessel_base/lib/chibios/os/hal/lib/streams/nullstreams.o
LOAD .build/obj_vessel_base/lib/chibios/os/hal/lib/streams/bufstreams.o
LOAD .build/obj_vessel_base/lib/chibios/os/various/syscalls.o
LOAD .build/obj_vessel_base/platforms/chibios/syscall-fallbacks.o
LOAD .build/obj_vessel_base/platforms/chibios/wait.o
LOAD .build/obj_vessel_base/platforms/chibios/synchronization_util.o
LOAD .build/obj_vessel_base/platforms/chibios/interrupt_handlers.o
                0x00000800                        __process_stack_size__ = 0x800
                0x00000400                        __main_stack_size__ = 0x400
LOAD C:/QMK_MSYS/mingw64/bin/../lib/gcc/arm-none-eabi/13.3.0/../../../../arm-none-eabi/lib/thumb/v7e-m+fp/hard\libm.a
START GROUP
LOAD C:/QMK_MSYS/mingw64/bin/../lib/gcc/arm-none-eabi/13.3.0/thumb/v7e-m+fp/hard\libgcc.a
LOAD C:/QMK_MSYS/mingw64/bin/../lib/gcc/arm-none-eabi/13.3.0/../../../../arm-none-eabi/lib/thumb/v7e-m+fp/hard\libg_nano.a
LOAD C:/QMK_MSYS/mingw64/bin/../lib/gcc/arm-none-eabi/13.3.0/../../../../arm-none-eabi/lib/thumb/v7e-m+fp/hard\libc_nano.a
END GROUP
START GROUP
LOAD C:/QMK_MSYS/mingw64/bin/../lib/gcc/arm-none-eabi/13.3.0/thumb/v7e-m+fp/hard\libgcc.a
LOAD C:/QMK_MSYS/mingw64/bin/../lib/gcc/arm-none-eabi/13.3.0/../../../../arm-none-eabi/lib/thumb/v7e-m+fp/hard\libc_nano.a
END GROUP

.mstack         0x20000000      0x400
                0x20000000                        . = ALIGN (0x8)
                0x20000000                        __main_stack_base__ = .
                0x20000400                        . = (. + __main_stack_size__)
 *fill*         0x20000000      0x400 
                0x20000400                        . = ALIGN (0x8)
                0x20000400                        __main_stack_end__ = .

.pstack         0x20000400      0x800
                0x20000400                        . = ALIGN (0x8)
                0x20000400                        __process_stack_base__ = .
                0x20000400                        __main_thread_stack_base__ = .
                0x20000c00                        . = (. + __process_stack_size__)
 *fill*         0x20000400      0x800 
                0x20000c00                        . = ALIGN (0x8)
                0x20000c00                        __process_stack_end__ = .
                0x20000c00                        __main_thread_stack_end__ = .

.vectors        0x08000000      0x1e0
                0x08000000                        __textvectors_base__ = LOADADDR (.vectors)
                0x08000000                        __vectors_base__ = .
 *(.vectors)
 .vectors       0x08000000      0x1e0 .build/obj_vessel_base/./lib/chibios/os/common/startup/ARMCMx/compilers/GCC/vectors.o
                0x08000000                _vectors
                0x080001e0                        __vectors_end__ = .

.xtors          0x080001e0        0x0
                0x080001e0                        __init_array_base__ = .
 *(SORT_BY_NAME(.init_array.*))
 *(.init_array)
                0x080001e0                        __init_array_end__ = .
                0x080001e0                        __fini_array_base__ = .
 *(.fini_array)
 *(SORT_BY_NAME(.fini_array.*))
                0x080001e0                        __fini_array_end__ = .

.text           0x080001e0     0x976c
                0x080001e0                        __text_base__ = .
 *(.text)
 .text          0x080001e0      0x11c .build/obj_vessel_base/./lib/chibios/os/common/startup/ARMCMx/compilers/GCC/crt0_v7m.o
                0x080001e0                _crt0_entry
 .text          0x080002fc        0x8 .build/obj_vessel_base/./lib/chibios/os/common/startup/ARMCMx/compilers/GCC/vectors.o
                0x080002fc                Reset_Handler
                0x080002fe                VectorE8
                0x080002fe                Vector9C
                0x080002fe                VectorAC
                0x080002fe                DebugMon_Handler
                0x080002fe                Vector1A0
                0x080002fe                Vector5C
                0x080002fe                Vector11C
                0x080002fe                HardFault_Handler
                0x080002fe                Vector1B8
                0x080002fe                Vector19C
                0x080002fe                Vector8C
                0x080002fe                SysTick_Handler
                0x080002fe                VectorDC
                0x080002fe                PendSV_Handler
                0x080002fe                Vector168
                0x080002fe                NMI_Handler
                0x080002fe                Vector110
                0x080002fe                Vector1D8
                0x080002fe                VectorC8
                0x080002fe                Vector94
                0x080002fe                VectorA8
                0x080002fe                VectorB4
                0x080002fe                Vector160
                0x080002fe                Vector1B0
                0x080002fe                UsageFault_Handler
                0x080002fe                VectorEC
                0x080002fe                Vector40
                0x080002fe                VectorF8
                0x080002fe                Vector108
                0x080002fe                Vector190
                0x080002fe                Vector1C4
                0x080002fe                Vector1CC
                0x080002fe                Vector148
                0x080002fe                Vector188
                0x080002fe                Vector198
                0x080002fe                Vector118
                0x080002fe                Vector64
                0x080002fe                Vector58
                0x080002fe                VectorCC
                0x080002fe                Vector54
                0x080002fe                Vector98
                0x080002fe                VectorD8
                0x080002fe                Vector138
                0x080002fe                Vector24
                0x080002fe                Vector1AC
                0x080002fe                Vector178
                0x080002fe                SecureFault_Handler
                0x080002fe                Vector1A4
                0x080002fe                VectorD0
                0x080002fe                Vector1B4
                0x080002fe                Vector140
                0x080002fe                VectorE4
                0x080002fe                Vector1C0
                0x080002fe                Vector134
                0x080002fe                Vector1D0
                0x080002fe                VectorF0
                0x080002fe                Vector13C
                0x080002fe                Vector100
                0x080002fe                VectorE0
                0x080002fe                VectorF4
                0x080002fe                MemManage_Handler
                0x080002fe                VectorA0
                0x080002fe                VectorC4
                0x080002fe                Vector180
                0x080002fe                Vector90
                0x080002fe                Vector114
                0x080002fe                Vector164
                0x080002fe                Vector60
                0x080002fe                Vector1BC
                0x080002fe                Vector1D4
                0x080002fe                Vector17C
                0x080002fe                Vector48
                0x080002fe                Vector1A8
                0x080002fe                Vector16C
                0x080002fe                VectorD4
                0x080002fe                Vector4C
                0x080002fe                Vector144
                0x080002fe                Vector15C
                0x080002fe                Vector68
                0x080002fe                Vector18C
                0x080002fe                Vector170
                0x080002fe                Vector88
                0x080002fe                Vector104
                0x080002fe                Vector184
                0x080002fe                Vector10C
                0x080002fe                BusFault_Handler
                0x080002fe                Vector50
                0x080002fe                Vector1C8
                0x080002fe                Vector194
                0x080002fe                Vector1DC
                0x080002fe                Vector44
                0x080002fe                Vector28
                0x080002fe                VectorB8
                0x080002fe                Vector34
                0x080002fe                VectorA4
                0x080002fe                Vector20
                0x080002fe                Vector174
                0x08000302                _unhandled_exception
 .text          0x08000304       0x32 .build/obj_vessel_base/./lib/chibios/os/common/ports/ARMv7-M/compilers/GCC/chcoreasm.o
                0x08000304                __port_switch
                0x0800031c                __port_thread_start
                0x0800032e                __port_switch_from_isr
                0x08000332                __port_exit_from_isr
 *fill*         0x08000336        0x2 
 .text          0x08000338       0x30 C:/QMK_MSYS/mingw64/bin/../lib/gcc/arm-none-eabi/13.3.0/thumb/v7e-m+fp/hard\libgcc.a(_aeabi_uldivmod.o)
                0x08000338                __aeabi_uldivmod
 .text          0x08000368        0x4 C:/QMK_MSYS/mingw64/bin/../lib/gcc/arm-none-eabi/13.3.0/thumb/v7e-m+fp/hard\libgcc.a(_dvmd_tls.o)
                0x08000368                __aeabi_idiv0
                0x08000368                __aeabi_ldiv0
 *fill*         0x0800036c        0x4 
 .text          0x08000370       0xfc C:/QMK_MSYS/mingw64/bin/../lib/gcc/arm-none-eabi/13.3.0/../../../../arm-none-eabi/lib/thumb/v7e-m+fp/hard\libg_nano.a(libc_a-rand.o)
                0x08000370                srand
                0x080003d4                rand
 .text          0x0800046c       0x4c C:/QMK_MSYS/mingw64/bin/../lib/gcc/arm-none-eabi/13.3.0/../../../../arm-none-eabi/lib/thumb/v7e-m+fp/hard\libg_nano.a(libc_a-assert.o)
                0x0800046c                __assert_func
                0x080004ac                __assert
 .text          0x080004b8       0x20 C:/QMK_MSYS/mingw64/bin/../lib/gcc/arm-none-eabi/13.3.0/../../../../arm-none-eabi/lib/thumb/v7e-m+fp/hard\libg_nano.a(libc_a-malloc.o)
                0x080004b8                malloc
                0x080004c8                free
 .text          0x080004d8      0x140 C:/QMK_MSYS/mingw64/bin/../lib/gcc/arm-none-eabi/13.3.0/../../../../arm-none-eabi/lib/thumb/v7e-m+fp/hard\libg_nano.a(libc_a-mallocr.o)
                0x08000520                _malloc_r
 .text          0x08000618       0x18 C:/QMK_MSYS/mingw64/bin/../lib/gcc/arm-none-eabi/13.3.0/../../../../arm-none-eabi/lib/thumb/v7e-m+fp/hard\libg_nano.a(libc_a-mlock.o)
                0x08000618                __malloc_lock
                0x08000624                __malloc_unlock
 .text          0x08000630       0x44 C:/QMK_MSYS/mingw64/bin/../lib/gcc/arm-none-eabi/13.3.0/../../../../arm-none-eabi/lib/thumb/v7e-m+fp/hard\libg_nano.a(libc_a-fprintf.o)
                0x08000630                _fprintf_r
                0x08000630                _fiprintf_r
                0x0800064c                fiprintf
                0x0800064c                fprintf
 .text          0x08000674       0x28 C:/QMK_MSYS/mingw64/bin/../lib/gcc/arm-none-eabi/13.3.0/../../../../arm-none-eabi/lib/thumb/v7e-m+fp/hard\libg_nano.a(libc_a-lock.o)
                0x08000674                __retarget_lock_init
                0x08000678                __retarget_lock_init_recursive
                0x0800067c                __retarget_lock_close
                0x08000680                __retarget_lock_close_recursive
                0x08000684                __retarget_lock_acquire
                0x08000688                __retarget_lock_acquire_recursive
                0x0800068c                __retarget_lock_try_acquire
                0x08000690                __retarget_lock_try_acquire_recursive
                0x08000694                __retarget_lock_release
                0x08000698                __retarget_lock_release_recursive
 .text          0x0800069c       0x10 C:/QMK_MSYS/mingw64/bin/../lib/gcc/arm-none-eabi/13.3.0/../../../../arm-none-eabi/lib/thumb/v7e-m+fp/hard\libg_nano.a(libc_a-abort.o)
                0x0800069c                abort
 .text          0x080006ac       0xbc C:/QMK_MSYS/mingw64/bin/../lib/gcc/arm-none-eabi/13.3.0/../../../../arm-none-eabi/lib/thumb/v7e-m+fp/hard\libg_nano.a(libc_a-freer.o)
                0x080006ac                _free_r
 .text          0x08000768      0x368 C:/QMK_MSYS/mingw64/bin/../lib/gcc/arm-none-eabi/13.3.0/../../../../arm-none-eabi/lib/thumb/v7e-m+fp/hard\libg_nano.a(libc_a-nano-vfprintf.o)
                0x080007a4                __sfputs_r
                0x080007d4                __sprint_r
                0x080007f4                _vfiprintf_r
                0x080007f4                _vfprintf_r
                0x08000ab4                vfprintf
                0x08000ab4                vfiprintf
 .text          0x08000ad0      0x3a4 C:/QMK_MSYS/mingw64/bin/../lib/gcc/arm-none-eabi/13.3.0/../../../../arm-none-eabi/lib/thumb/v7e-m+fp/hard\libg_nano.a(libc_a-nano-vfprintf_i.o)
                0x08000ad0                _printf_common
                0x08000bf4                _printf_i
 .text          0x08000e74      0x2dc C:/QMK_MSYS/mingw64/bin/../lib/gcc/arm-none-eabi/13.3.0/../../../../arm-none-eabi/lib/thumb/v7e-m+fp/hard\libg_nano.a(libc_a-findfp.o)
                0x08000ff0                __sfp
                0x080010b0                __sinit
                0x080010f0                __sfp_lock_acquire
                0x080010fc                __sfp_lock_release
                0x08001108                __fp_lock_all
                0x0800112c                __fp_unlock_all
 .text          0x08001150      0x300 C:/QMK_MSYS/mingw64/bin/../lib/gcc/arm-none-eabi/13.3.0/../../../../arm-none-eabi/lib/thumb/v7e-m+fp/hard\libg_nano.a(libc_a-fvwrite.o)
                0x08001150                __sfvwrite_r
 .text          0x08001450       0x48 C:/QMK_MSYS/mingw64/bin/../lib/gcc/arm-none-eabi/13.3.0/../../../../arm-none-eabi/lib/thumb/v7e-m+fp/hard\libg_nano.a(libc_a-fwalk.o)
                0x08001450                _fwalk_sglue
 .text          0x08001498       0x94 C:/QMK_MSYS/mingw64/bin/../lib/gcc/arm-none-eabi/13.3.0/../../../../arm-none-eabi/lib/thumb/v7e-m+fp/hard\libg_nano.a(libc_a-stdio.o)
                0x08001498                __sread
                0x080014bc                __seofread
                0x080014c0                __swrite
                0x08001500                __sseek
                0x08001524                __sclose
 .text          0x0800152c       0xa0 C:/QMK_MSYS/mingw64/bin/../lib/gcc/arm-none-eabi/13.3.0/../../../../arm-none-eabi/lib/thumb/v7e-m+fp/hard\libg_nano.a(libc_a-wbuf.o)
                0x0800152c                __swbuf_r
                0x080015b4                __swbuf
 .text          0x080015cc       0xc0 C:/QMK_MSYS/mingw64/bin/../lib/gcc/arm-none-eabi/13.3.0/../../../../arm-none-eabi/lib/thumb/v7e-m+fp/hard\libg_nano.a(libc_a-wsetup.o)
                0x080015cc                __swsetup_r
 .text          0x0800168c      0x100 C:/QMK_MSYS/mingw64/bin/../lib/gcc/arm-none-eabi/13.3.0/../../../../arm-none-eabi/lib/thumb/v7e-m+fp/hard\libg_nano.a(libc_a-memmove.o)
                0x0800168c                memmove
 .text          0x0800178c       0xa4 C:/QMK_MSYS/mingw64/bin/../lib/gcc/arm-none-eabi/13.3.0/../../../../arm-none-eabi/lib/thumb/v7e-m+fp/hard\libg_nano.a(libc_a-memset.o)
                0x0800178c                memset
 .text          0x08001830      0x260 C:/QMK_MSYS/mingw64/bin/../lib/gcc/arm-none-eabi/13.3.0/../../../../arm-none-eabi/lib/thumb/v7e-m+fp/hard\libg_nano.a(libc_a-signal.o)
                0x08001830                _init_signal_r
                0x0800185c                _signal_r
                0x080018a8                _raise_r
                0x080018f8                __sigtramp_r
                0x08001958                raise
                0x080019ac                signal
                0x080019f8                _init_signal
                0x08001a2c                __sigtramp
 .text          0x08001a90       0x30 C:/QMK_MSYS/mingw64/bin/../lib/gcc/arm-none-eabi/13.3.0/../../../../arm-none-eabi/lib/thumb/v7e-m+fp/hard\libg_nano.a(libc_a-signalr.o)
                0x08001a90                _kill_r
                0x08001abc                _getpid_r
 .text          0x08001ac0       0xa0 C:/QMK_MSYS/mingw64/bin/../lib/gcc/arm-none-eabi/13.3.0/../../../../arm-none-eabi/lib/thumb/v7e-m+fp/hard\libg_nano.a(libc_a-memchr.o)
                0x08001ac0                memchr
 .text          0x08001b60      0x134 C:/QMK_MSYS/mingw64/bin/../lib/gcc/arm-none-eabi/13.3.0/../../../../arm-none-eabi/lib/thumb/v7e-m+fp/hard\libg_nano.a(libc_a-memcpy.o)
                0x08001b60                memcpy
 .text          0x08001c94       0x68 C:/QMK_MSYS/mingw64/bin/../lib/gcc/arm-none-eabi/13.3.0/../../../../arm-none-eabi/lib/thumb/v7e-m+fp/hard\libg_nano.a(libc_a-reallocr.o)
                0x08001c94                _realloc_r
 .text          0x08001cfc      0x1a0 C:/QMK_MSYS/mingw64/bin/../lib/gcc/arm-none-eabi/13.3.0/../../../../arm-none-eabi/lib/thumb/v7e-m+fp/hard\libg_nano.a(libc_a-fflush.o)
                0x08001cfc                __sflush_r
                0x08001e1c                _fflush_r
                0x08001e74                fflush
 .text          0x08001e9c      0x114 C:/QMK_MSYS/mingw64/bin/../lib/gcc/arm-none-eabi/13.3.0/../../../../arm-none-eabi/lib/thumb/v7e-m+fp/hard\libg_nano.a(libc_a-makebuf.o)
                0x08001e9c                __smakebuf_r
                0x08001f60                __swhatbuf_r
 .text          0x08001fb0       0x10 C:/QMK_MSYS/mingw64/bin/../lib/gcc/arm-none-eabi/13.3.0/../../../../arm-none-eabi/lib/thumb/v7e-m+fp/hard\libg_nano.a(libc_a-msizer.o)
                0x08001fb0                _malloc_usable_size_r
 .text          0x08001fc0       0x60 C:/QMK_MSYS/mingw64/bin/../lib/gcc/arm-none-eabi/13.3.0/../../../../arm-none-eabi/lib/thumb/v7e-m+fp/hard\libg_nano.a(libc_a-memcmp.o)
                0x08001fc0                memcmp
 *(.text.*)
 .text.do_code16
                0x08002020       0x58 C:\QMK_MSYS\tmp\ccs2W3Vd.ltrans0.ltrans.o
 .text.layer_on
                0x08002078       0x14 C:\QMK_MSYS\tmp\ccs2W3Vd.ltrans0.ltrans.o
 .text.layer_off
                0x0800208c       0x14 C:\QMK_MSYS\tmp\ccs2W3Vd.ltrans0.ltrans.o
 .text.update_source_layers_cache_impl
                0x080020a0       0x32 C:\QMK_MSYS\tmp\ccs2W3Vd.ltrans0.ltrans.o
 .text.read_source_layers_cache_impl
                0x080020d2       0x26 C:\QMK_MSYS\tmp\ccs2W3Vd.ltrans0.ltrans.o
 .text.update_source_layers_cache
                0x080020f8       0x44 C:\QMK_MSYS\tmp\ccs2W3Vd.ltrans0.ltrans.o
 .text.read_source_layers_cache
                0x0800213c       0x3c C:\QMK_MSYS\tmp\ccs2W3Vd.ltrans0.ltrans.o
 .text.debug_waiting_buffer
                0x08002178       0x20 C:\QMK_MSYS\tmp\ccs2W3Vd.ltrans0.ltrans.o
 .text.keymap_key_to_keycode
                0x08002198       0x50 C:\QMK_MSYS\tmp\ccs2W3Vd.ltrans0.ltrans.o
 .text.keycode_config
                0x080021e8      0x108 C:\QMK_MSYS\tmp\ccs2W3Vd.ltrans0.ltrans.o
 .text.mod_config
                0x080022f0       0xc4 C:\QMK_MSYS\tmp\ccs2W3Vd.ltrans0.ltrans.o
 .text.action_for_keycode
                0x080023b4      0x1b0 C:\QMK_MSYS\tmp\ccs2W3Vd.ltrans0.ltrans.o
 .text.layer_switch_get_layer
                0x08002564       0x50 C:\QMK_MSYS\tmp\ccs2W3Vd.ltrans0.ltrans.o
 .text.get_record_keycode
                0x080025b4       0x34 C:\QMK_MSYS\tmp\ccs2W3Vd.ltrans0.ltrans.o
 .text.layer_switch_get_action
                0x080025e8       0x24 C:\QMK_MSYS\tmp\ccs2W3Vd.ltrans0.ltrans.o
 .text.is_tap_record
                0x0800260c       0x50 C:\QMK_MSYS\tmp\ccs2W3Vd.ltrans0.ltrans.o
 .text.sendchar
                0x0800265c        0x4 C:\QMK_MSYS\tmp\ccs2W3Vd.ltrans0.ltrans.o
 .text.null_sendchar_func
                0x08002660        0x4 C:\QMK_MSYS\tmp\ccs2W3Vd.ltrans0.ltrans.o
 .text.__idle_thread
                0x08002664        0x4 C:\QMK_MSYS\tmp\ccs2W3Vd.ltrans0.ltrans.o
 .text.hsv_to_rgb
                0x08002668       0xac C:\QMK_MSYS\tmp\ccs2W3Vd.ltrans0.ltrans.o
 .text.sqrt16   0x08002714       0x4c C:\QMK_MSYS\tmp\ccs2W3Vd.ltrans0.ltrans.o
 .text.random8  0x08002760       0x24 C:\QMK_MSYS\tmp\ccs2W3Vd.ltrans0.ltrans.o
 .text.sin8_C   0x08002784       0x44 C:\QMK_MSYS\tmp\ccs2W3Vd.ltrans0.ltrans.o
 .text.atan2_8  0x080027c8       0x46 C:\QMK_MSYS\tmp\ccs2W3Vd.ltrans0.ltrans.o
 *fill*         0x0800280e        0x2 
 .text.BAND_SAT_math
                0x08002810       0x5c C:\QMK_MSYS\tmp\ccs2W3Vd.ltrans0.ltrans.o
 .text.BAND_VAL_math
                0x0800286c       0x5c C:\QMK_MSYS\tmp\ccs2W3Vd.ltrans0.ltrans.o
 .text.BAND_PINWHEEL_SAT_math
                0x080028c8       0x48 C:\QMK_MSYS\tmp\ccs2W3Vd.ltrans0.ltrans.o
 .text.BAND_PINWHEEL_VAL_math
                0x08002910       0x48 C:\QMK_MSYS\tmp\ccs2W3Vd.ltrans0.ltrans.o
 .text.BAND_SPIRAL_SAT_math
                0x08002958       0x46 C:\QMK_MSYS\tmp\ccs2W3Vd.ltrans0.ltrans.o
 .text.BAND_SPIRAL_VAL_math
                0x0800299e       0x46 C:\QMK_MSYS\tmp\ccs2W3Vd.ltrans0.ltrans.o
 .text.CYCLE_ALL_math
                0x080029e4       0x26 C:\QMK_MSYS\tmp\ccs2W3Vd.ltrans0.ltrans.o
 *fill*         0x08002a0a        0x2 
 .text.CYCLE_LEFT_RIGHT_math
                0x08002a0c       0x38 C:\QMK_MSYS\tmp\ccs2W3Vd.ltrans0.ltrans.o
 .text.CYCLE_UP_DOWN_math
                0x08002a44       0x38 C:\QMK_MSYS\tmp\ccs2W3Vd.ltrans0.ltrans.o
 .text.RAINBOW_MOVING_CHEVRON_math
                0x08002a7c       0x54 C:\QMK_MSYS\tmp\ccs2W3Vd.ltrans0.ltrans.o
 .text.CYCLE_OUT_IN_math
                0x08002ad0       0x32 C:\QMK_MSYS\tmp\ccs2W3Vd.ltrans0.ltrans.o
 .text.CYCLE_OUT_IN_DUAL_math
                0x08002b02       0x48 C:\QMK_MSYS\tmp\ccs2W3Vd.ltrans0.ltrans.o
 .text.CYCLE_PINWHEEL_math
                0x08002b4a       0x30 C:\QMK_MSYS\tmp\ccs2W3Vd.ltrans0.ltrans.o
 .text.CYCLE_SPIRAL_math
                0x08002b7a       0x36 C:\QMK_MSYS\tmp\ccs2W3Vd.ltrans0.ltrans.o
 .text.DUAL_BEACON_math
                0x08002bb0       0x50 C:\QMK_MSYS\tmp\ccs2W3Vd.ltrans0.ltrans.o
 .text.RAINBOW_BEACON_math
                0x08002c00       0x50 C:\QMK_MSYS\tmp\ccs2W3Vd.ltrans0.ltrans.o
 .text.RAINBOW_PINWHEELS_math
                0x08002c50       0x60 C:\QMK_MSYS\tmp\ccs2W3Vd.ltrans0.ltrans.o
 .text.FLOWER_BLOOMING_math
                0x08002cb0       0x48 C:\QMK_MSYS\tmp\ccs2W3Vd.ltrans0.ltrans.o
 .text.HUE_PENDULUM_math
                0x08002cf8       0x64 C:\QMK_MSYS\tmp\ccs2W3Vd.ltrans0.ltrans.o
 .text.HUE_WAVE_math
                0x08002d5c       0x4c C:\QMK_MSYS\tmp\ccs2W3Vd.ltrans0.ltrans.o
 .text.SOLID_REACTIVE_SIMPLE_math
                0x08002da8       0x58 C:\QMK_MSYS\tmp\ccs2W3Vd.ltrans0.ltrans.o
 .text.SOLID_REACTIVE_math
                0x08002e00       0x50 C:\QMK_MSYS\tmp\ccs2W3Vd.ltrans0.ltrans.o
 .text.SOLID_REACTIVE_WIDE_math
                0x08002e50       0x70 C:\QMK_MSYS\tmp\ccs2W3Vd.ltrans0.ltrans.o
 .text.SOLID_REACTIVE_CROSS_math
                0x08002ec0       0x9c C:\QMK_MSYS\tmp\ccs2W3Vd.ltrans0.ltrans.o
 .text.SOLID_REACTIVE_NEXUS_math
                0x08002f5c       0x94 C:\QMK_MSYS\tmp\ccs2W3Vd.ltrans0.ltrans.o
 .text.SPLASH_math
                0x08002ff0       0x4e C:\QMK_MSYS\tmp\ccs2W3Vd.ltrans0.ltrans.o
 .text.SOLID_SPLASH_math
                0x0800303e       0x44 C:\QMK_MSYS\tmp\ccs2W3Vd.ltrans0.ltrans.o
 .text.rgb_matrix_set_color
                0x08003082        0x4 C:\QMK_MSYS\tmp\ccs2W3Vd.ltrans0.ltrans.o
 .text.rgb_matrix_set_color_all
                0x08003086        0x4 C:\QMK_MSYS\tmp\ccs2W3Vd.ltrans0.ltrans.o
 .text.rgb_matrix_get_limits
                0x0800308a       0x2a C:\QMK_MSYS\tmp\ccs2W3Vd.ltrans0.ltrans.o
 .text.rgb_matrix_disable_noeeprom
                0x080030b4       0x20 C:\QMK_MSYS\tmp\ccs2W3Vd.ltrans0.ltrans.o
 .text.setled   0x080030d4       0x3c C:\QMK_MSYS\tmp\ccs2W3Vd.ltrans0.ltrans.o
 .text.setled_all
                0x08003110       0x1c C:\QMK_MSYS\tmp\ccs2W3Vd.ltrans0.ltrans.o
 .text.handleKeycodeRGB
                0x0800312c        0x6 C:\QMK_MSYS\tmp\ccs2W3Vd.ltrans0.ltrans.o
 *fill*         0x08003132        0x2 
 .text.oled_write_raw
                0x08003134       0x60 C:\QMK_MSYS\tmp\ccs2W3Vd.ltrans0.ltrans.o
 .text.encoder_quadrature_read_pin
                0x08003194       0x24 C:\QMK_MSYS\tmp\ccs2W3Vd.ltrans0.ltrans.o
 .text.sendByte
                0x080031b8       0x78 C:\QMK_MSYS\tmp\ccs2W3Vd.ltrans0.ltrans.o
 .text.flush    0x08003230       0x6c C:\QMK_MSYS\tmp\ccs2W3Vd.ltrans0.ltrans.o
 .text._process_tap_dance_action_fn
                0x0800329c        0x6 C:\QMK_MSYS\tmp\ccs2W3Vd.ltrans0.ltrans.o
 *fill*         0x080032a2        0x2 
 .text.host_keyboard_leds
                0x080032a4       0x10 C:\QMK_MSYS\tmp\ccs2W3Vd.ltrans0.ltrans.o
 .text.host_system_send
                0x080032b4       0x38 C:\QMK_MSYS\tmp\ccs2W3Vd.ltrans0.ltrans.o
 .text.host_consumer_send
                0x080032ec       0x38 C:\QMK_MSYS\tmp\ccs2W3Vd.ltrans0.ltrans.o
 .text.add_key_to_report
                0x08003324       0x70 C:\QMK_MSYS\tmp\ccs2W3Vd.ltrans0.ltrans.o
 .text.del_key_from_report
                0x08003394       0x5c C:\QMK_MSYS\tmp\ccs2W3Vd.ltrans0.ltrans.o
 .text.timer_read32
                0x080033f0       0x6c C:\QMK_MSYS\tmp\ccs2W3Vd.ltrans0.ltrans.o
 .text.__NVIC_SystemReset
                0x0800345c       0x24 C:\QMK_MSYS\tmp\ccs2W3Vd.ltrans0.ltrans.o
 .text.usb_get_descriptor_cb
                0x08003480       0xa8 C:\QMK_MSYS\tmp\ccs2W3Vd.ltrans0.ltrans.o
 .text.set_led_transfer_cb
                0x08003528       0x34 C:\QMK_MSYS\tmp\ccs2W3Vd.ltrans0.ltrans.o
 .text.usb_requests_hook_cb
                0x0800355c      0x1b4 C:\QMK_MSYS\tmp\ccs2W3Vd.ltrans0.ltrans.o
 .text.dummy_cb
                0x08003710        0x2 C:\QMK_MSYS\tmp\ccs2W3Vd.ltrans0.ltrans.o
 *fill*         0x08003712        0x2 
 .text.keyboard_leds
                0x08003714        0xc C:\QMK_MSYS\tmp\ccs2W3Vd.ltrans0.ltrans.o
 .text.send_mouse
                0x08003720        0x2 C:\QMK_MSYS\tmp\ccs2W3Vd.ltrans0.ltrans.o
 .text.usb_endpoint_in_is_inactive
                0x08003722       0x38 C:\QMK_MSYS\tmp\ccs2W3Vd.ltrans0.ltrans.o
 *fill*         0x0800375a        0x2 
 .text.usb_set_idle_rate
                0x0800375c       0x1c C:\QMK_MSYS\tmp\ccs2W3Vd.ltrans0.ltrans.o
 .text.usb_get_idle_rate
                0x08003778        0xc C:\QMK_MSYS\tmp\ccs2W3Vd.ltrans0.ltrans.o
 .text.usb_idle_timer_elapsed
                0x08003784       0x4c C:\QMK_MSYS\tmp\ccs2W3Vd.ltrans0.ltrans.o
 .text.usb_shared_set_idle_rate
                0x080037d0       0x24 C:\QMK_MSYS\tmp\ccs2W3Vd.ltrans0.ltrans.o
 .text.usb_shared_get_idle_rate
                0x080037f4       0x16 C:\QMK_MSYS\tmp\ccs2W3Vd.ltrans0.ltrans.o
 *fill*         0x0800380a        0x2 
 .text.usb_shared_idle_timer_elapsed
                0x0800380c       0x58 C:\QMK_MSYS\tmp\ccs2W3Vd.ltrans0.ltrans.o
 .text.chSysPolledDelayX
                0x08003864       0x14 C:\QMK_MSYS\tmp\ccs2W3Vd.ltrans0.ltrans.o
 .text.obqGetFullBufferI
                0x08003878       0x1c C:\QMK_MSYS\tmp\ccs2W3Vd.ltrans0.ltrans.o
 .text.obqPostFullBufferS
                0x08003894       0x26 C:\QMK_MSYS\tmp\ccs2W3Vd.ltrans0.ltrans.o
 *fill*         0x080038ba        0x2 
 .text.dmaStreamFreeI
                0x080038bc       0x7c C:\QMK_MSYS\tmp\ccs2W3Vd.ltrans0.ltrans.o
 .text.i2c_lld_abort_operation
                0x08003938       0x4a C:\QMK_MSYS\tmp\ccs2W3Vd.ltrans0.ltrans.o
 *fill*         0x08003982        0x2 
 .text.i2c_lld_serve_tx_end_irq
                0x08003984       0x44 C:\QMK_MSYS\tmp\ccs2W3Vd.ltrans0.ltrans.o
 .text.otg_disable_ep
                0x080039c8       0x56 C:\QMK_MSYS\tmp\ccs2W3Vd.ltrans0.ltrans.o
 .text.usb_lld_start_in
                0x08003a1e       0x8a C:\QMK_MSYS\tmp\ccs2W3Vd.ltrans0.ltrans.o
 .text.usbStartTransmitI
                0x08003aa8       0x24 C:\QMK_MSYS\tmp\ccs2W3Vd.ltrans0.ltrans.o
 .text.obnotify
                0x08003acc       0x3a C:\QMK_MSYS\tmp\ccs2W3Vd.ltrans0.ltrans.o
 .text._usb_ep0out
                0x08003b06       0x80 C:\QMK_MSYS\tmp\ccs2W3Vd.ltrans0.ltrans.o
 .text.gpio_init
                0x08003b86       0x1e C:\QMK_MSYS\tmp\ccs2W3Vd.ltrans0.ltrans.o
 .text._usb_wakeup.constprop.0
                0x08003ba4       0x1c C:\QMK_MSYS\tmp\ccs2W3Vd.ltrans0.ltrans.o
 .text.usb_lld_start_out.constprop.0
                0x08003bc0       0x66 C:\QMK_MSYS\tmp\ccs2W3Vd.ltrans0.ltrans.o
 .text.usbStartReceiveI.constprop.0
                0x08003c26       0x20 C:\QMK_MSYS\tmp\ccs2W3Vd.ltrans0.ltrans.o
 .text._usb_ep0in
                0x08003c46       0xb8 C:\QMK_MSYS\tmp\ccs2W3Vd.ltrans0.ltrans.o
 *fill*         0x08003cfe        0x2 
 .text.dmaStreamAllocI.part.0.constprop.0
                0x08003d00       0xa8 C:\QMK_MSYS\tmp\ccs2W3Vd.ltrans0.ltrans.o
 .text.effect_runner_dx_dy.constprop.0
                0x08003da8       0xc4 C:\QMK_MSYS\tmp\ccs2W3Vd.ltrans0.ltrans.o
 .text.effect_runner_dx_dy_dist.constprop.0
                0x08003e6c       0xec C:\QMK_MSYS\tmp\ccs2W3Vd.ltrans0.ltrans.o
 .text.effect_runner_sin_cos_i.constprop.0
                0x08003f58       0xd4 C:\QMK_MSYS\tmp\ccs2W3Vd.ltrans0.ltrans.o
 .text.effect_runner_i.constprop.0
                0x0800402c       0xac C:\QMK_MSYS\tmp\ccs2W3Vd.ltrans0.ltrans.o
 .text.effect_runner_reactive.constprop.0
                0x080040d8       0xf8 C:\QMK_MSYS\tmp\ccs2W3Vd.ltrans0.ltrans.o
 .text.effect_runner_reactive_splash.constprop.0
                0x080041d0      0x140 C:\QMK_MSYS\tmp\ccs2W3Vd.ltrans0.ltrans.o
 .text.set_starlight_color.constprop.0
                0x08004310       0x68 C:\QMK_MSYS\tmp\ccs2W3Vd.ltrans0.ltrans.o
 .text.eeconfig_flag_rgb_matrix.constprop.0
                0x08004378       0x10 C:\QMK_MSYS\tmp\ccs2W3Vd.ltrans0.ltrans.o
 .text.rgb_matrix_enable
                0x08004388       0x24 C:\QMK_MSYS\tmp\ccs2W3Vd.ltrans0.ltrans.o
 .text.rgb_matrix_increase_speed
                0x080043ac       0x18 C:\QMK_MSYS\tmp\ccs2W3Vd.ltrans0.ltrans.o
 .text.rgb_matrix_decrease_speed
                0x080043c4       0x14 C:\QMK_MSYS\tmp\ccs2W3Vd.ltrans0.ltrans.o
 .text.rgb_matrix_sethsv_eeprom_helper.constprop.0
                0x080043d8       0x28 C:\QMK_MSYS\tmp\ccs2W3Vd.ltrans0.ltrans.o
 .text.rgb_matrix_increase_hue
                0x08004400       0x14 C:\QMK_MSYS\tmp\ccs2W3Vd.ltrans0.ltrans.o
 .text.rgb_matrix_decrease_hue
                0x08004414       0x14 C:\QMK_MSYS\tmp\ccs2W3Vd.ltrans0.ltrans.o
 .text.rgb_matrix_increase_sat
                0x08004428       0x1c C:\QMK_MSYS\tmp\ccs2W3Vd.ltrans0.ltrans.o
 .text.rgb_matrix_decrease_sat
                0x08004444       0x18 C:\QMK_MSYS\tmp\ccs2W3Vd.ltrans0.ltrans.o
 .text.rgb_matrix_increase_val
                0x0800445c       0x1c C:\QMK_MSYS\tmp\ccs2W3Vd.ltrans0.ltrans.o
 .text.rgb_matrix_decrease_val
                0x08004478       0x18 C:\QMK_MSYS\tmp\ccs2W3Vd.ltrans0.ltrans.o
 .text.rgb_matrix_mode_eeprom_helper.constprop.0
                0x08004490       0x28 C:\QMK_MSYS\tmp\ccs2W3Vd.ltrans0.ltrans.o
 .text.rgb_matrix_step
                0x080044b8       0x18 C:\QMK_MSYS\tmp\ccs2W3Vd.ltrans0.ltrans.o
 .text.rgb_matrix_step_reverse
                0x080044d0       0x1c C:\QMK_MSYS\tmp\ccs2W3Vd.ltrans0.ltrans.o
 .text.otg_txfifo_flush.isra.0
                0x080044ec       0x14 C:\QMK_MSYS\tmp\ccs2W3Vd.ltrans0.ltrans.o
 .text.usb_event_queue_enqueue.isra.0
                0x08004500       0x28 C:\QMK_MSYS\tmp\ccs2W3Vd.ltrans0.ltrans.o
 .text.waiting_buffer_typed.isra.0
                0x08004528       0x44 C:\QMK_MSYS\tmp\ccs2W3Vd.ltrans0.ltrans.o
 .text.send_keyboard_report
                0x0800456c       0x94 C:\QMK_MSYS\tmp\ccs2W3Vd.ltrans0.ltrans.o
 .text.register_mods
                0x08004600       0x14 C:\QMK_MSYS\tmp\ccs2W3Vd.ltrans0.ltrans.o
 .text.unregister_mods
                0x08004614       0x18 C:\QMK_MSYS\tmp\ccs2W3Vd.ltrans0.ltrans.o
 .text.register_weak_mods
                0x0800462c       0x14 C:\QMK_MSYS\tmp\ccs2W3Vd.ltrans0.ltrans.o
 .text.unregister_weak_mods
                0x08004640       0x18 C:\QMK_MSYS\tmp\ccs2W3Vd.ltrans0.ltrans.o
 .text.unregister_code.part.0
                0x08004658       0x74 C:\QMK_MSYS\tmp\ccs2W3Vd.ltrans0.ltrans.o
 .text.unregister_code
                0x080046cc       0x3c C:\QMK_MSYS\tmp\ccs2W3Vd.ltrans0.ltrans.o
 .text.unregister_code16
                0x08004708       0x2c C:\QMK_MSYS\tmp\ccs2W3Vd.ltrans0.ltrans.o
 .text.process_tap_dance_action_on_reset
                0x08004734       0x28 C:\QMK_MSYS\tmp\ccs2W3Vd.ltrans0.ltrans.o
 .text.process_tap_dance_action_on_dance_finished
                0x0800475c       0x48 C:\QMK_MSYS\tmp\ccs2W3Vd.ltrans0.ltrans.o
 .text.eeprom_write_block
                0x080047a4       0x24 C:\QMK_MSYS\tmp\ccs2W3Vd.ltrans0.ltrans.o
 .text.usb_set_report
                0x080047c8       0x22 C:\QMK_MSYS\tmp\ccs2W3Vd.ltrans0.ltrans.o
 .text.usb_get_report
                0x080047ea       0x16 C:\QMK_MSYS\tmp\ccs2W3Vd.ltrans0.ltrans.o
 .text.usb_shared_set_report
                0x08004800       0x2a C:\QMK_MSYS\tmp\ccs2W3Vd.ltrans0.ltrans.o
 .text.usb_shared_get_report
                0x0800482a       0x1c C:\QMK_MSYS\tmp\ccs2W3Vd.ltrans0.ltrans.o
 *fill*         0x08004846        0x2 
 .text.eeprom_driver_erase
                0x08004848       0x10 C:\QMK_MSYS\tmp\ccs2W3Vd.ltrans0.ltrans.o
 .text.eeprom_read_block
                0x08004858       0x34 C:\QMK_MSYS\tmp\ccs2W3Vd.ltrans0.ltrans.o
 .text.eeprom_update_byte
                0x0800488c       0x34 C:\QMK_MSYS\tmp\ccs2W3Vd.ltrans0.ltrans.o
 .text.eeprom_read_word
                0x080048c0       0x1e C:\QMK_MSYS\tmp\ccs2W3Vd.ltrans0.ltrans.o
 .text.eeprom_update_word
                0x080048de       0x22 C:\QMK_MSYS\tmp\ccs2W3Vd.ltrans0.ltrans.o
 .text.eeprom_update_dword.constprop.0
                0x08004900       0x2a C:\QMK_MSYS\tmp\ccs2W3Vd.ltrans0.ltrans.o
 *fill*         0x0800492a        0x2 
 .text.oled_clear
                0x0800492c       0x2c C:\QMK_MSYS\tmp\ccs2W3Vd.ltrans0.ltrans.o
 .text.animation_on.isra.0
                0x08004958       0x84 C:\QMK_MSYS\tmp\ccs2W3Vd.ltrans0.ltrans.o
 .text.clear_keys_from_report
                0x080049dc       0x34 C:\QMK_MSYS\tmp\ccs2W3Vd.ltrans0.ltrans.o
 .text.usb_reset_report
                0x08004a10       0x1c C:\QMK_MSYS\tmp\ccs2W3Vd.ltrans0.ltrans.o
 .text.usb_shared_reset_report
                0x08004a2c       0x26 C:\QMK_MSYS\tmp\ccs2W3Vd.ltrans0.ltrans.o
 *fill*         0x08004a52        0x2 
 .text.set_starlight_dual_sat_color.constprop.0
                0x08004a54       0x80 C:\QMK_MSYS\tmp\ccs2W3Vd.ltrans0.ltrans.o
 .text.set_starlight_dual_hue_color.constprop.0
                0x08004ad4       0x80 C:\QMK_MSYS\tmp\ccs2W3Vd.ltrans0.ltrans.o
 .text.oled_send_cmd
                0x08004b54       0x16 C:\QMK_MSYS\tmp\ccs2W3Vd.ltrans0.ltrans.o
 *fill*         0x08004b6a        0x2 
 .text.oled_off.isra.0
                0x08004b6c       0x2c C:\QMK_MSYS\tmp\ccs2W3Vd.ltrans0.ltrans.o
 .text.oled_on.isra.0
                0x08004b98       0x3c C:\QMK_MSYS\tmp\ccs2W3Vd.ltrans0.ltrans.o
 .text.oled_task
                0x08004bd4      0x220 C:\QMK_MSYS\tmp\ccs2W3Vd.ltrans0.ltrans.o
 .text.ch_dlist_insert
                0x08004df4       0x2a C:\QMK_MSYS\tmp\ccs2W3Vd.ltrans0.ltrans.o
 *fill*         0x08004e1e        0x2 
 .text.vt_set_alarm
                0x08004e20       0x38 C:\QMK_MSYS\tmp\ccs2W3Vd.ltrans0.ltrans.o
 .text.vt_insert_first.constprop.0
                0x08004e58       0x54 C:\QMK_MSYS\tmp\ccs2W3Vd.ltrans0.ltrans.o
 .text.__sch_ready_behind.isra.0
                0x08004eac       0x1c C:\QMK_MSYS\tmp\ccs2W3Vd.ltrans0.ltrans.o
 .text.usb_endpoint_in_tx_complete_cb
                0x08004ec8       0xba C:\QMK_MSYS\tmp\ccs2W3Vd.ltrans0.ltrans.o
 .text.__sch_wakeup
                0x08004f82       0x44 C:\QMK_MSYS\tmp\ccs2W3Vd.ltrans0.ltrans.o
 .text.chThdResumeI
                0x08004fc6       0x12 C:\QMK_MSYS\tmp\ccs2W3Vd.ltrans0.ltrans.o
 .text.i2c_lld_serve_rx_end_irq
                0x08004fd8       0x68 C:\QMK_MSYS\tmp\ccs2W3Vd.ltrans0.ltrans.o
 .text._usb_ep0setup
                0x08005040      0x350 C:\QMK_MSYS\tmp\ccs2W3Vd.ltrans0.ltrans.o
 .text.otg_epin_handler.constprop.0
                0x08005390      0x108 C:\QMK_MSYS\tmp\ccs2W3Vd.ltrans0.ltrans.o
 .text.otg_epout_handler.constprop.0
                0x08005498       0xac C:\QMK_MSYS\tmp\ccs2W3Vd.ltrans0.ltrans.o
 .text.chThdDequeueAllI.constprop.0
                0x08005544       0x1e C:\QMK_MSYS\tmp\ccs2W3Vd.ltrans0.ltrans.o
 .text.obqResetI
                0x08005562       0x14 C:\QMK_MSYS\tmp\ccs2W3Vd.ltrans0.ltrans.o
 *fill*         0x08005576        0x2 
 .text.usb_event_cb
                0x08005578      0x218 C:\QMK_MSYS\tmp\ccs2W3Vd.ltrans0.ltrans.o
 .text.chSchGoSleepS
                0x08005790       0x1c C:\QMK_MSYS\tmp\ccs2W3Vd.ltrans0.ltrans.o
 .text.chSchGoSleepTimeoutS
                0x080057ac       0xd0 C:\QMK_MSYS\tmp\ccs2W3Vd.ltrans0.ltrans.o
 .text.__port_irq_epilogue
                0x0800587c       0x5c C:\QMK_MSYS\tmp\ccs2W3Vd.ltrans0.ltrans.o
 .text.eeprom_update_block.constprop.0
                0x080058d8       0x2e C:\QMK_MSYS\tmp\ccs2W3Vd.ltrans0.ltrans.o
 *fill*         0x08005906        0x2 
 .text.rgb_matrix_task
                0x08005908      0x96c C:\QMK_MSYS\tmp\ccs2W3Vd.ltrans0.ltrans.o
 .text.oled_init.constprop.0.isra.0
                0x08006274       0x88 C:\QMK_MSYS\tmp\ccs2W3Vd.ltrans0.ltrans.o
 .text.led_init_ports
                0x080062fc        0x2 C:\QMK_MSYS\tmp\ccs2W3Vd.ltrans0.ltrans.o
                0x080062fc                __cpu_init
 *fill*         0x080062fe        0x2 
 .text.__early_init
                0x08006300      0x22c C:\QMK_MSYS\tmp\ccs2W3Vd.ltrans0.ltrans.o
                0x08006300                __early_init
 .text.__late_init
                0x0800652c        0x2 C:\QMK_MSYS\tmp\ccs2W3Vd.ltrans0.ltrans.o
                0x0800652c                __late_init
 .text.__default_exit
                0x0800652e        0x2 C:\QMK_MSYS\tmp\ccs2W3Vd.ltrans0.ltrans.o
                0x0800652e                __default_exit
 .text.__init_ram_areas
                0x08006530       0x4c C:\QMK_MSYS\tmp\ccs2W3Vd.ltrans0.ltrans.o
                0x08006530                __init_ram_areas
 .text.__sch_reschedule_ahead
                0x0800657c       0x3c C:\QMK_MSYS\tmp\ccs2W3Vd.ltrans0.ltrans.o
                0x0800657c                chSchDoPreemption
 .text.chSchRescheduleS
                0x080065b8       0x18 C:\QMK_MSYS\tmp\ccs2W3Vd.ltrans0.ltrans.o
 .text.send_report.isra.0
                0x080065d0      0x170 C:\QMK_MSYS\tmp\ccs2W3Vd.ltrans0.ltrans.o
 .text.programmable_button_flush
                0x08006740       0x38 C:\QMK_MSYS\tmp\ccs2W3Vd.ltrans0.ltrans.o
 .text.clear_keyboard
                0x08006778       0x38 C:\QMK_MSYS\tmp\ccs2W3Vd.ltrans0.ltrans.o
 .text.send_keyboard
                0x080067b0        0xa C:\QMK_MSYS\tmp\ccs2W3Vd.ltrans0.ltrans.o
 .text.send_nkro
                0x080067ba        0xa C:\QMK_MSYS\tmp\ccs2W3Vd.ltrans0.ltrans.o
 .text.send_extra
                0x080067c4        0xa C:\QMK_MSYS\tmp\ccs2W3Vd.ltrans0.ltrans.o
 *fill*         0x080067ce        0x2 
 .text.chThdExit
                0x080067d0       0x18 C:\QMK_MSYS\tmp\ccs2W3Vd.ltrans0.ltrans.o
                0x080067d0                chThdExit
 .text.chThdSleep
                0x080067e8       0x18 C:\QMK_MSYS\tmp\ccs2W3Vd.ltrans0.ltrans.o
                0x080067e8                chThdSleep
 .text.register_code.part.0
                0x08006800       0xf8 C:\QMK_MSYS\tmp\ccs2W3Vd.ltrans0.ltrans.o
 .text.register_code
                0x080068f8       0x32 C:\QMK_MSYS\tmp\ccs2W3Vd.ltrans0.ltrans.o
 *fill*         0x0800692a        0x2 
 .text.register_code16
                0x0800692c       0x2c C:\QMK_MSYS\tmp\ccs2W3Vd.ltrans0.ltrans.o
 .text.tap_dance_pair_on_each_tap
                0x08006958       0x1a C:\QMK_MSYS\tmp\ccs2W3Vd.ltrans0.ltrans.o
 .text.tap_dance_pair_finished
                0x08006972        0x6 C:\QMK_MSYS\tmp\ccs2W3Vd.ltrans0.ltrans.o
 .text.tap_code
                0x08006978       0x28 C:\QMK_MSYS\tmp\ccs2W3Vd.ltrans0.ltrans.o
 .text.perform_space_cadet.isra.0
                0x080069a0       0xa4 C:\QMK_MSYS\tmp\ccs2W3Vd.ltrans0.ltrans.o
 .text.process_record
                0x08006a44      0x904 C:\QMK_MSYS\tmp\ccs2W3Vd.ltrans0.ltrans.o
 .text.waiting_buffer_scan_tap
                0x08007348       0x80 C:\QMK_MSYS\tmp\ccs2W3Vd.ltrans0.ltrans.o
 .text.process_tapping
                0x080073c8      0x1fc C:\QMK_MSYS\tmp\ccs2W3Vd.ltrans0.ltrans.o
 .text.action_exec
                0x080075c4       0xcc C:\QMK_MSYS\tmp\ccs2W3Vd.ltrans0.ltrans.o
 .text.generate_tick_event
                0x08007690       0x38 C:\QMK_MSYS\tmp\ccs2W3Vd.ltrans0.ltrans.o
 .text.tap_dance_pair_reset
                0x080076c8       0x22 C:\QMK_MSYS\tmp\ccs2W3Vd.ltrans0.ltrans.o
 *fill*         0x080076ea        0x2 
 .text.SVC_Handler
                0x080076ec       0x20 C:\QMK_MSYS\tmp\ccs2W3Vd.ltrans0.ltrans.o
                0x080076ec                SVC_Handler
 .text.i2cStart
                0x0800770c      0x188 C:\QMK_MSYS\tmp\ccs2W3Vd.ltrans0.ltrans.o
                0x0800770c                i2cStart
 .text.i2cStop  0x08007894       0x7c C:\QMK_MSYS\tmp\ccs2W3Vd.ltrans0.ltrans.o
                0x08007894                i2cStop
 .text.i2cMasterTransmitTimeout
                0x08007910      0x128 C:\QMK_MSYS\tmp\ccs2W3Vd.ltrans0.ltrans.o
                0x08007910                i2cMasterTransmitTimeout
 .text.VectorB0
                0x08007a38       0xd0 C:\QMK_MSYS\tmp\ccs2W3Vd.ltrans0.ltrans.o
                0x08007a38                VectorB0
 .text.Vector6C
                0x08007b08       0x28 C:\QMK_MSYS\tmp\ccs2W3Vd.ltrans0.ltrans.o
                0x08007b08                Vector6C
 .text.Vector70
                0x08007b30       0x2c C:\QMK_MSYS\tmp\ccs2W3Vd.ltrans0.ltrans.o
                0x08007b30                Vector70
 .text.Vector74
                0x08007b5c       0x2c C:\QMK_MSYS\tmp\ccs2W3Vd.ltrans0.ltrans.o
                0x08007b5c                Vector74
 .text.Vector78
                0x08007b88       0x2c C:\QMK_MSYS\tmp\ccs2W3Vd.ltrans0.ltrans.o
                0x08007b88                Vector78
 .text.Vector7C
                0x08007bb4       0x28 C:\QMK_MSYS\tmp\ccs2W3Vd.ltrans0.ltrans.o
                0x08007bb4                Vector7C
 .text.Vector80
                0x08007bdc       0x2c C:\QMK_MSYS\tmp\ccs2W3Vd.ltrans0.ltrans.o
                0x08007bdc                Vector80
 .text.Vector84
                0x08007c08       0x2c C:\QMK_MSYS\tmp\ccs2W3Vd.ltrans0.ltrans.o
                0x08007c08                Vector84
 .text.VectorFC
                0x08007c34       0x2c C:\QMK_MSYS\tmp\ccs2W3Vd.ltrans0.ltrans.o
                0x08007c34                VectorFC
 .text.Vector120
                0x08007c60       0x28 C:\QMK_MSYS\tmp\ccs2W3Vd.ltrans0.ltrans.o
                0x08007c60                Vector120
 .text.Vector124
                0x08007c88       0x2c C:\QMK_MSYS\tmp\ccs2W3Vd.ltrans0.ltrans.o
                0x08007c88                Vector124
 .text.Vector128
                0x08007cb4       0x2c C:\QMK_MSYS\tmp\ccs2W3Vd.ltrans0.ltrans.o
                0x08007cb4                Vector128
 .text.Vector12C
                0x08007ce0       0x2c C:\QMK_MSYS\tmp\ccs2W3Vd.ltrans0.ltrans.o
                0x08007ce0                Vector12C
 .text.Vector130
                0x08007d0c       0x28 C:\QMK_MSYS\tmp\ccs2W3Vd.ltrans0.ltrans.o
                0x08007d0c                Vector130
 .text.Vector150
                0x08007d34       0x2c C:\QMK_MSYS\tmp\ccs2W3Vd.ltrans0.ltrans.o
                0x08007d34                Vector150
 .text.Vector154
                0x08007d60       0x2c C:\QMK_MSYS\tmp\ccs2W3Vd.ltrans0.ltrans.o
                0x08007d60                Vector154
 .text.Vector158
                0x08007d8c       0x2c C:\QMK_MSYS\tmp\ccs2W3Vd.ltrans0.ltrans.o
                0x08007d8c                Vector158
 .text._pal_lld_setgroupmode
                0x08007db8       0xd6 C:\QMK_MSYS\tmp\ccs2W3Vd.ltrans0.ltrans.o
                0x08007db8                _pal_lld_setgroupmode
 .text.setPinInputHigh_atomic
                0x08007e8e       0x22 C:\QMK_MSYS\tmp\ccs2W3Vd.ltrans0.ltrans.o
 .text.init     0x08007eb0       0x1c C:\QMK_MSYS\tmp\ccs2W3Vd.ltrans0.ltrans.o
 .text.encoder_quadrature_init_pin
                0x08007ecc       0x24 C:\QMK_MSYS\tmp\ccs2W3Vd.ltrans0.ltrans.o
 .text.matrix_scan.isra.0
                0x08007ef0      0x288 C:\QMK_MSYS\tmp\ccs2W3Vd.ltrans0.ltrans.o
 .text.startup.main
                0x08008178      0xcf0 C:\QMK_MSYS\tmp\ccs2W3Vd.ltrans0.ltrans.o
                0x08008178                main
 .text.VectorBC
                0x08008e68      0x114 C:\QMK_MSYS\tmp\ccs2W3Vd.ltrans0.ltrans.o
                0x08008e68                VectorBC
 .text.VectorC0
                0x08008f7c       0xd0 C:\QMK_MSYS\tmp\ccs2W3Vd.ltrans0.ltrans.o
                0x08008f7c                VectorC0
 .text.Vector14C
                0x0800904c      0x450 C:\QMK_MSYS\tmp\ccs2W3Vd.ltrans0.ltrans.o
                0x0800904c                Vector14C
 .text._read_r  0x0800949c        0xa C:\QMK_MSYS\tmp\ccs2W3Vd.ltrans0.ltrans.o
                0x0800949c                _read_r
 .text._lseek_r
                0x080094a6        0x4 C:\QMK_MSYS\tmp\ccs2W3Vd.ltrans0.ltrans.o
                0x080094a6                _lseek_r
 .text._write_r
                0x080094aa        0x4 C:\QMK_MSYS\tmp\ccs2W3Vd.ltrans0.ltrans.o
                0x080094aa                _write_r
 .text._close_r
                0x080094ae        0x4 C:\QMK_MSYS\tmp\ccs2W3Vd.ltrans0.ltrans.o
                0x080094ae                _close_r
 *fill*         0x080094b2        0x2 
 .text._sbrk_r  0x080094b4       0x3c C:\QMK_MSYS\tmp\ccs2W3Vd.ltrans0.ltrans.o
                0x080094b4                _sbrk_r
 .text._fstat_r
                0x080094f0       0x18 C:\QMK_MSYS\tmp\ccs2W3Vd.ltrans0.ltrans.o
                0x080094f0                _fstat_r
 .text._isatty_r
                0x08009508        0x4 C:\QMK_MSYS\tmp\ccs2W3Vd.ltrans0.ltrans.o
                0x08009508                _isatty_r
 .text._exit    0x0800950c       0x14 C:\QMK_MSYS\tmp\ccs2W3Vd.ltrans0.ltrans.o
                0x0800950c                _exit
 .text._kill    0x08009520       0x14 C:\QMK_MSYS\tmp\ccs2W3Vd.ltrans0.ltrans.o
                0x08009520                _kill
 .text._getpid  0x08009534        0x4 C:\QMK_MSYS\tmp\ccs2W3Vd.ltrans0.ltrans.o
                0x08009534                _getpid
 .text._fini    0x08009538        0x2 C:\QMK_MSYS\tmp\ccs2W3Vd.ltrans0.ltrans.o
                0x08009538                _fini
 *fill*         0x0800953a        0x2 
 .text.i2c_epilogue
                0x0800953c       0x20 .build/obj_vessel_base/i2c_master.a(i2c_master.o)
 .text.i2c_init
                0x0800955c       0x50 .build/obj_vessel_base/i2c_master.a(i2c_master.o)
                0x0800955c                i2c_init
 .text.i2c_transmit
                0x080095ac       0x68 .build/obj_vessel_base/i2c_master.a(i2c_master.o)
                0x080095ac                i2c_transmit
 .text.i2c_write_register
                0x08009614       0x98 .build/obj_vessel_base/i2c_master.a(i2c_master.o)
                0x08009614                i2c_write_register
 .text.__udivmoddi4
                0x080096ac      0x2a0 C:/QMK_MSYS/mingw64/bin/../lib/gcc/arm-none-eabi/13.3.0/thumb/v7e-m+fp/hard\libgcc.a(_udivmoddi4.o)
                0x080096ac                __udivmoddi4
 *(.glue_7t)
 .glue_7t       0x0800994c        0x0 linker stubs
 *(.glue_7)
 .glue_7        0x0800994c        0x0 linker stubs
 *(.gcc*)
                0x0800994c                        __text_end__ = .

.vfp11_veneer   0x0800994c        0x0
 .vfp11_veneer  0x0800994c        0x0 linker stubs

.v4_bx          0x0800994c        0x0
 .v4_bx         0x0800994c        0x0 linker stubs

.iplt           0x0800994c        0x0
 .iplt          0x0800994c        0x0 .build/obj_vessel_base/i2c_master.a(i2c_master.o)

.rodata         0x0800994c     0x59c8
                0x0800994c                        __rodata_base__ = .
 *(.rodata)
 *(.rodata.*)
 .rodata.i2c_lld_serve_tx_end_irq.str1.1
                0x0800994c       0x19 C:\QMK_MSYS\tmp\ccs2W3Vd.ltrans0.ltrans.o
                                  0xc (size before relaxing)
 .rodata._exit.str1.1
                0x08009965        0x5 C:\QMK_MSYS\tmp\ccs2W3Vd.ltrans0.ltrans.o
 .rodata._kill.str1.1
                0x08009965        0x5 C:\QMK_MSYS\tmp\ccs2W3Vd.ltrans0.ltrans.o
 .rodata.epd_bitmap_frame_18_delay_0.21
                0x08009965      0x400 C:\QMK_MSYS\tmp\ccs2W3Vd.ltrans0.ltrans.o
 .rodata.epd_bitmap_frame_17_delay_0.20
                0x08009d65      0x400 C:\QMK_MSYS\tmp\ccs2W3Vd.ltrans0.ltrans.o
 .rodata.epd_bitmap_frame_16_delay_0.19
                0x0800a165      0x400 C:\QMK_MSYS\tmp\ccs2W3Vd.ltrans0.ltrans.o
 .rodata.epd_bitmap_frame_15_delay_0.18
                0x0800a565      0x400 C:\QMK_MSYS\tmp\ccs2W3Vd.ltrans0.ltrans.o
 .rodata.epd_bitmap_frame_14_delay_0.17
                0x0800a965      0x400 C:\QMK_MSYS\tmp\ccs2W3Vd.ltrans0.ltrans.o
 .rodata.epd_bitmap_frame_13_delay_0.16
                0x0800ad65      0x400 C:\QMK_MSYS\tmp\ccs2W3Vd.ltrans0.ltrans.o
 .rodata.epd_bitmap_frame_12_delay_0.15
                0x0800b165      0x400 C:\QMK_MSYS\tmp\ccs2W3Vd.ltrans0.ltrans.o
 .rodata.epd_bitmap_frame_11_delay_0.14
                0x0800b565      0x400 C:\QMK_MSYS\tmp\ccs2W3Vd.ltrans0.ltrans.o
 .rodata.epd_bitmap_frame_10_delay_0.13
                0x0800b965      0x400 C:\QMK_MSYS\tmp\ccs2W3Vd.ltrans0.ltrans.o
 .rodata.epd_bitmap_frame_9_delay_0.12
                0x0800bd65      0x400 C:\QMK_MSYS\tmp\ccs2W3Vd.ltrans0.ltrans.o
 .rodata.epd_bitmap_frame_8_delay_0.11
                0x0800c165      0x400 C:\QMK_MSYS\tmp\ccs2W3Vd.ltrans0.ltrans.o
 .rodata.epd_bitmap_frame_7_delay_0.10
                0x0800c565      0x400 C:\QMK_MSYS\tmp\ccs2W3Vd.ltrans0.ltrans.o
 .rodata.epd_bitmap_frame_6_delay_0.9
                0x0800c965      0x400 C:\QMK_MSYS\tmp\ccs2W3Vd.ltrans0.ltrans.o
 .rodata.epd_bitmap_frame_5_delay_0.8
                0x0800cd65      0x400 C:\QMK_MSYS\tmp\ccs2W3Vd.ltrans0.ltrans.o
 .rodata.epd_bitmap_frame_4_delay_0.7
                0x0800d165      0x400 C:\QMK_MSYS\tmp\ccs2W3Vd.ltrans0.ltrans.o
 .rodata.epd_bitmap_frame_3_delay_0.6
                0x0800d565      0x400 C:\QMK_MSYS\tmp\ccs2W3Vd.ltrans0.ltrans.o
 .rodata.epd_bitmap_frame_2_delay_0.5
                0x0800d965      0x400 C:\QMK_MSYS\tmp\ccs2W3Vd.ltrans0.ltrans.o
 .rodata.epd_bitmap_frame_1_delay_0.4
                0x0800dd65      0x400 C:\QMK_MSYS\tmp\ccs2W3Vd.ltrans0.ltrans.o
 .rodata.epd_bitmap_frame_0_delay_0.3
                0x0800e165      0x400 C:\QMK_MSYS\tmp\ccs2W3Vd.ltrans0.ltrans.o
 .rodata.ProductString
                0x0800e565       0x14 C:\QMK_MSYS\tmp\ccs2W3Vd.ltrans0.ltrans.o
 .rodata.ManufacturerString
                0x0800e579       0x24 C:\QMK_MSYS\tmp\ccs2W3Vd.ltrans0.ltrans.o
 .rodata.LanguageString
                0x0800e59d        0x4 C:\QMK_MSYS\tmp\ccs2W3Vd.ltrans0.ltrans.o
 *fill*         0x0800e5a1        0x1 
 .rodata.frame_sizes.22
                0x0800e5a2       0x26 C:\QMK_MSYS\tmp\ccs2W3Vd.ltrans0.ltrans.o
 .rodata.epd_bitmap_allArray.23
                0x0800e5c8       0x4c C:\QMK_MSYS\tmp\ccs2W3Vd.ltrans0.ltrans.o
 .rodata.display_on.5
                0x0800e614        0x2 C:\QMK_MSYS\tmp\ccs2W3Vd.ltrans0.ltrans.o
 .rodata.display_off.4
                0x0800e616        0x2 C:\QMK_MSYS\tmp\ccs2W3Vd.ltrans0.ltrans.o
 .rodata.display_setup2.11
                0x0800e618        0xd C:\QMK_MSYS\tmp\ccs2W3Vd.ltrans0.ltrans.o
 .rodata.display_flipped.12
                0x0800e625        0x5 C:\QMK_MSYS\tmp\ccs2W3Vd.ltrans0.ltrans.o
 .rodata.display_normal.13
                0x0800e62a        0x5 C:\QMK_MSYS\tmp\ccs2W3Vd.ltrans0.ltrans.o
 .rodata.display_setup1.14
                0x0800e62f        0xb C:\QMK_MSYS\tmp\ccs2W3Vd.ltrans0.ltrans.o
 *fill*         0x0800e63a        0x2 
 .rodata.ep0config
                0x0800e63c       0x24 C:\QMK_MSYS\tmp\ccs2W3Vd.ltrans0.ltrans.o
 .rodata.active_status
                0x0800e660        0x2 C:\QMK_MSYS\tmp\ccs2W3Vd.ltrans0.ltrans.o
 .rodata.halted_status
                0x0800e662        0x2 C:\QMK_MSYS\tmp\ccs2W3Vd.ltrans0.ltrans.o
 .rodata.zero_status
                0x0800e664        0x2 C:\QMK_MSYS\tmp\ccs2W3Vd.ltrans0.ltrans.o
 *fill*         0x0800e666        0x2 
 .rodata.ram_areas
                0x0800e668       0x80 C:\QMK_MSYS\tmp\ccs2W3Vd.ltrans0.ltrans.o
 .rodata.gpio_default_config
                0x0800e6e8       0xe0 C:\QMK_MSYS\tmp\ccs2W3Vd.ltrans0.ltrans.o
 .rodata.usb_endpoint_interface_lut
                0x0800e7c8        0x2 C:\QMK_MSYS\tmp\ccs2W3Vd.ltrans0.ltrans.o
 .rodata.SharedReport
                0x0800e7ca       0x8b C:\QMK_MSYS\tmp\ccs2W3Vd.ltrans0.ltrans.o
 .rodata.KeyboardReport
                0x0800e855       0x44 C:\QMK_MSYS\tmp\ccs2W3Vd.ltrans0.ltrans.o
 .rodata.ConfigurationDescriptor
                0x0800e899       0x3b C:\QMK_MSYS\tmp\ccs2W3Vd.ltrans0.ltrans.o
 .rodata.DeviceDescriptor
                0x0800e8d4       0x12 C:\QMK_MSYS\tmp\ccs2W3Vd.ltrans0.ltrans.o
 .rodata.CSWTCH.2
                0x0800e8e6        0x3 C:\QMK_MSYS\tmp\ccs2W3Vd.ltrans0.ltrans.o
 *fill*         0x0800e8e9        0x3 
 .rodata.CSWTCH.1
                0x0800e8ec        0xc C:\QMK_MSYS\tmp\ccs2W3Vd.ltrans0.ltrans.o
 .rodata.caps_active.1
                0x0800e8f8      0x400 C:\QMK_MSYS\tmp\ccs2W3Vd.ltrans0.ltrans.o
 .rodata.target_map.7
                0x0800ecf8        0x8 C:\QMK_MSYS\tmp\ccs2W3Vd.ltrans0.ltrans.o
 .rodata.source_map.8
                0x0800ed00        0x8 C:\QMK_MSYS\tmp\ccs2W3Vd.ltrans0.ltrans.o
 .rodata.b_m16_interleave
                0x0800ed08        0x8 C:\QMK_MSYS\tmp\ccs2W3Vd.ltrans0.ltrans.o
 .rodata.CIE1931_CURVE
                0x0800ed10      0x100 C:\QMK_MSYS\tmp\ccs2W3Vd.ltrans0.ltrans.o
 .rodata._stm32_dma_streams
                0x0800ee10       0xc0 C:\QMK_MSYS\tmp\ccs2W3Vd.ltrans0.ltrans.o
 .rodata.fsparams
                0x0800eed0        0xc C:\QMK_MSYS\tmp\ccs2W3Vd.ltrans0.ltrans.o
 .rodata.str1.1
                0x0800eedc        0x3 C:\QMK_MSYS\tmp\ccs2W3Vd.ltrans0.ltrans.o
 .rodata.ch_core0_cfg
                0x0800eedc        0xc C:\QMK_MSYS\tmp\ccs2W3Vd.ltrans0.ltrans.o
 .rodata.usbcfg
                0x0800eee8       0x10 C:\QMK_MSYS\tmp\ccs2W3Vd.ltrans0.ltrans.o
 .rodata.row_pins
                0x0800eef8       0x1c C:\QMK_MSYS\tmp\ccs2W3Vd.ltrans0.ltrans.o
 .rodata.col_pins
                0x0800ef14       0x44 C:\QMK_MSYS\tmp\ccs2W3Vd.ltrans0.ltrans.o
 .rodata.g_led_config
                0x0800ef58      0x1a9 C:\QMK_MSYS\tmp\ccs2W3Vd.ltrans0.ltrans.o
 .rodata.encoder_LUT
                0x0800f101       0x10 C:\QMK_MSYS\tmp\ccs2W3Vd.ltrans0.ltrans.o
 *fill*         0x0800f111        0x1 
 .rodata.keymaps
                0x0800f112       0xee C:\QMK_MSYS\tmp\ccs2W3Vd.ltrans0.ltrans.o
 .rodata.CSWTCH.10
                0x0800f200       0x36 C:\QMK_MSYS\tmp\ccs2W3Vd.ltrans0.ltrans.o
 *fill*         0x0800f236        0x2 
 .rodata.i2cconfig
                0x0800f238        0xc .build/obj_vessel_base/i2c_master.a(i2c_master.o)
 .rodata.str1.4
                0x0800f244       0xcd C:/QMK_MSYS/mingw64/bin/../lib/gcc/arm-none-eabi/13.3.0/../../../../arm-none-eabi/lib/thumb/v7e-m+fp/hard\libg_nano.a(libc_a-rand.o)
                                 0x53 (size before relaxing)
 .rodata.str1.4
                0x0800f311       0x43 C:/QMK_MSYS/mingw64/bin/../lib/gcc/arm-none-eabi/13.3.0/../../../../arm-none-eabi/lib/thumb/v7e-m+fp/hard\libg_nano.a(libc_a-assert.o)
 .rodata.str1.4
                0x0800f311       0x13 C:/QMK_MSYS/mingw64/bin/../lib/gcc/arm-none-eabi/13.3.0/../../../../arm-none-eabi/lib/thumb/v7e-m+fp/hard\libg_nano.a(libc_a-nano-vfprintf.o)
 .rodata.str1.4
                0x0800f311       0x25 C:/QMK_MSYS/mingw64/bin/../lib/gcc/arm-none-eabi/13.3.0/../../../../arm-none-eabi/lib/thumb/v7e-m+fp/hard\libg_nano.a(libc_a-nano-vfprintf_i.o)
                0x0800f354                        . = ALIGN (0x4)
 *fill*         0x0800f311        0x3 
                0x0800f314                        __rodata_end__ = .

.ARM.extab
 *(.ARM.extab* .gnu.linkonce.armextab.*)

.ARM.exidx      0x0800f314        0x8
                0x0800f314                        __exidx_base__ = .
                0x0800f314                        __exidx_start = .
 *(.ARM.exidx* .gnu.linkonce.armexidx.*)
 .ARM.exidx     0x0800f314        0x8 C:/QMK_MSYS/mingw64/bin/../lib/gcc/arm-none-eabi/13.3.0/../../../../arm-none-eabi/lib/thumb/v7e-m+fp/hard\libg_nano.a(libc_a-memchr.o)
 .ARM.exidx     0x0800f31c        0x0 C:/QMK_MSYS/mingw64/bin/../lib/gcc/arm-none-eabi/13.3.0/../../../../arm-none-eabi/lib/thumb/v7e-m+fp/hard\libg_nano.a(libc_a-memcpy.o)
                                  0x8 (size before relaxing)
 .ARM.exidx.text.__udivmoddi4
                0x0800f31c        0x0 C:/QMK_MSYS/mingw64/bin/../lib/gcc/arm-none-eabi/13.3.0/thumb/v7e-m+fp/hard\libgcc.a(_udivmoddi4.o)
                                  0x8 (size before relaxing)
                0x0800f31c                        __exidx_end__ = .
                0x0800f31c                        __exidx_end = .

.rel.dyn        0x0800f31c        0x0
 .rel.iplt      0x0800f31c        0x0 .build/obj_vessel_base/i2c_master.a(i2c_master.o)

.eh_frame_hdr
 *(.eh_frame_hdr)

.eh_frame
 *(.eh_frame)

.data           0x20000c00      0x3f8 load address 0x0800f31c
                [!provide]                        PROVIDE (_textdata = LOADADDR (.data))
                [!provide]                        PROVIDE (_data = .)
                0x0800f31c                        __textdata_base__ = LOADADDR (.data)
                0x20000c00                        __data_base__ = .
 *(.data)
 .data          0x20000c00       0x50 C:/QMK_MSYS/mingw64/bin/../lib/gcc/arm-none-eabi/13.3.0/../../../../arm-none-eabi/lib/thumb/v7e-m+fp/hard\libg_nano.a(libc_a-impure.o)
                0x20000c00                _impure_ptr
                0x20000c04                _impure_data
 .data          0x20000c50        0xc C:/QMK_MSYS/mingw64/bin/../lib/gcc/arm-none-eabi/13.3.0/../../../../arm-none-eabi/lib/thumb/v7e-m+fp/hard\libg_nano.a(libc_a-findfp.o)
                0x20000c50                __sglue
 *(.data.*)
 .data.__compound_literal.7
                0x20000c5c       0x4c C:\QMK_MSYS\tmp\ccs2W3Vd.ltrans0.ltrans.o
 .data.__compound_literal.3
                0x20000ca8       0x4c C:\QMK_MSYS\tmp\ccs2W3Vd.ltrans0.ltrans.o
 .data.__compound_literal.2
                0x20000cf4       0x4c C:\QMK_MSYS\tmp\ccs2W3Vd.ltrans0.ltrans.o
 .data.__compound_literal.1.lto_priv.1
                0x20000d40       0x4c C:\QMK_MSYS\tmp\ccs2W3Vd.ltrans0.ltrans.o
 .data.__compound_literal.0.lto_priv.1
                0x20000d8c       0x4c C:\QMK_MSYS\tmp\ccs2W3Vd.ltrans0.ltrans.o
 .data.__compound_literal.8
                0x20000dd8        0x4 C:\QMK_MSYS\tmp\ccs2W3Vd.ltrans0.ltrans.o
 .data.__compound_literal.4
                0x20000ddc       0x24 C:\QMK_MSYS\tmp\ccs2W3Vd.ltrans0.ltrans.o
 .data.__compound_literal.9
                0x20000e00       0x1c C:\QMK_MSYS\tmp\ccs2W3Vd.ltrans0.ltrans.o
 .data.__compound_literal.5
                0x20000e1c       0x1c C:\QMK_MSYS\tmp\ccs2W3Vd.ltrans0.ltrans.o
 .data.__compound_literal.21
                0x20000e38        0x4 C:\QMK_MSYS\tmp\ccs2W3Vd.ltrans0.ltrans.o
 .data.__compound_literal.20
                0x20000e3c        0x4 C:\QMK_MSYS\tmp\ccs2W3Vd.ltrans0.ltrans.o
 .data.display_start.10
                0x20000e40        0x7 C:\QMK_MSYS\tmp\ccs2W3Vd.ltrans0.ltrans.o
 .data.rgb_effect_params
                0x20000e47        0x3 C:\QMK_MSYS\tmp\ccs2W3Vd.ltrans0.ltrans.o
 .data.rgb_last_enable
                0x20000e4a        0x1 C:\QMK_MSYS\tmp\ccs2W3Vd.ltrans0.ltrans.o
 .data.rgb_last_effect
                0x20000e4b        0x1 C:\QMK_MSYS\tmp\ccs2W3Vd.ltrans0.ltrans.o
 .data.rand16seed
                0x20000e4c        0x2 C:\QMK_MSYS\tmp\ccs2W3Vd.ltrans0.ltrans.o
 *fill*         0x20000e4e        0x2 
 .data.func     0x20000e50        0x4 C:\QMK_MSYS\tmp\ccs2W3Vd.ltrans0.ltrans.o
 .data.chibios_driver
                0x20000e54       0x14 C:\QMK_MSYS\tmp\ccs2W3Vd.ltrans0.ltrans.o
 .data.usb_endpoints_in
                0x20000e68      0x150 C:\QMK_MSYS\tmp\ccs2W3Vd.ltrans0.ltrans.o
 .data.keyboard_protocol
                0x20000fb8        0x1 C:\QMK_MSYS\tmp\ccs2W3Vd.ltrans0.ltrans.o
 .data.animation_enabled
                0x20000fb9        0x1 C:\QMK_MSYS\tmp\ccs2W3Vd.ltrans0.ltrans.o
 *fill*         0x20000fba        0x2 
 .data.tap_dance_actions
                0x20000fbc       0x38 C:\QMK_MSYS\tmp\ccs2W3Vd.ltrans0.ltrans.o
 .data.rgb_task_state
                0x20000ff4        0x1 C:\QMK_MSYS\tmp\ccs2W3Vd.ltrans0.ltrans.o
 *(.ramtext)
                0x20000ff8                        . = ALIGN (0x4)
 *fill*         0x20000ff5        0x3 
                [!provide]                        PROVIDE (_edata = .)
                0x20000ff8                        __data_end__ = .

.igot.plt       0x20000ff8        0x0 load address 0x0800f714
 .igot.plt      0x20000ff8        0x0 .build/obj_vessel_base/i2c_master.a(i2c_master.o)

.bss            0x20000ff8    0x10f40 load address 0x0800f714
                0x20000ff8                        __bss_base__ = .
 *(.bss)
 .bss           0x20000ff8        0x8 C:/QMK_MSYS/mingw64/bin/../lib/gcc/arm-none-eabi/13.3.0/../../../../arm-none-eabi/lib/thumb/v7e-m+fp/hard\libg_nano.a(libc_a-mallocr.o)
                0x20000ff8                __malloc_sbrk_start
                0x20000ffc                __malloc_free_list
 .bss           0x20001000       0x1d C:/QMK_MSYS/mingw64/bin/../lib/gcc/arm-none-eabi/13.3.0/../../../../arm-none-eabi/lib/thumb/v7e-m+fp/hard\libg_nano.a(libc_a-lock.o)
                0x20001000                __lock___arc4random_mutex
                0x20001004                __lock___dd_hash_mutex
                0x20001008                __lock___tz_mutex
                0x2000100c                __lock___env_recursive_mutex
                0x20001010                __lock___malloc_recursive_mutex
                0x20001014                __lock___at_quick_exit_mutex
                0x20001018                __lock___atexit_recursive_mutex
                0x2000101c                __lock___sfp_recursive_mutex
 *fill*         0x2000101d        0x3 
 .bss           0x20001020      0x13c C:/QMK_MSYS/mingw64/bin/../lib/gcc/arm-none-eabi/13.3.0/../../../../arm-none-eabi/lib/thumb/v7e-m+fp/hard\libg_nano.a(libc_a-findfp.o)
                0x20001020                __sf
                0x20001158                __stdio_exit_handler
 .bss           0x2000115c        0x4 C:/QMK_MSYS/mingw64/bin/../lib/gcc/arm-none-eabi/13.3.0/../../../../arm-none-eabi/lib/thumb/v7e-m+fp/hard\libg_nano.a(libc_a-reent.o)
                0x2000115c                errno
 *(.bss.*)
 .bss.ep0setup_buffer
                0x20001160        0x8 C:\QMK_MSYS\tmp\ccs2W3Vd.ltrans0.ltrans.o
 .bss.ep0_state
                0x20001168       0x14 C:\QMK_MSYS\tmp\ccs2W3Vd.ltrans0.ltrans.o
 *fill*         0x2000117c        0x4 
 .bss.ch_c0_idle_thread_wa
                0x20001180      0x1e0 C:\QMK_MSYS\tmp\ccs2W3Vd.ltrans0.ltrans.o
 .bss.__compound_literal.10
                0x20001360       0x30 C:\QMK_MSYS\tmp\ccs2W3Vd.ltrans0.ltrans.o
 .bss.__compound_literal.6
                0x20001390       0x90 C:\QMK_MSYS\tmp\ccs2W3Vd.ltrans0.ltrans.o
 .bss.__compound_literal.1.lto_priv.0
                0x20001420       0x20 C:\QMK_MSYS\tmp\ccs2W3Vd.ltrans0.ltrans.o
 .bss.__compound_literal.0.lto_priv.0
                0x20001440        0x8 C:\QMK_MSYS\tmp\ccs2W3Vd.ltrans0.ltrans.o
 .bss.timer     0x20001448        0x4 C:\QMK_MSYS\tmp\ccs2W3Vd.ltrans0.ltrans.o
 .bss.encoder_button_state.0
                0x2000144c        0x1 C:\QMK_MSYS\tmp\ccs2W3Vd.ltrans0.ltrans.o
 .bss.matrix_need_update
                0x2000144d        0x1 C:\QMK_MSYS\tmp\ccs2W3Vd.ltrans0.ltrans.o
 *fill*         0x2000144e        0x2 
 .bss.last_time
                0x20001450        0x4 C:\QMK_MSYS\tmp\ccs2W3Vd.ltrans0.ltrans.o
 .bss.counters_need_update
                0x20001454        0x1 C:\QMK_MSYS\tmp\ccs2W3Vd.ltrans0.ltrans.o
 .bss.cooked_changed
                0x20001455        0x1 C:\QMK_MSYS\tmp\ccs2W3Vd.ltrans0.ltrans.o
 .bss.sc_timer  0x20001456        0x2 C:\QMK_MSYS\tmp\ccs2W3Vd.ltrans0.ltrans.o
 .bss.report.2  0x20001458       0x4c C:\QMK_MSYS\tmp\ccs2W3Vd.ltrans0.ltrans.o
 .bss.idle_rate.0
                0x200014a4        0x1 C:\QMK_MSYS\tmp\ccs2W3Vd.ltrans0.ltrans.o
 .bss.keyboard_led_state
                0x200014a5        0x1 C:\QMK_MSYS\tmp\ccs2W3Vd.ltrans0.ltrans.o
 *fill*         0x200014a6        0x2 
 .bss.set_report_buf
                0x200014a8        0x2 C:\QMK_MSYS\tmp\ccs2W3Vd.ltrans0.ltrans.o
 *fill*         0x200014aa        0x2 
 .bss.descriptor.0
                0x200014ac        0x8 C:\QMK_MSYS\tmp\ccs2W3Vd.ltrans0.ltrans.o
 .bss.last_consumer_usage
                0x200014b4        0x2 C:\QMK_MSYS\tmp\ccs2W3Vd.ltrans0.ltrans.o
 .bss.last_system_usage
                0x200014b6        0x2 C:\QMK_MSYS\tmp\ccs2W3Vd.ltrans0.ltrans.o
 .bss.oled_rotation_width
                0x200014b8        0x1 C:\QMK_MSYS\tmp\ccs2W3Vd.ltrans0.ltrans.o
 .bss.caps_lock_was_on.2
                0x200014b9        0x1 C:\QMK_MSYS\tmp\ccs2W3Vd.ltrans0.ltrans.o
 .bss.temp_buffer.9
                0x200014ba       0x40 C:\QMK_MSYS\tmp\ccs2W3Vd.ltrans0.ltrans.o
 .bss.oled_rotation
                0x200014fa        0x1 C:\QMK_MSYS\tmp\ccs2W3Vd.ltrans0.ltrans.o
 .bss.oled_scrolling
                0x200014fb        0x1 C:\QMK_MSYS\tmp\ccs2W3Vd.ltrans0.ltrans.o
 .bss.oled_timeout
                0x200014fc        0x4 C:\QMK_MSYS\tmp\ccs2W3Vd.ltrans0.ltrans.o
 .bss.oled_initialized
                0x20001500        0x1 C:\QMK_MSYS\tmp\ccs2W3Vd.ltrans0.ltrans.o
 *fill*         0x20001501        0x1 
 .bss.oled_dirty
                0x20001502        0x2 C:\QMK_MSYS\tmp\ccs2W3Vd.ltrans0.ltrans.o
 .bss.oled_cursor
                0x20001504        0x4 C:\QMK_MSYS\tmp\ccs2W3Vd.ltrans0.ltrans.o
 .bss.oled_buffer
                0x20001508      0x400 C:\QMK_MSYS\tmp\ccs2W3Vd.ltrans0.ltrans.o
 .bss.rgb_matrix_ws2812_array
                0x20001908      0x132 C:\QMK_MSYS\tmp\ccs2W3Vd.ltrans0.ltrans.o
 .bss.ws2812_dirty
                0x20001a3a        0x1 C:\QMK_MSYS\tmp\ccs2W3Vd.ltrans0.ltrans.o
 *fill*         0x20001a3b        0x1 
 .bss.rgb_timer_buffer
                0x20001a3c        0x4 C:\QMK_MSYS\tmp\ccs2W3Vd.ltrans0.ltrans.o
 .bss.led.1     0x20001a40      0x132 C:\QMK_MSYS\tmp\ccs2W3Vd.ltrans0.ltrans.o
 *fill*         0x20001b72        0x2 
 .bss.wait_timer.2
                0x20001b74        0x4 C:\QMK_MSYS\tmp\ccs2W3Vd.ltrans0.ltrans.o
 .bss.g_rgb_timer
                0x20001b78        0x4 C:\QMK_MSYS\tmp\ccs2W3Vd.ltrans0.ltrans.o
 .bss.transientBuffer
                0x20001b7c     0xffff C:\QMK_MSYS\tmp\ccs2W3Vd.ltrans0.ltrans.o
 *fill*         0x20011b7b        0x1 
 .bss.dma       0x20011b7c       0x84 C:\QMK_MSYS\tmp\ccs2W3Vd.ltrans0.ltrans.o
 .bss.ch_memcore
                0x20011c00        0x8 C:\QMK_MSYS\tmp\ccs2W3Vd.ltrans0.ltrans.o
 .bss.ch0       0x20011c08       0x60 C:\QMK_MSYS\tmp\ccs2W3Vd.ltrans0.ltrans.o
 .bss.ms_offset
                0x20011c68        0x4 C:\QMK_MSYS\tmp\ccs2W3Vd.ltrans0.ltrans.o
 .bss.last_ticks
                0x20011c6c        0x4 C:\QMK_MSYS\tmp\ccs2W3Vd.ltrans0.ltrans.o
 .bss.ticks_offset
                0x20011c70        0x4 C:\QMK_MSYS\tmp\ccs2W3Vd.ltrans0.ltrans.o
 .bss.debounce_counters
                0x20011c74        0x4 C:\QMK_MSYS\tmp\ccs2W3Vd.ltrans0.ltrans.o
 .bss.raw_matrix
                0x20011c78       0x1c C:\QMK_MSYS\tmp\ccs2W3Vd.ltrans0.ltrans.o
 .bss.dirty_rgb_matrix
                0x20011c94        0x1 C:\QMK_MSYS\tmp\ccs2W3Vd.ltrans0.ltrans.o
 .bss.g_last_hit_tracker
                0x20011c95       0x29 C:\QMK_MSYS\tmp\ccs2W3Vd.ltrans0.ltrans.o
 .bss.current_frame
                0x20011cbe        0x1 C:\QMK_MSYS\tmp\ccs2W3Vd.ltrans0.ltrans.o
 *fill*         0x20011cbf        0x1 
 .bss.driver.lto_priv.1
                0x20011cc0        0x4 C:\QMK_MSYS\tmp\ccs2W3Vd.ltrans0.ltrans.o
 .bss.event_queue
                0x20011cc4       0x10 C:\QMK_MSYS\tmp\ccs2W3Vd.ltrans0.ltrans.o
 .bss.event_queue_tail
                0x20011cd4        0x1 C:\QMK_MSYS\tmp\ccs2W3Vd.ltrans0.ltrans.o
 .bss.event_queue_head
                0x20011cd5        0x1 C:\QMK_MSYS\tmp\ccs2W3Vd.ltrans0.ltrans.o
 .bss.last_suspend_state
                0x20011cd6        0x1 C:\QMK_MSYS\tmp\ccs2W3Vd.ltrans0.ltrans.o
 *fill*         0x20011cd7        0x1 
 .bss.USBD1     0x20011cd8       0x78 C:\QMK_MSYS\tmp\ccs2W3Vd.ltrans0.ltrans.o
 .bss.matrix    0x20011d50       0x1c C:\QMK_MSYS\tmp\ccs2W3Vd.ltrans0.ltrans.o
 .bss.last_hit_buffer
                0x20011d6c       0x29 C:\QMK_MSYS\tmp\ccs2W3Vd.ltrans0.ltrans.o
 .bss.debug_config
                0x20011d95        0x1 C:\QMK_MSYS\tmp\ccs2W3Vd.ltrans0.ltrans.o
 *fill*         0x20011d96        0x2 
 .bss.matrix_previous.1
                0x20011d98       0x1c C:\QMK_MSYS\tmp\ccs2W3Vd.ltrans0.ltrans.o
 .bss.encoder_pulses
                0x20011db4        0x1 C:\QMK_MSYS\tmp\ccs2W3Vd.ltrans0.ltrans.o
 .bss.encoder_state
                0x20011db5        0x1 C:\QMK_MSYS\tmp\ccs2W3Vd.ltrans0.ltrans.o
 .bss.thisCount
                0x20011db6        0x1 C:\QMK_MSYS\tmp\ccs2W3Vd.ltrans0.ltrans.o
 .bss.encoder_events
                0x20011db7        0x8 C:\QMK_MSYS\tmp\ccs2W3Vd.ltrans0.ltrans.o
 .bss.signal_queue_drain
                0x20011dbf        0x1 C:\QMK_MSYS\tmp\ccs2W3Vd.ltrans0.ltrans.o
 .bss.last_led_status.0
                0x20011dc0        0x1 C:\QMK_MSYS\tmp\ccs2W3Vd.ltrans0.ltrans.o
 *fill*         0x20011dc1        0x3 
 .bss.report.1  0x20011dc4       0x4c C:\QMK_MSYS\tmp\ccs2W3Vd.ltrans0.ltrans.o
 .bss.run_idle_task
                0x20011e10        0x1 C:\QMK_MSYS\tmp\ccs2W3Vd.ltrans0.ltrans.o
 *fill*         0x20011e11        0x1 
 .bss.last_tick.0
                0x20011e12        0x2 C:\QMK_MSYS\tmp\ccs2W3Vd.ltrans0.ltrans.o
 .bss.last_report.0
                0x20011e14       0x20 C:\QMK_MSYS\tmp\ccs2W3Vd.ltrans0.ltrans.o
 .bss.driver.lto_priv.0
                0x20011e34        0x4 C:\QMK_MSYS\tmp\ccs2W3Vd.ltrans0.ltrans.o
 .bss.last_report.1
                0x20011e38        0x8 C:\QMK_MSYS\tmp\ccs2W3Vd.ltrans0.ltrans.o
 .bss.encoder_source_layers_cache
                0x20011e40        0x4 C:\QMK_MSYS\tmp\ccs2W3Vd.ltrans0.ltrans.o
 .bss.source_layers_cache
                0x20011e44       0x3c C:\QMK_MSYS\tmp\ccs2W3Vd.ltrans0.ltrans.o
 .bss.oled_active
                0x20011e80        0x1 C:\QMK_MSYS\tmp\ccs2W3Vd.ltrans0.ltrans.o
 *fill*         0x20011e81        0x3 
 .bss.keyboard_idle_timer
                0x20011e84        0x4 C:\QMK_MSYS\tmp\ccs2W3Vd.ltrans0.ltrans.o
 .bss.anim_off_timer
                0x20011e88        0x4 C:\QMK_MSYS\tmp\ccs2W3Vd.ltrans0.ltrans.o
 .bss.anim_timer
                0x20011e8c        0x4 C:\QMK_MSYS\tmp\ccs2W3Vd.ltrans0.ltrans.o
 .bss.active_td
                0x20011e90        0x2 C:\QMK_MSYS\tmp\ccs2W3Vd.ltrans0.ltrans.o
 .bss.last_tap_time
                0x20011e92        0x2 C:\QMK_MSYS\tmp\ccs2W3Vd.ltrans0.ltrans.o
 .bss.sc_last   0x20011e94        0x1 C:\QMK_MSYS\tmp\ccs2W3Vd.ltrans0.ltrans.o
 *fill*         0x20011e95        0x1 
 .bss.keymap_config
                0x20011e96        0x2 C:\QMK_MSYS\tmp\ccs2W3Vd.ltrans0.ltrans.o
 .bss.grave_esc_was_shifted
                0x20011e98        0x1 C:\QMK_MSYS\tmp\ccs2W3Vd.ltrans0.ltrans.o
 *fill*         0x20011e99        0x7 
 .bss.rgb_matrix_config
                0x20011ea0        0x8 C:\QMK_MSYS\tmp\ccs2W3Vd.ltrans0.ltrans.o
 .bss.programmable_button_report
                0x20011ea8        0x4 C:\QMK_MSYS\tmp\ccs2W3Vd.ltrans0.ltrans.o
 .bss.real_mods
                0x20011eac        0x1 C:\QMK_MSYS\tmp\ccs2W3Vd.ltrans0.ltrans.o
 *fill*         0x20011ead        0x1 
 .bss.default_layer_state
                0x20011eae        0x2 C:\QMK_MSYS\tmp\ccs2W3Vd.ltrans0.ltrans.o
 .bss.layer_state
                0x20011eb0        0x2 C:\QMK_MSYS\tmp\ccs2W3Vd.ltrans0.ltrans.o
 .bss.weak_mods
                0x20011eb2        0x1 C:\QMK_MSYS\tmp\ccs2W3Vd.ltrans0.ltrans.o
 .bss.waiting_buffer_head
                0x20011eb3        0x1 C:\QMK_MSYS\tmp\ccs2W3Vd.ltrans0.ltrans.o
 .bss.waiting_buffer_tail
                0x20011eb4        0x1 C:\QMK_MSYS\tmp\ccs2W3Vd.ltrans0.ltrans.o
 *fill*         0x20011eb5        0x1 
 .bss.waiting_buffer
                0x20011eb6       0x40 C:\QMK_MSYS\tmp\ccs2W3Vd.ltrans0.ltrans.o
 .bss.tapping_key
                0x20011ef6        0x8 C:\QMK_MSYS\tmp\ccs2W3Vd.ltrans0.ltrans.o
 .bss.is_initialised.0
                0x20011efe        0x1 .build/obj_vessel_base/i2c_master.a(i2c_master.o)
 *(COMMON)
 *fill*         0x20011eff        0x1 
 COMMON         0x20011f00       0x38 C:\QMK_MSYS\tmp\ccs2W3Vd.ltrans0.ltrans.o
                0x20011f00                I2CD1
                0x20011f38                        . = ALIGN (0x4)
                0x20011f38                        __bss_end__ = .
                [!provide]                        PROVIDE (end = .)
                0x20000000                        __ram0_base__ = ORIGIN (ram0)
                0x00020000                        __ram0_size__ = LENGTH (ram0)
                0x20020000                        __ram0_end__ = (__ram0_base__ + __ram0_size__)
                0x20000000                        __ram1_base__ = ORIGIN (ram1)
                0x0001c000                        __ram1_size__ = LENGTH (ram1)
                0x2001c000                        __ram1_end__ = (__ram1_base__ + __ram1_size__)
                0x00000000                        __ram2_base__ = ORIGIN (ram2)
                0x00004000                        __ram2_size__ = LENGTH (ram2)
                0x00004000                        __ram2_end__ = (__ram2_base__ + __ram2_size__)
                0x00000000                        __ram3_base__ = ORIGIN (ram3)
                0x00000000                        __ram3_size__ = LENGTH (ram3)
                0x00000000                        __ram3_end__ = (__ram3_base__ + __ram3_size__)
                0x00000000                        __ram4_base__ = ORIGIN (ram4)
                0x00000000                        __ram4_size__ = LENGTH (ram4)
                0x00000000                        __ram4_end__ = (__ram4_base__ + __ram4_size__)
                0x00000000                        __ram5_base__ = ORIGIN (ram5)
                0x00000000                        __ram5_size__ = LENGTH (ram5)
                0x00000000                        __ram5_end__ = (__ram5_base__ + __ram5_size__)
                0x00000000                        __ram6_base__ = ORIGIN (ram6)
                0x00000000                        __ram6_size__ = LENGTH (ram6)
                0x00000000                        __ram6_end__ = (__ram6_base__ + __ram6_size__)
                0x00000000                        __ram7_base__ = ORIGIN (ram7)
                0x00000000                        __ram7_size__ = LENGTH (ram7)
                0x00000000                        __ram7_end__ = (__ram7_base__ + __ram7_size__)
                0x08000000                        __flash0_base__ = ORIGIN (flash0)
                0x00080000                        __flash0_size__ = LENGTH (flash0)
                0x08080000                        __flash0_end__ = (__flash0_base__ + __flash0_size__)
                0x00000000                        __flash1_base__ = ORIGIN (flash1)
                0x00000000                        __flash1_size__ = LENGTH (flash1)
                0x00000000                        __flash1_end__ = (__flash1_base__ + __flash1_size__)
                0x00000000                        __flash2_base__ = ORIGIN (flash2)
                0x00000000                        __flash2_size__ = LENGTH (flash2)
                0x00000000                        __flash2_end__ = (__flash2_base__ + __flash2_size__)
                0x00000000                        __flash3_base__ = ORIGIN (flash3)
                0x00000000                        __flash3_size__ = LENGTH (flash3)
                0x00000000                        __flash3_end__ = (__flash3_base__ + __flash3_size__)
                0x00000000                        __flash4_base__ = ORIGIN (flash4)
                0x00000000                        __flash4_size__ = LENGTH (flash4)
                0x00000000                        __flash4_end__ = (__flash4_base__ + __flash4_size__)
                0x00000000                        __flash5_base__ = ORIGIN (flash5)
                0x00000000                        __flash5_size__ = LENGTH (flash5)
                0x00000000                        __flash5_end__ = (__flash5_base__ + __flash5_size__)
                0x00000000                        __flash6_base__ = ORIGIN (flash6)
                0x00000000                        __flash6_size__ = LENGTH (flash6)
                0x00000000                        __flash6_end__ = (__flash6_base__ + __flash6_size__)
                0x00000000                        __flash7_base__ = ORIGIN (flash7)
                0x00000000                        __flash7_size__ = LENGTH (flash7)
                0x00000000                        __flash7_end__ = (__flash7_base__ + __flash7_size__)

.ram0_init      0x20011f38        0x0 load address 0x0800f714
                0x0800f714                        __ram0_init_text__ = LOADADDR (.ram0_init)
                0x20011f38                        __ram0_init__ = .
 *(.ram0_init)
 *(.ram0_init.*)
                0x20011f38                        . = ALIGN (0x4)

.ram0           0x20011f38        0x0 load address 0x0800f714
                0x20011f38                        __ram0_clear__ = .
 *(.ram0_clear)
 *(.ram0_clear.*)
                0x20011f38                        . = ALIGN (0x4)
                0x20011f38                        __ram0_noinit__ = .
 *(.ram0)
 *(.ram0.*)
                0x20011f38                        . = ALIGN (0x4)
                0x20011f38                        __ram0_free__ = .

.ram1_init      0x20000000        0x0 load address 0x0800f714
                0x0800f714                        __ram1_init_text__ = LOADADDR (.ram1_init)
                0x20000000                        __ram1_init__ = .
 *(.ram1_init)
 *(.ram1_init.*)
                0x20000000                        . = ALIGN (0x4)

.ram1           0x20000000        0x0 load address 0x0800f714
                0x20000000                        __ram1_clear__ = .
 *(.ram1_clear)
 *(.ram1_clear.*)
                0x20000000                        . = ALIGN (0x4)
                0x20000000                        __ram1_noinit__ = .
 *(.ram1)
 *(.ram1.*)
                0x20000000                        . = ALIGN (0x4)
                0x20000000                        __ram1_free__ = .

.ram2_init      0x00000000        0x0 load address 0x0800f714
                0x0800f714                        __ram2_init_text__ = LOADADDR (.ram2_init)
                0x00000000                        __ram2_init__ = .
 *(.ram2_init)
 *(.ram2_init.*)
                0x00000000                        . = ALIGN (0x4)

.ram2           0x00000000        0x0 load address 0x0800f714
                0x00000000                        __ram2_clear__ = .
 *(.ram2_clear)
 *(.ram2_clear.*)
                0x00000000                        . = ALIGN (0x4)
                0x00000000                        __ram2_noinit__ = .
 *(.ram2)
 *(.ram2.*)
                0x00000000                        . = ALIGN (0x4)
                0x00000000                        __ram2_free__ = .

.ram3_init      0x00000000        0x0 load address 0x0800f714
                0x0800f714                        __ram3_init_text__ = LOADADDR (.ram3_init)
                0x00000000                        __ram3_init__ = .
 *(.ram3_init)
 *(.ram3_init.*)
                0x00000000                        . = ALIGN (0x4)

.ram3           0x00000000        0x0 load address 0x0800f714
                0x00000000                        __ram3_clear__ = .
 *(.ram3_clear)
 *(.ram3_clear.*)
                0x00000000                        . = ALIGN (0x4)
                0x00000000                        __ram3_noinit__ = .
 *(.ram3)
 *(.ram3.*)
                0x00000000                        . = ALIGN (0x4)
                0x00000000                        __ram3_free__ = .

.ram4_init      0x00000000        0x0 load address 0x0800f714
                0x0800f714                        __ram4_init_text__ = LOADADDR (.ram4_init)
                0x00000000                        __ram4_init__ = .
 *(.ram4_init)
 *(.ram4_init.*)
                0x00000000                        . = ALIGN (0x4)

.ram4           0x00000000        0x0 load address 0x0800f714
                0x00000000                        __ram4_clear__ = .
 *(.ram4_clear)
 *(.ram4_clear.*)
                0x00000000                        . = ALIGN (0x4)
                0x00000000                        __ram4_noinit__ = .
 *(.ram4)
 *(.ram4.*)
                0x00000000                        . = ALIGN (0x4)
                0x00000000                        __ram4_free__ = .

.ram5_init      0x00000000        0x0 load address 0x0800f714
                0x0800f714                        __ram5_init_text__ = LOADADDR (.ram5_init)
                0x00000000                        __ram5_init__ = .
 *(.ram5_init)
 *(.ram5_init.*)
                0x00000000                        . = ALIGN (0x4)

.ram5           0x00000000        0x0 load address 0x0800f714
                0x00000000                        __ram5_clear__ = .
 *(.ram5_clear)
 *(.ram5_clear.*)
                0x00000000                        . = ALIGN (0x4)
                0x00000000                        __ram5_noinit__ = .
 *(.ram5)
 *(.ram5.*)
                0x00000000                        . = ALIGN (0x4)
                0x00000000                        __ram5_free__ = .

.ram6_init      0x00000000        0x0 load address 0x0800f714
                0x0800f714                        __ram6_init_text__ = LOADADDR (.ram6_init)
                0x00000000                        __ram6_init__ = .
 *(.ram6_init)
 *(.ram6_init.*)
                0x00000000                        . = ALIGN (0x4)

.ram6           0x00000000        0x0 load address 0x0800f714
                0x00000000                        __ram6_clear__ = .
 *(.ram6_clear)
 *(.ram6_clear.*)
                0x00000000                        . = ALIGN (0x4)
                0x00000000                        __ram6_noinit__ = .
 *(.ram6)
 *(.ram6.*)
                0x00000000                        . = ALIGN (0x4)
                0x00000000                        __ram6_free__ = .

.ram7_init      0x00000000        0x0 load address 0x0800f714
                0x0800f714                        __ram7_init_text__ = LOADADDR (.ram7_init)
                0x00000000                        __ram7_init__ = .
 *(.ram7_init)
 *(.ram7_init.*)
                0x00000000                        . = ALIGN (0x4)

.ram7           0x00000000        0x0 load address 0x0800f714
                0x00000000                        __ram7_clear__ = .
 *(.ram7_clear)
 *(.ram7_clear.*)
                0x00000000                        . = ALIGN (0x4)
                0x00000000                        __ram7_noinit__ = .
 *(.ram7)
 *(.ram7.*)
                0x00000000                        . = ALIGN (0x4)
                0x00000000                        __ram7_free__ = .

.flash0         0x0800f714        0x0
                0x0800f714                        __flash0_init__ = .
 *(.flash0_init)
 *(.flash0_init.*)
                0x0800f714                        __flash0_free__ = .

.flash1         0x00000000        0x0
                0x00000000                        __flash1_init__ = .
 *(.flash1_init)
 *(.flash1_init.*)
                0x00000000                        __flash1_free__ = .

.flash2         0x00000000        0x0
                0x00000000                        __flash2_init__ = .
 *(.flash2_init)
 *(.flash2_init.*)
                0x00000000                        __flash2_free__ = .

.flash3         0x00000000        0x0
                0x00000000                        __flash3_init__ = .
 *(.flash3_init)
 *(.flash3_init.*)
                0x00000000                        __flash3_free__ = .

.flash4         0x00000000        0x0
                0x00000000                        __flash4_init__ = .
 *(.flash4_init)
 *(.flash4_init.*)
                0x00000000                        __flash4_free__ = .

.flash5         0x00000000        0x0
                0x00000000                        __flash5_init__ = .
 *(.flash5_init)
 *(.flash5_init.*)
                0x00000000                        __flash5_free__ = .

.flash6         0x00000000        0x0
                0x00000000                        __flash6_init__ = .
 *(.flash6_init)
 *(.flash6_init.*)
                0x00000000                        __flash6_free__ = .

.flash7         0x00000000        0x0
                0x00000000                        __flash7_init__ = .
 *(.flash7_init)
 *(.flash7_init.*)
                0x00000000                        __flash7_free__ = .

.heap           0x20011f38     0xe0c8
                0x20011f38                        . = ALIGN (0x8)
                0x20011f38                        __heap_base__ = .
                0x20020000                        . = (ORIGIN (HEAP_RAM) + LENGTH (HEAP_RAM))
 *fill*         0x20011f38     0xe0c8 
                0x20020000                        __heap_end__ = .
OUTPUT(.build/vessel_base.elf elf32-littlearm)
LOAD linker stubs

.debug_info     0x00000000    0x65b33
 .debug_info    0x00000000    0x13920 C:\QMK_MSYS\tmp\ccs2W3Vd.ltrans0.ltrans.o
 .debug_info    0x00013920      0x2c1 C:\QMK_MSYS\tmp\ccYy8zNJ.debug.temp.o
                0x00013920                vessel.c.14ed4ca5
 .debug_info    0x00013be1     0x3086 C:\QMK_MSYS\tmp\cc8jr1VC.debug.temp.o
                0x00013be1                keymap_introspection.c.406518f8
 .debug_info    0x00016c67     0x2d48 C:\QMK_MSYS\tmp\ccO4b5Y3.debug.temp.o
                0x00016c67                quantum.c.dc0d713f
 .debug_info    0x000199af      0x2b8 C:\QMK_MSYS\tmp\ccU9JcqW.debug.temp.o
                0x000199af                led.c.5d11b9d2
 .debug_info    0x00019c67     0x3161 C:\QMK_MSYS\tmp\ccgoXcxn.debug.temp.o
                0x00019c67                action.c.e182ecb1
 .debug_info    0x0001cdc8      0x8b5 C:\QMK_MSYS\tmp\ccsxOlSO.debug.temp.o
                0x0001cdc8                action_layer.c.557eb31f
 .debug_info    0x0001d67d     0x294d C:\QMK_MSYS\tmp\cciViwbg.debug.temp.o
                0x0001d67d                action_tapping.c.29603b76
 .debug_info    0x0001ffca      0x4cb C:\QMK_MSYS\tmp\cca0yIIH.debug.temp.o
                0x0001ffca                action_util.c.7f79eb32
 .debug_info    0x00020495      0x36c C:\QMK_MSYS\tmp\cc0pCGa9.debug.temp.o
                0x00020495                eeconfig.c.449cb773
 .debug_info    0x00020801      0x8c6 C:\QMK_MSYS\tmp\ccwjgFEz.debug.temp.o
                0x00020801                keyboard.c.efa4f88c
 .debug_info    0x000210c7     0x2c08 C:\QMK_MSYS\tmp\ccunYi4Z.debug.temp.o
                0x000210c7                keymap_common.c.89c0dbc7
 .debug_info    0x00023ccf     0x24de C:\QMK_MSYS\tmp\cci23xsq.debug.temp.o
                0x00023ccf                keycode_config.c.8da296ee
 .debug_info    0x000261ad      0x113 C:\QMK_MSYS\tmp\ccaulbyh.debug.temp.o
                0x000261ad                debug.c.792acadb
 .debug_info    0x000262c0       0xac C:\QMK_MSYS\tmp\ccEA8olI.debug.temp.o
                0x000262c0                sendchar.c.22e099d6
 .debug_info    0x0002636c      0x113 C:\QMK_MSYS\tmp\ccWeMX28.debug.temp.o
                0x0002636c                print.c.21c740f7
 .debug_info    0x0002647f      0x2a1 C:\QMK_MSYS\tmp\cco2DIJz.debug.temp.o
                0x0002647f                matrix_common.c.ce4aeaaf
 .debug_info    0x00026720      0x538 C:\QMK_MSYS\tmp\ccmAD3C0.debug.temp.o
                0x00026720                matrix.c.5d9143b2
 .debug_info    0x00026c58      0x2d0 C:\QMK_MSYS\tmp\cc47Kovr.debug.temp.o
                0x00026c58                sym_eager_pk.c.a644795f
 .debug_info    0x00026f28       0xc6 C:\QMK_MSYS\tmp\ccsbw1pR.debug.temp.o
                0x00026f28                main.c.8f645a0d
 .debug_info    0x00026fee      0x7f4 C:\QMK_MSYS\tmp\cc6u1jfh.debug.temp.o
                0x00026fee                printf.c.c100e2c5
 .debug_info    0x000277e2      0x2f8 C:\QMK_MSYS\tmp\ccWqp82G.debug.temp.o
                0x000277e2                eeprom_driver.c.332fdc64
 .debug_info    0x00027ada      0x1ad C:\QMK_MSYS\tmp\cc2KLL36.debug.temp.o
                0x00027ada                eeprom_transient.c.9005f06d
 .debug_info    0x00027c87      0x1ee C:\QMK_MSYS\tmp\ccCAUx2w.debug.temp.o
                0x00027c87                color.c.9849b175
 .debug_info    0x00027e75     0x2613 C:\QMK_MSYS\tmp\ccavKcfX.debug.temp.o
                0x00027e75                rgb_matrix.c.05b2d028
 .debug_info    0x0002a488      0x222 C:\QMK_MSYS\tmp\ccGKnDmn.debug.temp.o
                0x0002a488                rgb_matrix_drivers.c.cb659b07
 .debug_info    0x0002a6aa     0x2714 C:\QMK_MSYS\tmp\cce79oHN.debug.temp.o
                0x0002a6aa                process_rgb.c.7a0f7a72
 .debug_info    0x0002cdbe       0xcd C:\QMK_MSYS\tmp\cckRVoYd.debug.temp.o
                0x0002cdbe                led_tables.c.a9da1920
 .debug_info    0x0002ce8b       0x89 C:\QMK_MSYS\tmp\ccqbgfYH.debug.temp.o
                0x0002ce8b                lib8tion.c.04f38c89
 .debug_info    0x0002cf14      0xaaa C:\QMK_MSYS\tmp\cciESETb.debug.temp.o
                0x0002cf14                oled_driver.c.5c67909b
 .debug_info    0x0002d9be     0x2889 C:\QMK_MSYS\tmp\ccGvlT2F.debug.temp.o
                0x0002d9be                encoder.c.224c3f34
 .debug_info    0x00030247      0x412 C:\QMK_MSYS\tmp\cc4I5Saa.debug.temp.o
                0x00030247                encoder_quadrature.c.d74c7185
 .debug_info    0x00030659      0x33a C:\QMK_MSYS\tmp\ccSnR1cE.debug.temp.o
                0x00030659                ws2812_bitbang.c.f4ef726e
 .debug_info    0x00030993      0x163 C:\QMK_MSYS\tmp\ccyWH1w8.debug.temp.o
                0x00030993                bootmagic.c.7eea1557
 .debug_info    0x00030af6     0x25c9 C:\QMK_MSYS\tmp\ccoCtGLC.debug.temp.o
                0x00030af6                process_grave_esc.c.b704f588
 .debug_info    0x000330bf     0x2636 C:\QMK_MSYS\tmp\ccQpxRe7.debug.temp.o
                0x000330bf                process_magic.c.50a679e7
 .debug_info    0x000356f5      0x3e9 C:\QMK_MSYS\tmp\ccMU9izB.debug.temp.o
                0x000356f5                process_programmable_button.c.9742247a
 .debug_info    0x00035ade      0x15c C:\QMK_MSYS\tmp\ccO4Lu04.debug.temp.o
                0x00035ade                programmable_button.c.c63705d9
 .debug_info    0x00035c3a     0x25af C:\QMK_MSYS\tmp\ccgPjOV1.debug.temp.o
                0x00035c3a                process_space_cadet.c.8168e018
 .debug_info    0x000381e9      0x973 C:\QMK_MSYS\tmp\ccwAvutv.debug.temp.o
                0x000381e9                process_tap_dance.c.aae89122
 .debug_info    0x00038b5c      0x629 C:\QMK_MSYS\tmp\ccW8nlXY.debug.temp.o
                0x00038b5c                host.c.99cc40e8
 .debug_info    0x00039185     0x26c9 C:\QMK_MSYS\tmp\cccktRCs.debug.temp.o
                0x00039185                report.c.03494e62
 .debug_info    0x0003b84e      0x178 C:\QMK_MSYS\tmp\cc6pXUhW.debug.temp.o
                0x0003b84e                usb_device_state.c.0f814731
 .debug_info    0x0003b9c6      0x119 C:\QMK_MSYS\tmp\ccek32UT.debug.temp.o
                0x0003b9c6                suspend.c.cf3726c5
 .debug_info    0x0003badf       0x93 C:\QMK_MSYS\tmp\ccwnQKdL.debug.temp.o
                0x0003badf                platform.c.0b00a6f7
 .debug_info    0x0003bb72      0x156 C:\QMK_MSYS\tmp\ccOJie5d.debug.temp.o
                0x0003bb72                suspend.c.2b0bbf40
 .debug_info    0x0003bcc8      0x22a C:\QMK_MSYS\tmp\ccG4SEeH.debug.temp.o
                0x0003bcc8                timer.c.de30d109
 .debug_info    0x0003bef2      0x563 C:\QMK_MSYS\tmp\cckinsha.debug.temp.o
                0x0003bef2                stm32_dfu.c.0373b997
 .debug_info    0x0003c455     0x200a C:\QMK_MSYS\tmp\ccgRbtjD.debug.temp.o
                0x0003c455                usb_main.c.a096ad1e
 .debug_info    0x0003e45f     0x15c1 C:\QMK_MSYS\tmp\ccGbXBy6.debug.temp.o
                0x0003e45f                chibios.c.daf7b35a
 .debug_info    0x0003fa20      0x6c2 C:\QMK_MSYS\tmp\ccqU3HIz.debug.temp.o
                0x0003fa20                usb_descriptor.c.ea005d1d
 .debug_info    0x000400e2     0x1c58 C:\QMK_MSYS\tmp\cccI8FZ1.debug.temp.o
                0x000400e2                usb_driver.c.9882d7fa
 .debug_info    0x00041d3a     0x1812 C:\QMK_MSYS\tmp\ccuGGubu.debug.temp.o
                0x00041d3a                usb_endpoints.c.47bd8000
 .debug_info    0x0004354c     0x1c22 C:\QMK_MSYS\tmp\ccwcIvzW.debug.temp.o
                0x0004354c                usb_report_handling.c.5ebf6a74
 .debug_info    0x0004516e      0x296 C:\QMK_MSYS\tmp\ccU2tOfR.debug.temp.o
                0x0004516e                crt1.c.d4fce6c2
 .debug_info    0x00045404      0xc89 C:\QMK_MSYS\tmp\ccOcGXKj.debug.temp.o
                0x00045404                chsys.c.62aeba52
 .debug_info    0x0004608d      0x76b C:\QMK_MSYS\tmp\ccW11CeM.debug.temp.o
                0x0004608d                chrfcu.c.e1049246
 .debug_info    0x000467f8      0xde3 C:\QMK_MSYS\tmp\ccS8sjUd.debug.temp.o
                0x000467f8                chvt.c.f6462411
 .debug_info    0x000475db      0xc88 C:\QMK_MSYS\tmp\ccMcYjfK.debug.temp.o
                0x000475db                chschd.c.f46e1c0e
 .debug_info    0x00048263      0x9ae C:\QMK_MSYS\tmp\ccyqoOug.debug.temp.o
                0x00048263                chinstances.c.5fac7a3d
 .debug_info    0x00048c11      0xedb C:\QMK_MSYS\tmp\cccqrNWM.debug.temp.o
                0x00048c11                chthreads.c.47c1cb20
 .debug_info    0x00049aec      0xa8f C:\QMK_MSYS\tmp\cckT9yUp.debug.temp.o
                0x00049aec                chmtx.c.8293b9af
 .debug_info    0x0004a57b     0x114d C:\QMK_MSYS\tmp\ccUajHNZ.debug.temp.o
                0x0004a57b                chcore.c.23158ca4
 .debug_info    0x0004b6c8      0x2c7 C:\QMK_MSYS\tmp\ccCSIbRx.debug.temp.o
                0x0004b6c8                chmemcore.c.453a1d8b
 .debug_info    0x0004b98f       0xb9 C:\QMK_MSYS\tmp\ccgwBwl6.debug.temp.o
                0x0004b98f                hal.c.93194310
 .debug_info    0x0004ba48      0x2e2 C:\QMK_MSYS\tmp\ccKS4vMB.debug.temp.o
                0x0004ba48                hal_st.c.7d31f0ca
 .debug_info    0x0004bd2a      0x95a C:\QMK_MSYS\tmp\cca7GX86.debug.temp.o
                0x0004bd2a                hal_buffers.c.25589c53
 .debug_info    0x0004c684      0xe4b C:\QMK_MSYS\tmp\ccEe4n45.debug.temp.o
                0x0004c684                hal_i2c.c.b66627b0
 .debug_info    0x0004d4cf     0x19b8 C:\QMK_MSYS\tmp\ccKK5gCm.debug.temp.o
                0x0004d4cf                hal_usb.c.e02d3b75
 .debug_info    0x0004ee87      0x45b C:\QMK_MSYS\tmp\ccCHaup1.debug.temp.o
                0x0004ee87                nvic.c.1f062d86
 .debug_info    0x0004f2e2      0x29f C:\QMK_MSYS\tmp\ccaMHsKz.debug.temp.o
                0x0004f2e2                stm32_isr.c.0b04725d
 .debug_info    0x0004f581      0x5b2 C:\QMK_MSYS\tmp\cco0Ypj8.debug.temp.o
                0x0004f581                hal_lld.c.5440b01a
 .debug_info    0x0004fb33      0x7f7 C:\QMK_MSYS\tmp\cc4Drlro.debug.temp.o
                0x0004fb33                stm32_dma.c.59c00a80
 .debug_info    0x0005032a      0x248 C:\QMK_MSYS\tmp\ccAQkt0t.debug.temp.o
                0x0005032a                hal_pal_lld.c.2299cf12
 .debug_info    0x00050572     0x1522 C:\QMK_MSYS\tmp\ccQpYuI1.debug.temp.o
                0x00050572                hal_i2c_lld.c.d9b36ab0
 .debug_info    0x00051a94     0x1c49 C:\QMK_MSYS\tmp\ccu6aUw7.debug.temp.o
                0x00051a94                hal_usb_lld.c.9bc2aa4c
 .debug_info    0x000536dd      0x509 C:\QMK_MSYS\tmp\cc6xi9gk.debug.temp.o
                0x000536dd                hal_st_lld.c.f609d332
 .debug_info    0x00053be6      0x49b C:\QMK_MSYS\tmp\ccurH6dg.debug.temp.o
                0x00053be6                board.c.bf9714c4
 .debug_info    0x00054081      0xb4a C:\QMK_MSYS\tmp\ccad69BR.debug.temp.o
                0x00054081                syscalls.c.4bebdc15
 .debug_info    0x00054bcb      0xbeb C:\QMK_MSYS\tmp\ccAjuQ4s.debug.temp.o
                0x00054bcb                syscall_fallbacks.c.52060c08
 .debug_info    0x000557b6     0x148f .build/obj_vessel_base/i2c_master.a(i2c_master.o)
 .debug_info    0x00056c45       0x24 C:/QMK_MSYS/mingw64/bin/../lib/gcc/arm-none-eabi/13.3.0/thumb/v7e-m+fp/hard\libgcc.a(_aeabi_uldivmod.o)
 .debug_info    0x00056c69      0x703 C:/QMK_MSYS/mingw64/bin/../lib/gcc/arm-none-eabi/13.3.0/thumb/v7e-m+fp/hard\libgcc.a(_udivmoddi4.o)
 .debug_info    0x0005736c       0x3c C:/QMK_MSYS/mingw64/bin/../lib/gcc/arm-none-eabi/13.3.0/thumb/v7e-m+fp/hard\libgcc.a(_dvmd_tls.o)
 .debug_info    0x000573a8      0x85b C:/QMK_MSYS/mingw64/bin/../lib/gcc/arm-none-eabi/13.3.0/../../../../arm-none-eabi/lib/thumb/v7e-m+fp/hard\libg_nano.a(libc_a-rand.o)
 .debug_info    0x00057c03      0x715 C:/QMK_MSYS/mingw64/bin/../lib/gcc/arm-none-eabi/13.3.0/../../../../arm-none-eabi/lib/thumb/v7e-m+fp/hard\libg_nano.a(libc_a-impure.o)
 .debug_info    0x00058318      0x81d C:/QMK_MSYS/mingw64/bin/../lib/gcc/arm-none-eabi/13.3.0/../../../../arm-none-eabi/lib/thumb/v7e-m+fp/hard\libg_nano.a(libc_a-assert.o)
 .debug_info    0x00058b35      0x794 C:/QMK_MSYS/mingw64/bin/../lib/gcc/arm-none-eabi/13.3.0/../../../../arm-none-eabi/lib/thumb/v7e-m+fp/hard\libg_nano.a(libc_a-malloc.o)
 .debug_info    0x000592c9      0x9c1 C:/QMK_MSYS/mingw64/bin/../lib/gcc/arm-none-eabi/13.3.0/../../../../arm-none-eabi/lib/thumb/v7e-m+fp/hard\libg_nano.a(libc_a-mallocr.o)
 .debug_info    0x00059c8a      0x76b C:/QMK_MSYS/mingw64/bin/../lib/gcc/arm-none-eabi/13.3.0/../../../../arm-none-eabi/lib/thumb/v7e-m+fp/hard\libg_nano.a(libc_a-mlock.o)
 .debug_info    0x0005a3f5      0x855 C:/QMK_MSYS/mingw64/bin/../lib/gcc/arm-none-eabi/13.3.0/../../../../arm-none-eabi/lib/thumb/v7e-m+fp/hard\libg_nano.a(libc_a-fprintf.o)
 .debug_info    0x0005ac4a      0x20a C:/QMK_MSYS/mingw64/bin/../lib/gcc/arm-none-eabi/13.3.0/../../../../arm-none-eabi/lib/thumb/v7e-m+fp/hard\libg_nano.a(libc_a-lock.o)
 .debug_info    0x0005ae54       0xd8 C:/QMK_MSYS/mingw64/bin/../lib/gcc/arm-none-eabi/13.3.0/../../../../arm-none-eabi/lib/thumb/v7e-m+fp/hard\libg_nano.a(libc_a-abort.o)
 .debug_info    0x0005af2c      0x877 C:/QMK_MSYS/mingw64/bin/../lib/gcc/arm-none-eabi/13.3.0/../../../../arm-none-eabi/lib/thumb/v7e-m+fp/hard\libg_nano.a(libc_a-freer.o)
 .debug_info    0x0005b7a3     0x10cb C:/QMK_MSYS/mingw64/bin/../lib/gcc/arm-none-eabi/13.3.0/../../../../arm-none-eabi/lib/thumb/v7e-m+fp/hard\libg_nano.a(libc_a-nano-vfprintf.o)
 .debug_info    0x0005c86e      0xde1 C:/QMK_MSYS/mingw64/bin/../lib/gcc/arm-none-eabi/13.3.0/../../../../arm-none-eabi/lib/thumb/v7e-m+fp/hard\libg_nano.a(libc_a-nano-vfprintf_i.o)
 .debug_info    0x0005d64f     0x10be C:/QMK_MSYS/mingw64/bin/../lib/gcc/arm-none-eabi/13.3.0/../../../../arm-none-eabi/lib/thumb/v7e-m+fp/hard\libg_nano.a(libc_a-findfp.o)
 .debug_info    0x0005e70d      0xafb C:/QMK_MSYS/mingw64/bin/../lib/gcc/arm-none-eabi/13.3.0/../../../../arm-none-eabi/lib/thumb/v7e-m+fp/hard\libg_nano.a(libc_a-fvwrite.o)
 .debug_info    0x0005f208      0x7d2 C:/QMK_MSYS/mingw64/bin/../lib/gcc/arm-none-eabi/13.3.0/../../../../arm-none-eabi/lib/thumb/v7e-m+fp/hard\libg_nano.a(libc_a-fwalk.o)
 .debug_info    0x0005f9da      0xa4e C:/QMK_MSYS/mingw64/bin/../lib/gcc/arm-none-eabi/13.3.0/../../../../arm-none-eabi/lib/thumb/v7e-m+fp/hard\libg_nano.a(libc_a-stdio.o)
 .debug_info    0x00060428      0x861 C:/QMK_MSYS/mingw64/bin/../lib/gcc/arm-none-eabi/13.3.0/../../../../arm-none-eabi/lib/thumb/v7e-m+fp/hard\libg_nano.a(libc_a-wbuf.o)
 .debug_info    0x00060c89      0x7bb C:/QMK_MSYS/mingw64/bin/../lib/gcc/arm-none-eabi/13.3.0/../../../../arm-none-eabi/lib/thumb/v7e-m+fp/hard\libg_nano.a(libc_a-wsetup.o)
 .debug_info    0x00061444      0x148 C:/QMK_MSYS/mingw64/bin/../lib/gcc/arm-none-eabi/13.3.0/../../../../arm-none-eabi/lib/thumb/v7e-m+fp/hard\libg_nano.a(libc_a-memmove.o)
 .debug_info    0x0006158c      0x135 C:/QMK_MSYS/mingw64/bin/../lib/gcc/arm-none-eabi/13.3.0/../../../../arm-none-eabi/lib/thumb/v7e-m+fp/hard\libg_nano.a(libc_a-memset.o)
 .debug_info    0x000616c1      0xc31 C:/QMK_MSYS/mingw64/bin/../lib/gcc/arm-none-eabi/13.3.0/../../../../arm-none-eabi/lib/thumb/v7e-m+fp/hard\libg_nano.a(libc_a-signal.o)
 .debug_info    0x000622f2      0x7dd C:/QMK_MSYS/mingw64/bin/../lib/gcc/arm-none-eabi/13.3.0/../../../../arm-none-eabi/lib/thumb/v7e-m+fp/hard\libg_nano.a(libc_a-signalr.o)
 .debug_info    0x00062acf       0x25 C:/QMK_MSYS/mingw64/bin/../lib/gcc/arm-none-eabi/13.3.0/../../../../arm-none-eabi/lib/thumb/v7e-m+fp/hard\libg_nano.a(libc_a-memchr.o)
 .debug_info    0x00062af4       0x33 C:/QMK_MSYS/mingw64/bin/../lib/gcc/arm-none-eabi/13.3.0/../../../../arm-none-eabi/lib/thumb/v7e-m+fp/hard\libg_nano.a(libc_a-memcpy.o)
 .debug_info    0x00062b27      0x8d1 C:/QMK_MSYS/mingw64/bin/../lib/gcc/arm-none-eabi/13.3.0/../../../../arm-none-eabi/lib/thumb/v7e-m+fp/hard\libg_nano.a(libc_a-reallocr.o)
 .debug_info    0x000633f8      0x9ef C:/QMK_MSYS/mingw64/bin/../lib/gcc/arm-none-eabi/13.3.0/../../../../arm-none-eabi/lib/thumb/v7e-m+fp/hard\libg_nano.a(libc_a-fflush.o)
 .debug_info    0x00063de7      0xbea C:/QMK_MSYS/mingw64/bin/../lib/gcc/arm-none-eabi/13.3.0/../../../../arm-none-eabi/lib/thumb/v7e-m+fp/hard\libg_nano.a(libc_a-makebuf.o)
 .debug_info    0x000649d1      0x8a3 C:/QMK_MSYS/mingw64/bin/../lib/gcc/arm-none-eabi/13.3.0/../../../../arm-none-eabi/lib/thumb/v7e-m+fp/hard\libg_nano.a(libc_a-reent.o)
 .debug_info    0x00065274      0x794 C:/QMK_MSYS/mingw64/bin/../lib/gcc/arm-none-eabi/13.3.0/../../../../arm-none-eabi/lib/thumb/v7e-m+fp/hard\libg_nano.a(libc_a-msizer.o)
 .debug_info    0x00065a08      0x12b C:/QMK_MSYS/mingw64/bin/../lib/gcc/arm-none-eabi/13.3.0/../../../../arm-none-eabi/lib/thumb/v7e-m+fp/hard\libg_nano.a(libc_a-memcmp.o)

.debug_abbrev   0x00000000     0xc663
 .debug_abbrev  0x00000000      0x3e1 C:\QMK_MSYS\tmp\ccs2W3Vd.ltrans0.ltrans.o
 .debug_abbrev  0x000003e1      0x114 C:\QMK_MSYS\tmp\ccYy8zNJ.debug.temp.o
 .debug_abbrev  0x000004f5      0x2f3 C:\QMK_MSYS\tmp\cc8jr1VC.debug.temp.o
 .debug_abbrev  0x000007e8      0x263 C:\QMK_MSYS\tmp\ccO4b5Y3.debug.temp.o
 .debug_abbrev  0x00000a4b      0x148 C:\QMK_MSYS\tmp\ccU9JcqW.debug.temp.o
 .debug_abbrev  0x00000b93      0x2f3 C:\QMK_MSYS\tmp\ccgoXcxn.debug.temp.o
 .debug_abbrev  0x00000e86      0x245 C:\QMK_MSYS\tmp\ccsxOlSO.debug.temp.o
 .debug_abbrev  0x000010cb      0x224 C:\QMK_MSYS\tmp\cciViwbg.debug.temp.o
 .debug_abbrev  0x000012ef      0x1f9 C:\QMK_MSYS\tmp\cca0yIIH.debug.temp.o
 .debug_abbrev  0x000014e8      0x176 C:\QMK_MSYS\tmp\cc0pCGa9.debug.temp.o
 .debug_abbrev  0x0000165e      0x2c9 C:\QMK_MSYS\tmp\ccwjgFEz.debug.temp.o
 .debug_abbrev  0x00001927      0x1a8 C:\QMK_MSYS\tmp\ccunYi4Z.debug.temp.o
 .debug_abbrev  0x00001acf      0x10e C:\QMK_MSYS\tmp\cci23xsq.debug.temp.o
 .debug_abbrev  0x00001bdd       0x9e C:\QMK_MSYS\tmp\ccaulbyh.debug.temp.o
 .debug_abbrev  0x00001c7b       0x57 C:\QMK_MSYS\tmp\ccEA8olI.debug.temp.o
 .debug_abbrev  0x00001cd2       0xa4 C:\QMK_MSYS\tmp\ccWeMX28.debug.temp.o
 .debug_abbrev  0x00001d76      0x14e C:\QMK_MSYS\tmp\cco2DIJz.debug.temp.o
 .debug_abbrev  0x00001ec4      0x240 C:\QMK_MSYS\tmp\ccmAD3C0.debug.temp.o
 .debug_abbrev  0x00002104      0x132 C:\QMK_MSYS\tmp\cc47Kovr.debug.temp.o
 .debug_abbrev  0x00002236       0x5e C:\QMK_MSYS\tmp\ccsbw1pR.debug.temp.o
 .debug_abbrev  0x00002294      0x18f C:\QMK_MSYS\tmp\cc6u1jfh.debug.temp.o
 .debug_abbrev  0x00002423      0x10e C:\QMK_MSYS\tmp\ccWqp82G.debug.temp.o
 .debug_abbrev  0x00002531       0xfa C:\QMK_MSYS\tmp\cc2KLL36.debug.temp.o
 .debug_abbrev  0x0000262b       0xf9 C:\QMK_MSYS\tmp\ccCAUx2w.debug.temp.o
 .debug_abbrev  0x00002724      0x3ac C:\QMK_MSYS\tmp\ccavKcfX.debug.temp.o
 .debug_abbrev  0x00002ad0      0x157 C:\QMK_MSYS\tmp\ccGKnDmn.debug.temp.o
 .debug_abbrev  0x00002c27      0x14a C:\QMK_MSYS\tmp\cce79oHN.debug.temp.o
 .debug_abbrev  0x00002d71       0x75 C:\QMK_MSYS\tmp\cckRVoYd.debug.temp.o
 .debug_abbrev  0x00002de6       0x46 C:\QMK_MSYS\tmp\ccqbgfYH.debug.temp.o
 .debug_abbrev  0x00002e2c      0x20d C:\QMK_MSYS\tmp\cciESETb.debug.temp.o
 .debug_abbrev  0x00003039      0x1ff C:\QMK_MSYS\tmp\ccGvlT2F.debug.temp.o
 .debug_abbrev  0x00003238      0x181 C:\QMK_MSYS\tmp\cc4I5Saa.debug.temp.o
 .debug_abbrev  0x000033b9      0x188 C:\QMK_MSYS\tmp\ccSnR1cE.debug.temp.o
 .debug_abbrev  0x00003541       0xc9 C:\QMK_MSYS\tmp\ccyWH1w8.debug.temp.o
 .debug_abbrev  0x0000360a      0x16a C:\QMK_MSYS\tmp\ccoCtGLC.debug.temp.o
 .debug_abbrev  0x00003774      0x14d C:\QMK_MSYS\tmp\ccQpxRe7.debug.temp.o
 .debug_abbrev  0x000038c1      0x105 C:\QMK_MSYS\tmp\ccMU9izB.debug.temp.o
 .debug_abbrev  0x000039c6       0xc0 C:\QMK_MSYS\tmp\ccO4Lu04.debug.temp.o
 .debug_abbrev  0x00003a86      0x14f C:\QMK_MSYS\tmp\ccgPjOV1.debug.temp.o
 .debug_abbrev  0x00003bd5      0x1f2 C:\QMK_MSYS\tmp\ccwAvutv.debug.temp.o
 .debug_abbrev  0x00003dc7      0x1b9 C:\QMK_MSYS\tmp\ccW8nlXY.debug.temp.o
 .debug_abbrev  0x00003f80      0x1b0 C:\QMK_MSYS\tmp\cccktRCs.debug.temp.o
 .debug_abbrev  0x00004130       0xcc C:\QMK_MSYS\tmp\cc6pXUhW.debug.temp.o
 .debug_abbrev  0x000041fc       0xa4 C:\QMK_MSYS\tmp\ccek32UT.debug.temp.o
 .debug_abbrev  0x000042a0       0x5d C:\QMK_MSYS\tmp\ccwnQKdL.debug.temp.o
 .debug_abbrev  0x000042fd       0x9f C:\QMK_MSYS\tmp\ccOJie5d.debug.temp.o
 .debug_abbrev  0x0000439c      0x12e C:\QMK_MSYS\tmp\ccG4SEeH.debug.temp.o
 .debug_abbrev  0x000044ca      0x1f1 C:\QMK_MSYS\tmp\cckinsha.debug.temp.o
 .debug_abbrev  0x000046bb      0x43c C:\QMK_MSYS\tmp\ccgRbtjD.debug.temp.o
 .debug_abbrev  0x00004af7      0x294 C:\QMK_MSYS\tmp\ccGbXBy6.debug.temp.o
 .debug_abbrev  0x00004d8b      0x148 C:\QMK_MSYS\tmp\ccqU3HIz.debug.temp.o
 .debug_abbrev  0x00004ed3      0x2fe C:\QMK_MSYS\tmp\cccI8FZ1.debug.temp.o
 .debug_abbrev  0x000051d1      0x243 C:\QMK_MSYS\tmp\ccuGGubu.debug.temp.o
 .debug_abbrev  0x00005414      0x34e C:\QMK_MSYS\tmp\ccwcIvzW.debug.temp.o
 .debug_abbrev  0x00005762       0xec C:\QMK_MSYS\tmp\ccU2tOfR.debug.temp.o
 .debug_abbrev  0x0000584e      0x2ed C:\QMK_MSYS\tmp\ccOcGXKj.debug.temp.o
 .debug_abbrev  0x00005b3b      0x157 C:\QMK_MSYS\tmp\ccW11CeM.debug.temp.o
 .debug_abbrev  0x00005c92      0x2ae C:\QMK_MSYS\tmp\ccS8sjUd.debug.temp.o
 .debug_abbrev  0x00005f40      0x250 C:\QMK_MSYS\tmp\ccMcYjfK.debug.temp.o
 .debug_abbrev  0x00006190      0x253 C:\QMK_MSYS\tmp\ccyqoOug.debug.temp.o
 .debug_abbrev  0x000063e3      0x2f8 C:\QMK_MSYS\tmp\cccqrNWM.debug.temp.o
 .debug_abbrev  0x000066db      0x2af C:\QMK_MSYS\tmp\cckT9yUp.debug.temp.o
 .debug_abbrev  0x0000698a      0x276 C:\QMK_MSYS\tmp\ccUajHNZ.debug.temp.o
 .debug_abbrev  0x00006c00      0x15d C:\QMK_MSYS\tmp\ccCSIbRx.debug.temp.o
 .debug_abbrev  0x00006d5d       0x6e C:\QMK_MSYS\tmp\ccgwBwl6.debug.temp.o
 .debug_abbrev  0x00006dcb      0x15c C:\QMK_MSYS\tmp\ccKS4vMB.debug.temp.o
 .debug_abbrev  0x00006f27      0x209 C:\QMK_MSYS\tmp\cca7GX86.debug.temp.o
 .debug_abbrev  0x00007130      0x28c C:\QMK_MSYS\tmp\ccEe4n45.debug.temp.o
 .debug_abbrev  0x000073bc      0x333 C:\QMK_MSYS\tmp\ccKK5gCm.debug.temp.o
 .debug_abbrev  0x000076ef      0x13e C:\QMK_MSYS\tmp\ccCHaup1.debug.temp.o
 .debug_abbrev  0x0000782d       0x88 C:\QMK_MSYS\tmp\ccaMHsKz.debug.temp.o
 .debug_abbrev  0x000078b5      0x111 C:\QMK_MSYS\tmp\cco0Ypj8.debug.temp.o
 .debug_abbrev  0x000079c6      0x204 C:\QMK_MSYS\tmp\cc4Drlro.debug.temp.o
 .debug_abbrev  0x00007bca       0xf2 C:\QMK_MSYS\tmp\ccAQkt0t.debug.temp.o
 .debug_abbrev  0x00007cbc      0x327 C:\QMK_MSYS\tmp\ccQpYuI1.debug.temp.o
 .debug_abbrev  0x00007fe3      0x364 C:\QMK_MSYS\tmp\ccu6aUw7.debug.temp.o
 .debug_abbrev  0x00008347      0x11d C:\QMK_MSYS\tmp\cc6xi9gk.debug.temp.o
 .debug_abbrev  0x00008464      0x168 C:\QMK_MSYS\tmp\ccurH6dg.debug.temp.o
 .debug_abbrev  0x000085cc      0x247 C:\QMK_MSYS\tmp\ccad69BR.debug.temp.o
 .debug_abbrev  0x00008813      0x212 C:\QMK_MSYS\tmp\ccAjuQ4s.debug.temp.o
 .debug_abbrev  0x00008a25      0x32f .build/obj_vessel_base/i2c_master.a(i2c_master.o)
 .debug_abbrev  0x00008d54       0x14 C:/QMK_MSYS/mingw64/bin/../lib/gcc/arm-none-eabi/13.3.0/thumb/v7e-m+fp/hard\libgcc.a(_aeabi_uldivmod.o)
 .debug_abbrev  0x00008d68      0x16a C:/QMK_MSYS/mingw64/bin/../lib/gcc/arm-none-eabi/13.3.0/thumb/v7e-m+fp/hard\libgcc.a(_udivmoddi4.o)
 .debug_abbrev  0x00008ed2       0x26 C:/QMK_MSYS/mingw64/bin/../lib/gcc/arm-none-eabi/13.3.0/thumb/v7e-m+fp/hard\libgcc.a(_dvmd_tls.o)
 .debug_abbrev  0x00008ef8      0x220 C:/QMK_MSYS/mingw64/bin/../lib/gcc/arm-none-eabi/13.3.0/../../../../arm-none-eabi/lib/thumb/v7e-m+fp/hard\libg_nano.a(libc_a-rand.o)
 .debug_abbrev  0x00009118      0x149 C:/QMK_MSYS/mingw64/bin/../lib/gcc/arm-none-eabi/13.3.0/../../../../arm-none-eabi/lib/thumb/v7e-m+fp/hard\libg_nano.a(libc_a-impure.o)
 .debug_abbrev  0x00009261      0x1ea C:/QMK_MSYS/mingw64/bin/../lib/gcc/arm-none-eabi/13.3.0/../../../../arm-none-eabi/lib/thumb/v7e-m+fp/hard\libg_nano.a(libc_a-assert.o)
 .debug_abbrev  0x0000944b      0x1cf C:/QMK_MSYS/mingw64/bin/../lib/gcc/arm-none-eabi/13.3.0/../../../../arm-none-eabi/lib/thumb/v7e-m+fp/hard\libg_nano.a(libc_a-malloc.o)
 .debug_abbrev  0x0000961a      0x24a C:/QMK_MSYS/mingw64/bin/../lib/gcc/arm-none-eabi/13.3.0/../../../../arm-none-eabi/lib/thumb/v7e-m+fp/hard\libg_nano.a(libc_a-mallocr.o)
 .debug_abbrev  0x00009864      0x1bf C:/QMK_MSYS/mingw64/bin/../lib/gcc/arm-none-eabi/13.3.0/../../../../arm-none-eabi/lib/thumb/v7e-m+fp/hard\libg_nano.a(libc_a-mlock.o)
 .debug_abbrev  0x00009a23      0x21d C:/QMK_MSYS/mingw64/bin/../lib/gcc/arm-none-eabi/13.3.0/../../../../arm-none-eabi/lib/thumb/v7e-m+fp/hard\libg_nano.a(libc_a-fprintf.o)
 .debug_abbrev  0x00009c40      0x115 C:/QMK_MSYS/mingw64/bin/../lib/gcc/arm-none-eabi/13.3.0/../../../../arm-none-eabi/lib/thumb/v7e-m+fp/hard\libg_nano.a(libc_a-lock.o)
 .debug_abbrev  0x00009d55       0x99 C:/QMK_MSYS/mingw64/bin/../lib/gcc/arm-none-eabi/13.3.0/../../../../arm-none-eabi/lib/thumb/v7e-m+fp/hard\libg_nano.a(libc_a-abort.o)
 .debug_abbrev  0x00009dee      0x249 C:/QMK_MSYS/mingw64/bin/../lib/gcc/arm-none-eabi/13.3.0/../../../../arm-none-eabi/lib/thumb/v7e-m+fp/hard\libg_nano.a(libc_a-freer.o)
 .debug_abbrev  0x0000a037      0x377 C:/QMK_MSYS/mingw64/bin/../lib/gcc/arm-none-eabi/13.3.0/../../../../arm-none-eabi/lib/thumb/v7e-m+fp/hard\libg_nano.a(libc_a-nano-vfprintf.o)
 .debug_abbrev  0x0000a3ae      0x28d C:/QMK_MSYS/mingw64/bin/../lib/gcc/arm-none-eabi/13.3.0/../../../../arm-none-eabi/lib/thumb/v7e-m+fp/hard\libg_nano.a(libc_a-nano-vfprintf_i.o)
 .debug_abbrev  0x0000a63b      0x446 C:/QMK_MSYS/mingw64/bin/../lib/gcc/arm-none-eabi/13.3.0/../../../../arm-none-eabi/lib/thumb/v7e-m+fp/hard\libg_nano.a(libc_a-findfp.o)
 .debug_abbrev  0x0000aa81      0x21b C:/QMK_MSYS/mingw64/bin/../lib/gcc/arm-none-eabi/13.3.0/../../../../arm-none-eabi/lib/thumb/v7e-m+fp/hard\libg_nano.a(libc_a-fvwrite.o)
 .debug_abbrev  0x0000ac9c      0x19b C:/QMK_MSYS/mingw64/bin/../lib/gcc/arm-none-eabi/13.3.0/../../../../arm-none-eabi/lib/thumb/v7e-m+fp/hard\libg_nano.a(libc_a-fwalk.o)
 .debug_abbrev  0x0000ae37      0x224 C:/QMK_MSYS/mingw64/bin/../lib/gcc/arm-none-eabi/13.3.0/../../../../arm-none-eabi/lib/thumb/v7e-m+fp/hard\libg_nano.a(libc_a-stdio.o)
 .debug_abbrev  0x0000b05b      0x236 C:/QMK_MSYS/mingw64/bin/../lib/gcc/arm-none-eabi/13.3.0/../../../../arm-none-eabi/lib/thumb/v7e-m+fp/hard\libg_nano.a(libc_a-wbuf.o)
 .debug_abbrev  0x0000b291      0x1e2 C:/QMK_MSYS/mingw64/bin/../lib/gcc/arm-none-eabi/13.3.0/../../../../arm-none-eabi/lib/thumb/v7e-m+fp/hard\libg_nano.a(libc_a-wsetup.o)
 .debug_abbrev  0x0000b473       0xc3 C:/QMK_MSYS/mingw64/bin/../lib/gcc/arm-none-eabi/13.3.0/../../../../arm-none-eabi/lib/thumb/v7e-m+fp/hard\libg_nano.a(libc_a-memmove.o)
 .debug_abbrev  0x0000b536       0xb7 C:/QMK_MSYS/mingw64/bin/../lib/gcc/arm-none-eabi/13.3.0/../../../../arm-none-eabi/lib/thumb/v7e-m+fp/hard\libg_nano.a(libc_a-memset.o)
 .debug_abbrev  0x0000b5ed      0x2d7 C:/QMK_MSYS/mingw64/bin/../lib/gcc/arm-none-eabi/13.3.0/../../../../arm-none-eabi/lib/thumb/v7e-m+fp/hard\libg_nano.a(libc_a-signal.o)
 .debug_abbrev  0x0000b8c4      0x1fd C:/QMK_MSYS/mingw64/bin/../lib/gcc/arm-none-eabi/13.3.0/../../../../arm-none-eabi/lib/thumb/v7e-m+fp/hard\libg_nano.a(libc_a-signalr.o)
 .debug_abbrev  0x0000bac1       0x14 C:/QMK_MSYS/mingw64/bin/../lib/gcc/arm-none-eabi/13.3.0/../../../../arm-none-eabi/lib/thumb/v7e-m+fp/hard\libg_nano.a(libc_a-memchr.o)
 .debug_abbrev  0x0000bad5       0x28 C:/QMK_MSYS/mingw64/bin/../lib/gcc/arm-none-eabi/13.3.0/../../../../arm-none-eabi/lib/thumb/v7e-m+fp/hard\libg_nano.a(libc_a-memcpy.o)
 .debug_abbrev  0x0000bafd      0x20c C:/QMK_MSYS/mingw64/bin/../lib/gcc/arm-none-eabi/13.3.0/../../../../arm-none-eabi/lib/thumb/v7e-m+fp/hard\libg_nano.a(libc_a-reallocr.o)
 .debug_abbrev  0x0000bd09      0x2a9 C:/QMK_MSYS/mingw64/bin/../lib/gcc/arm-none-eabi/13.3.0/../../../../arm-none-eabi/lib/thumb/v7e-m+fp/hard\libg_nano.a(libc_a-fflush.o)
 .debug_abbrev  0x0000bfb2      0x29d C:/QMK_MSYS/mingw64/bin/../lib/gcc/arm-none-eabi/13.3.0/../../../../arm-none-eabi/lib/thumb/v7e-m+fp/hard\libg_nano.a(libc_a-makebuf.o)
 .debug_abbrev  0x0000c24f      0x1ee C:/QMK_MSYS/mingw64/bin/../lib/gcc/arm-none-eabi/13.3.0/../../../../arm-none-eabi/lib/thumb/v7e-m+fp/hard\libg_nano.a(libc_a-reent.o)
 .debug_abbrev  0x0000c43d      0x196 C:/QMK_MSYS/mingw64/bin/../lib/gcc/arm-none-eabi/13.3.0/../../../../arm-none-eabi/lib/thumb/v7e-m+fp/hard\libg_nano.a(libc_a-msizer.o)
 .debug_abbrev  0x0000c5d3       0x90 C:/QMK_MSYS/mingw64/bin/../lib/gcc/arm-none-eabi/13.3.0/../../../../arm-none-eabi/lib/thumb/v7e-m+fp/hard\libg_nano.a(libc_a-memcmp.o)

.debug_loclists
                0x00000000    0x10b62
 .debug_loclists
                0x00000000     0xd585 C:\QMK_MSYS\tmp\ccs2W3Vd.ltrans0.ltrans.o
 .debug_loclists
                0x0000d585      0x530 .build/obj_vessel_base/i2c_master.a(i2c_master.o)
 .debug_loclists
                0x0000dab5      0x768 C:/QMK_MSYS/mingw64/bin/../lib/gcc/arm-none-eabi/13.3.0/thumb/v7e-m+fp/hard\libgcc.a(_udivmoddi4.o)
 .debug_loclists
                0x0000e21d       0x71 C:/QMK_MSYS/mingw64/bin/../lib/gcc/arm-none-eabi/13.3.0/../../../../arm-none-eabi/lib/thumb/v7e-m+fp/hard\libg_nano.a(libc_a-rand.o)
 .debug_loclists
                0x0000e28e       0xd0 C:/QMK_MSYS/mingw64/bin/../lib/gcc/arm-none-eabi/13.3.0/../../../../arm-none-eabi/lib/thumb/v7e-m+fp/hard\libg_nano.a(libc_a-assert.o)
 .debug_loclists
                0x0000e35e       0x3e C:/QMK_MSYS/mingw64/bin/../lib/gcc/arm-none-eabi/13.3.0/../../../../arm-none-eabi/lib/thumb/v7e-m+fp/hard\libg_nano.a(libc_a-malloc.o)
 .debug_loclists
                0x0000e39c      0x223 C:/QMK_MSYS/mingw64/bin/../lib/gcc/arm-none-eabi/13.3.0/../../../../arm-none-eabi/lib/thumb/v7e-m+fp/hard\libg_nano.a(libc_a-mallocr.o)
 .debug_loclists
                0x0000e5bf       0x30 C:/QMK_MSYS/mingw64/bin/../lib/gcc/arm-none-eabi/13.3.0/../../../../arm-none-eabi/lib/thumb/v7e-m+fp/hard\libg_nano.a(libc_a-mlock.o)
 .debug_loclists
                0x0000e5ef       0x59 C:/QMK_MSYS/mingw64/bin/../lib/gcc/arm-none-eabi/13.3.0/../../../../arm-none-eabi/lib/thumb/v7e-m+fp/hard\libg_nano.a(libc_a-fprintf.o)
 .debug_loclists
                0x0000e648       0x1e C:/QMK_MSYS/mingw64/bin/../lib/gcc/arm-none-eabi/13.3.0/../../../../arm-none-eabi/lib/thumb/v7e-m+fp/hard\libg_nano.a(libc_a-lock.o)
 .debug_loclists
                0x0000e666      0x146 C:/QMK_MSYS/mingw64/bin/../lib/gcc/arm-none-eabi/13.3.0/../../../../arm-none-eabi/lib/thumb/v7e-m+fp/hard\libg_nano.a(libc_a-freer.o)
 .debug_loclists
                0x0000e7ac      0x592 C:/QMK_MSYS/mingw64/bin/../lib/gcc/arm-none-eabi/13.3.0/../../../../arm-none-eabi/lib/thumb/v7e-m+fp/hard\libg_nano.a(libc_a-nano-vfprintf.o)
 .debug_loclists
                0x0000ed3e      0x3a5 C:/QMK_MSYS/mingw64/bin/../lib/gcc/arm-none-eabi/13.3.0/../../../../arm-none-eabi/lib/thumb/v7e-m+fp/hard\libg_nano.a(libc_a-nano-vfprintf_i.o)
 .debug_loclists
                0x0000f0e3      0x264 C:/QMK_MSYS/mingw64/bin/../lib/gcc/arm-none-eabi/13.3.0/../../../../arm-none-eabi/lib/thumb/v7e-m+fp/hard\libg_nano.a(libc_a-findfp.o)
 .debug_loclists
                0x0000f347      0x424 C:/QMK_MSYS/mingw64/bin/../lib/gcc/arm-none-eabi/13.3.0/../../../../arm-none-eabi/lib/thumb/v7e-m+fp/hard\libg_nano.a(libc_a-fvwrite.o)
 .debug_loclists
                0x0000f76b       0x79 C:/QMK_MSYS/mingw64/bin/../lib/gcc/arm-none-eabi/13.3.0/../../../../arm-none-eabi/lib/thumb/v7e-m+fp/hard\libg_nano.a(libc_a-fwalk.o)
 .debug_loclists
                0x0000f7e4      0x1e1 C:/QMK_MSYS/mingw64/bin/../lib/gcc/arm-none-eabi/13.3.0/../../../../arm-none-eabi/lib/thumb/v7e-m+fp/hard\libg_nano.a(libc_a-stdio.o)
 .debug_loclists
                0x0000f9c5       0xf2 C:/QMK_MSYS/mingw64/bin/../lib/gcc/arm-none-eabi/13.3.0/../../../../arm-none-eabi/lib/thumb/v7e-m+fp/hard\libg_nano.a(libc_a-wbuf.o)
 .debug_loclists
                0x0000fab7       0x61 C:/QMK_MSYS/mingw64/bin/../lib/gcc/arm-none-eabi/13.3.0/../../../../arm-none-eabi/lib/thumb/v7e-m+fp/hard\libg_nano.a(libc_a-wsetup.o)
 .debug_loclists
                0x0000fb18      0x209 C:/QMK_MSYS/mingw64/bin/../lib/gcc/arm-none-eabi/13.3.0/../../../../arm-none-eabi/lib/thumb/v7e-m+fp/hard\libg_nano.a(libc_a-memmove.o)
 .debug_loclists
                0x0000fd21      0x1b6 C:/QMK_MSYS/mingw64/bin/../lib/gcc/arm-none-eabi/13.3.0/../../../../arm-none-eabi/lib/thumb/v7e-m+fp/hard\libg_nano.a(libc_a-memset.o)
 .debug_loclists
                0x0000fed7      0x516 C:/QMK_MSYS/mingw64/bin/../lib/gcc/arm-none-eabi/13.3.0/../../../../arm-none-eabi/lib/thumb/v7e-m+fp/hard\libg_nano.a(libc_a-signal.o)
 .debug_loclists
                0x000103ed       0x71 C:/QMK_MSYS/mingw64/bin/../lib/gcc/arm-none-eabi/13.3.0/../../../../arm-none-eabi/lib/thumb/v7e-m+fp/hard\libg_nano.a(libc_a-signalr.o)
 .debug_loclists
                0x0001045e       0xf2 C:/QMK_MSYS/mingw64/bin/../lib/gcc/arm-none-eabi/13.3.0/../../../../arm-none-eabi/lib/thumb/v7e-m+fp/hard\libg_nano.a(libc_a-reallocr.o)
 .debug_loclists
                0x00010550      0x240 C:/QMK_MSYS/mingw64/bin/../lib/gcc/arm-none-eabi/13.3.0/../../../../arm-none-eabi/lib/thumb/v7e-m+fp/hard\libg_nano.a(libc_a-fflush.o)
 .debug_loclists
                0x00010790      0x1a2 C:/QMK_MSYS/mingw64/bin/../lib/gcc/arm-none-eabi/13.3.0/../../../../arm-none-eabi/lib/thumb/v7e-m+fp/hard\libg_nano.a(libc_a-makebuf.o)
 .debug_loclists
                0x00010932       0x7a C:/QMK_MSYS/mingw64/bin/../lib/gcc/arm-none-eabi/13.3.0/../../../../arm-none-eabi/lib/thumb/v7e-m+fp/hard\libg_nano.a(libc_a-reent.o)
 .debug_loclists
                0x000109ac       0x53 C:/QMK_MSYS/mingw64/bin/../lib/gcc/arm-none-eabi/13.3.0/../../../../arm-none-eabi/lib/thumb/v7e-m+fp/hard\libg_nano.a(libc_a-msizer.o)
 .debug_loclists
                0x000109ff      0x163 C:/QMK_MSYS/mingw64/bin/../lib/gcc/arm-none-eabi/13.3.0/../../../../arm-none-eabi/lib/thumb/v7e-m+fp/hard\libg_nano.a(libc_a-memcmp.o)

.debug_aranges  0x00000000      0xcc0
 .debug_aranges
                0x00000000      0x848 C:\QMK_MSYS\tmp\ccs2W3Vd.ltrans0.ltrans.o
 .debug_aranges
                0x00000848       0x60 .build/obj_vessel_base/i2c_master.a(i2c_master.o)
 .debug_aranges
                0x000008a8       0x20 C:/QMK_MSYS/mingw64/bin/../lib/gcc/arm-none-eabi/13.3.0/thumb/v7e-m+fp/hard\libgcc.a(_aeabi_uldivmod.o)
 .debug_aranges
                0x000008c8       0x20 C:/QMK_MSYS/mingw64/bin/../lib/gcc/arm-none-eabi/13.3.0/thumb/v7e-m+fp/hard\libgcc.a(_udivmoddi4.o)
 .debug_aranges
                0x000008e8       0x20 C:/QMK_MSYS/mingw64/bin/../lib/gcc/arm-none-eabi/13.3.0/thumb/v7e-m+fp/hard\libgcc.a(_dvmd_tls.o)
 .debug_aranges
                0x00000908       0x20 C:/QMK_MSYS/mingw64/bin/../lib/gcc/arm-none-eabi/13.3.0/../../../../arm-none-eabi/lib/thumb/v7e-m+fp/hard\libg_nano.a(libc_a-rand.o)
 .debug_aranges
                0x00000928       0x18 C:/QMK_MSYS/mingw64/bin/../lib/gcc/arm-none-eabi/13.3.0/../../../../arm-none-eabi/lib/thumb/v7e-m+fp/hard\libg_nano.a(libc_a-impure.o)
 .debug_aranges
                0x00000940       0x20 C:/QMK_MSYS/mingw64/bin/../lib/gcc/arm-none-eabi/13.3.0/../../../../arm-none-eabi/lib/thumb/v7e-m+fp/hard\libg_nano.a(libc_a-assert.o)
 .debug_aranges
                0x00000960       0x20 C:/QMK_MSYS/mingw64/bin/../lib/gcc/arm-none-eabi/13.3.0/../../../../arm-none-eabi/lib/thumb/v7e-m+fp/hard\libg_nano.a(libc_a-malloc.o)
 .debug_aranges
                0x00000980       0x20 C:/QMK_MSYS/mingw64/bin/../lib/gcc/arm-none-eabi/13.3.0/../../../../arm-none-eabi/lib/thumb/v7e-m+fp/hard\libg_nano.a(libc_a-mallocr.o)
 .debug_aranges
                0x000009a0       0x20 C:/QMK_MSYS/mingw64/bin/../lib/gcc/arm-none-eabi/13.3.0/../../../../arm-none-eabi/lib/thumb/v7e-m+fp/hard\libg_nano.a(libc_a-mlock.o)
 .debug_aranges
                0x000009c0       0x20 C:/QMK_MSYS/mingw64/bin/../lib/gcc/arm-none-eabi/13.3.0/../../../../arm-none-eabi/lib/thumb/v7e-m+fp/hard\libg_nano.a(libc_a-fprintf.o)
 .debug_aranges
                0x000009e0       0x20 C:/QMK_MSYS/mingw64/bin/../lib/gcc/arm-none-eabi/13.3.0/../../../../arm-none-eabi/lib/thumb/v7e-m+fp/hard\libg_nano.a(libc_a-lock.o)
 .debug_aranges
                0x00000a00       0x20 C:/QMK_MSYS/mingw64/bin/../lib/gcc/arm-none-eabi/13.3.0/../../../../arm-none-eabi/lib/thumb/v7e-m+fp/hard\libg_nano.a(libc_a-abort.o)
 .debug_aranges
                0x00000a20       0x20 C:/QMK_MSYS/mingw64/bin/../lib/gcc/arm-none-eabi/13.3.0/../../../../arm-none-eabi/lib/thumb/v7e-m+fp/hard\libg_nano.a(libc_a-freer.o)
 .debug_aranges
                0x00000a40       0x20 C:/QMK_MSYS/mingw64/bin/../lib/gcc/arm-none-eabi/13.3.0/../../../../arm-none-eabi/lib/thumb/v7e-m+fp/hard\libg_nano.a(libc_a-nano-vfprintf.o)
 .debug_aranges
                0x00000a60       0x20 C:/QMK_MSYS/mingw64/bin/../lib/gcc/arm-none-eabi/13.3.0/../../../../arm-none-eabi/lib/thumb/v7e-m+fp/hard\libg_nano.a(libc_a-nano-vfprintf_i.o)
 .debug_aranges
                0x00000a80       0x20 C:/QMK_MSYS/mingw64/bin/../lib/gcc/arm-none-eabi/13.3.0/../../../../arm-none-eabi/lib/thumb/v7e-m+fp/hard\libg_nano.a(libc_a-findfp.o)
 .debug_aranges
                0x00000aa0       0x20 C:/QMK_MSYS/mingw64/bin/../lib/gcc/arm-none-eabi/13.3.0/../../../../arm-none-eabi/lib/thumb/v7e-m+fp/hard\libg_nano.a(libc_a-fvwrite.o)
 .debug_aranges
                0x00000ac0       0x20 C:/QMK_MSYS/mingw64/bin/../lib/gcc/arm-none-eabi/13.3.0/../../../../arm-none-eabi/lib/thumb/v7e-m+fp/hard\libg_nano.a(libc_a-fwalk.o)
 .debug_aranges
                0x00000ae0       0x20 C:/QMK_MSYS/mingw64/bin/../lib/gcc/arm-none-eabi/13.3.0/../../../../arm-none-eabi/lib/thumb/v7e-m+fp/hard\libg_nano.a(libc_a-stdio.o)
 .debug_aranges
                0x00000b00       0x20 C:/QMK_MSYS/mingw64/bin/../lib/gcc/arm-none-eabi/13.3.0/../../../../arm-none-eabi/lib/thumb/v7e-m+fp/hard\libg_nano.a(libc_a-wbuf.o)
 .debug_aranges
                0x00000b20       0x20 C:/QMK_MSYS/mingw64/bin/../lib/gcc/arm-none-eabi/13.3.0/../../../../arm-none-eabi/lib/thumb/v7e-m+fp/hard\libg_nano.a(libc_a-wsetup.o)
 .debug_aranges
                0x00000b40       0x20 C:/QMK_MSYS/mingw64/bin/../lib/gcc/arm-none-eabi/13.3.0/../../../../arm-none-eabi/lib/thumb/v7e-m+fp/hard\libg_nano.a(libc_a-memmove.o)
 .debug_aranges
                0x00000b60       0x20 C:/QMK_MSYS/mingw64/bin/../lib/gcc/arm-none-eabi/13.3.0/../../../../arm-none-eabi/lib/thumb/v7e-m+fp/hard\libg_nano.a(libc_a-memset.o)
 .debug_aranges
                0x00000b80       0x20 C:/QMK_MSYS/mingw64/bin/../lib/gcc/arm-none-eabi/13.3.0/../../../../arm-none-eabi/lib/thumb/v7e-m+fp/hard\libg_nano.a(libc_a-signal.o)
 .debug_aranges
                0x00000ba0       0x20 C:/QMK_MSYS/mingw64/bin/../lib/gcc/arm-none-eabi/13.3.0/../../../../arm-none-eabi/lib/thumb/v7e-m+fp/hard\libg_nano.a(libc_a-signalr.o)
 .debug_aranges
                0x00000bc0       0x20 C:/QMK_MSYS/mingw64/bin/../lib/gcc/arm-none-eabi/13.3.0/../../../../arm-none-eabi/lib/thumb/v7e-m+fp/hard\libg_nano.a(libc_a-memchr.o)
 .debug_aranges
                0x00000be0       0x20 C:/QMK_MSYS/mingw64/bin/../lib/gcc/arm-none-eabi/13.3.0/../../../../arm-none-eabi/lib/thumb/v7e-m+fp/hard\libg_nano.a(libc_a-memcpy.o)
 .debug_aranges
                0x00000c00       0x20 C:/QMK_MSYS/mingw64/bin/../lib/gcc/arm-none-eabi/13.3.0/../../../../arm-none-eabi/lib/thumb/v7e-m+fp/hard\libg_nano.a(libc_a-reallocr.o)
 .debug_aranges
                0x00000c20       0x20 C:/QMK_MSYS/mingw64/bin/../lib/gcc/arm-none-eabi/13.3.0/../../../../arm-none-eabi/lib/thumb/v7e-m+fp/hard\libg_nano.a(libc_a-fflush.o)
 .debug_aranges
                0x00000c40       0x20 C:/QMK_MSYS/mingw64/bin/../lib/gcc/arm-none-eabi/13.3.0/../../../../arm-none-eabi/lib/thumb/v7e-m+fp/hard\libg_nano.a(libc_a-makebuf.o)
 .debug_aranges
                0x00000c60       0x20 C:/QMK_MSYS/mingw64/bin/../lib/gcc/arm-none-eabi/13.3.0/../../../../arm-none-eabi/lib/thumb/v7e-m+fp/hard\libg_nano.a(libc_a-reent.o)
 .debug_aranges
                0x00000c80       0x20 C:/QMK_MSYS/mingw64/bin/../lib/gcc/arm-none-eabi/13.3.0/../../../../arm-none-eabi/lib/thumb/v7e-m+fp/hard\libg_nano.a(libc_a-msizer.o)
 .debug_aranges
                0x00000ca0       0x20 C:/QMK_MSYS/mingw64/bin/../lib/gcc/arm-none-eabi/13.3.0/../../../../arm-none-eabi/lib/thumb/v7e-m+fp/hard\libg_nano.a(libc_a-memcmp.o)

.debug_rnglists
                0x00000000     0x25b1
 .debug_rnglists
                0x00000000     0x224c C:\QMK_MSYS\tmp\ccs2W3Vd.ltrans0.ltrans.o
 .debug_rnglists
                0x0000224c       0x60 .build/obj_vessel_base/i2c_master.a(i2c_master.o)
 .debug_rnglists
                0x000022ac       0x6d C:/QMK_MSYS/mingw64/bin/../lib/gcc/arm-none-eabi/13.3.0/thumb/v7e-m+fp/hard\libgcc.a(_udivmoddi4.o)
 .debug_rnglists
                0x00002319       0x3c C:/QMK_MSYS/mingw64/bin/../lib/gcc/arm-none-eabi/13.3.0/../../../../arm-none-eabi/lib/thumb/v7e-m+fp/hard\libg_nano.a(libc_a-rand.o)
 .debug_rnglists
                0x00002355       0x19 C:/QMK_MSYS/mingw64/bin/../lib/gcc/arm-none-eabi/13.3.0/../../../../arm-none-eabi/lib/thumb/v7e-m+fp/hard\libg_nano.a(libc_a-mallocr.o)
 .debug_rnglists
                0x0000236e       0x13 C:/QMK_MSYS/mingw64/bin/../lib/gcc/arm-none-eabi/13.3.0/../../../../arm-none-eabi/lib/thumb/v7e-m+fp/hard\libg_nano.a(libc_a-freer.o)
 .debug_rnglists
                0x00002381       0x1c C:/QMK_MSYS/mingw64/bin/../lib/gcc/arm-none-eabi/13.3.0/../../../../arm-none-eabi/lib/thumb/v7e-m+fp/hard\libg_nano.a(libc_a-nano-vfprintf.o)
 .debug_rnglists
                0x0000239d       0x61 C:/QMK_MSYS/mingw64/bin/../lib/gcc/arm-none-eabi/13.3.0/../../../../arm-none-eabi/lib/thumb/v7e-m+fp/hard\libg_nano.a(libc_a-nano-vfprintf_i.o)
 .debug_rnglists
                0x000023fe       0x9f C:/QMK_MSYS/mingw64/bin/../lib/gcc/arm-none-eabi/13.3.0/../../../../arm-none-eabi/lib/thumb/v7e-m+fp/hard\libg_nano.a(libc_a-findfp.o)
 .debug_rnglists
                0x0000249d       0x2b C:/QMK_MSYS/mingw64/bin/../lib/gcc/arm-none-eabi/13.3.0/../../../../arm-none-eabi/lib/thumb/v7e-m+fp/hard\libg_nano.a(libc_a-fvwrite.o)
 .debug_rnglists
                0x000024c8       0x18 C:/QMK_MSYS/mingw64/bin/../lib/gcc/arm-none-eabi/13.3.0/../../../../arm-none-eabi/lib/thumb/v7e-m+fp/hard\libg_nano.a(libc_a-wbuf.o)
 .debug_rnglists
                0x000024e0       0x1b C:/QMK_MSYS/mingw64/bin/../lib/gcc/arm-none-eabi/13.3.0/../../../../arm-none-eabi/lib/thumb/v7e-m+fp/hard\libg_nano.a(libc_a-wsetup.o)
 .debug_rnglists
                0x000024fb       0x65 C:/QMK_MSYS/mingw64/bin/../lib/gcc/arm-none-eabi/13.3.0/../../../../arm-none-eabi/lib/thumb/v7e-m+fp/hard\libg_nano.a(libc_a-signal.o)
 .debug_rnglists
                0x00002560       0x34 C:/QMK_MSYS/mingw64/bin/../lib/gcc/arm-none-eabi/13.3.0/../../../../arm-none-eabi/lib/thumb/v7e-m+fp/hard\libg_nano.a(libc_a-fflush.o)
 .debug_rnglists
                0x00002594       0x1d C:/QMK_MSYS/mingw64/bin/../lib/gcc/arm-none-eabi/13.3.0/../../../../arm-none-eabi/lib/thumb/v7e-m+fp/hard\libg_nano.a(libc_a-makebuf.o)

.debug_line     0x00000000    0x179b5
 .debug_line    0x00000000     0xf0c8 C:\QMK_MSYS\tmp\ccs2W3Vd.ltrans0.ltrans.o
 .debug_line    0x0000f0c8       0x71 C:\QMK_MSYS\tmp\ccYy8zNJ.debug.temp.o
 .debug_line    0x0000f139       0xcf C:\QMK_MSYS\tmp\cc8jr1VC.debug.temp.o
 .debug_line    0x0000f208       0xc8 C:\QMK_MSYS\tmp\ccO4b5Y3.debug.temp.o
 .debug_line    0x0000f2d0       0x6c C:\QMK_MSYS\tmp\ccU9JcqW.debug.temp.o
 .debug_line    0x0000f33c       0xb1 C:\QMK_MSYS\tmp\ccgoXcxn.debug.temp.o
 .debug_line    0x0000f3ed       0x77 C:\QMK_MSYS\tmp\ccsxOlSO.debug.temp.o
 .debug_line    0x0000f464       0x65 C:\QMK_MSYS\tmp\cciViwbg.debug.temp.o
 .debug_line    0x0000f4c9       0x7b C:\QMK_MSYS\tmp\cca0yIIH.debug.temp.o
 .debug_line    0x0000f544       0x6c C:\QMK_MSYS\tmp\cc0pCGa9.debug.temp.o
 .debug_line    0x0000f5b0       0xd4 C:\QMK_MSYS\tmp\ccwjgFEz.debug.temp.o
 .debug_line    0x0000f684       0x85 C:\QMK_MSYS\tmp\ccunYi4Z.debug.temp.o
 .debug_line    0x0000f709       0x5b C:\QMK_MSYS\tmp\cci23xsq.debug.temp.o
 .debug_line    0x0000f764       0x51 C:\QMK_MSYS\tmp\ccaulbyh.debug.temp.o
 .debug_line    0x0000f7b5       0x4c C:\QMK_MSYS\tmp\ccEA8olI.debug.temp.o
 .debug_line    0x0000f801       0x51 C:\QMK_MSYS\tmp\ccWeMX28.debug.temp.o
 .debug_line    0x0000f852       0x76 C:\QMK_MSYS\tmp\cco2DIJz.debug.temp.o
 .debug_line    0x0000f8c8       0x9f C:\QMK_MSYS\tmp\ccmAD3C0.debug.temp.o
 .debug_line    0x0000f967       0x70 C:\QMK_MSYS\tmp\cc47Kovr.debug.temp.o
 .debug_line    0x0000f9d7       0x3f C:\QMK_MSYS\tmp\ccsbw1pR.debug.temp.o
 .debug_line    0x0000fa16       0x64 C:\QMK_MSYS\tmp\cc6u1jfh.debug.temp.o
 .debug_line    0x0000fa7a       0x67 C:\QMK_MSYS\tmp\ccWqp82G.debug.temp.o
 .debug_line    0x0000fae1       0x5e C:\QMK_MSYS\tmp\cc2KLL36.debug.temp.o
 .debug_line    0x0000fb3f       0x56 C:\QMK_MSYS\tmp\ccCAUx2w.debug.temp.o
 .debug_line    0x0000fb95      0x185 C:\QMK_MSYS\tmp\ccavKcfX.debug.temp.o
 .debug_line    0x0000fd1a       0x63 C:\QMK_MSYS\tmp\ccGKnDmn.debug.temp.o
 .debug_line    0x0000fd7d       0x72 C:\QMK_MSYS\tmp\cce79oHN.debug.temp.o
 .debug_line    0x0000fdef       0x51 C:\QMK_MSYS\tmp\cckRVoYd.debug.temp.o
 .debug_line    0x0000fe40       0x4c C:\QMK_MSYS\tmp\ccqbgfYH.debug.temp.o
 .debug_line    0x0000fe8c       0x7a C:\QMK_MSYS\tmp\cciESETb.debug.temp.o
 .debug_line    0x0000ff06       0x92 C:\QMK_MSYS\tmp\ccGvlT2F.debug.temp.o
 .debug_line    0x0000ff98       0x83 C:\QMK_MSYS\tmp\cc4I5Saa.debug.temp.o
 .debug_line    0x0001001b       0x7e C:\QMK_MSYS\tmp\ccSnR1cE.debug.temp.o
 .debug_line    0x00010099       0x71 C:\QMK_MSYS\tmp\ccyWH1w8.debug.temp.o
 .debug_line    0x0001010a       0x72 C:\QMK_MSYS\tmp\ccoCtGLC.debug.temp.o
 .debug_line    0x0001017c       0x69 C:\QMK_MSYS\tmp\ccQpxRe7.debug.temp.o
 .debug_line    0x000101e5       0x64 C:\QMK_MSYS\tmp\ccMU9izB.debug.temp.o
 .debug_line    0x00010249       0x55 C:\QMK_MSYS\tmp\ccO4Lu04.debug.temp.o
 .debug_line    0x0001029e       0x68 C:\QMK_MSYS\tmp\ccgPjOV1.debug.temp.o
 .debug_line    0x00010306       0xa1 C:\QMK_MSYS\tmp\ccwAvutv.debug.temp.o
 .debug_line    0x000103a7       0x68 C:\QMK_MSYS\tmp\ccW8nlXY.debug.temp.o
 .debug_line    0x0001040f       0x80 C:\QMK_MSYS\tmp\cccktRCs.debug.temp.o
 .debug_line    0x0001048f       0x51 C:\QMK_MSYS\tmp\cc6pXUhW.debug.temp.o
 .debug_line    0x000104e0       0x55 C:\QMK_MSYS\tmp\ccek32UT.debug.temp.o
 .debug_line    0x00010535       0x4c C:\QMK_MSYS\tmp\ccwnQKdL.debug.temp.o
 .debug_line    0x00010581       0x7f C:\QMK_MSYS\tmp\ccOJie5d.debug.temp.o
 .debug_line    0x00010600       0x7a C:\QMK_MSYS\tmp\ccG4SEeH.debug.temp.o
 .debug_line    0x0001067a       0x5f C:\QMK_MSYS\tmp\cckinsha.debug.temp.o
 .debug_line    0x000106d9      0x112 C:\QMK_MSYS\tmp\ccgRbtjD.debug.temp.o
 .debug_line    0x000107eb       0xe4 C:\QMK_MSYS\tmp\ccGbXBy6.debug.temp.o
 .debug_line    0x000108cf       0x71 C:\QMK_MSYS\tmp\ccqU3HIz.debug.temp.o
 .debug_line    0x00010940       0xda C:\QMK_MSYS\tmp\cccI8FZ1.debug.temp.o
 .debug_line    0x00010a1a       0xcc C:\QMK_MSYS\tmp\ccuGGubu.debug.temp.o
 .debug_line    0x00010ae6      0x105 C:\QMK_MSYS\tmp\ccwcIvzW.debug.temp.o
 .debug_line    0x00010beb       0x4c C:\QMK_MSYS\tmp\ccU2tOfR.debug.temp.o
 .debug_line    0x00010c37       0xc3 C:\QMK_MSYS\tmp\ccOcGXKj.debug.temp.o
 .debug_line    0x00010cfa       0x8f C:\QMK_MSYS\tmp\ccW11CeM.debug.temp.o
 .debug_line    0x00010d89       0xa6 C:\QMK_MSYS\tmp\ccS8sjUd.debug.temp.o
 .debug_line    0x00010e2f       0x9d C:\QMK_MSYS\tmp\ccMcYjfK.debug.temp.o
 .debug_line    0x00010ecc       0xa2 C:\QMK_MSYS\tmp\ccyqoOug.debug.temp.o
 .debug_line    0x00010f6e       0xb9 C:\QMK_MSYS\tmp\cccqrNWM.debug.temp.o
 .debug_line    0x00011027       0xa2 C:\QMK_MSYS\tmp\cckT9yUp.debug.temp.o
 .debug_line    0x000110c9       0xa2 C:\QMK_MSYS\tmp\ccUajHNZ.debug.temp.o
 .debug_line    0x0001116b       0x79 C:\QMK_MSYS\tmp\ccCSIbRx.debug.temp.o
 .debug_line    0x000111e4       0x71 C:\QMK_MSYS\tmp\ccgwBwl6.debug.temp.o
 .debug_line    0x00011255       0x67 C:\QMK_MSYS\tmp\ccKS4vMB.debug.temp.o
 .debug_line    0x000112bc       0xa4 C:\QMK_MSYS\tmp\cca7GX86.debug.temp.o
 .debug_line    0x00011360       0xce C:\QMK_MSYS\tmp\ccEe4n45.debug.temp.o
 .debug_line    0x0001142e       0xd4 C:\QMK_MSYS\tmp\ccKK5gCm.debug.temp.o
 .debug_line    0x00011502       0x55 C:\QMK_MSYS\tmp\ccCHaup1.debug.temp.o
 .debug_line    0x00011557      0x113 C:\QMK_MSYS\tmp\ccaMHsKz.debug.temp.o
 .debug_line    0x0001166a       0x71 C:\QMK_MSYS\tmp\cco0Ypj8.debug.temp.o
 .debug_line    0x000116db       0x87 C:\QMK_MSYS\tmp\cc4Drlro.debug.temp.o
 .debug_line    0x00011762       0x56 C:\QMK_MSYS\tmp\ccAQkt0t.debug.temp.o
 .debug_line    0x000117b8       0xe7 C:\QMK_MSYS\tmp\ccQpYuI1.debug.temp.o
 .debug_line    0x0001189f       0xdd C:\QMK_MSYS\tmp\ccu6aUw7.debug.temp.o
 .debug_line    0x0001197c       0x82 C:\QMK_MSYS\tmp\cc6xi9gk.debug.temp.o
 .debug_line    0x000119fe       0x67 C:\QMK_MSYS\tmp\ccurH6dg.debug.temp.o
 .debug_line    0x00011a65       0x93 C:\QMK_MSYS\tmp\ccad69BR.debug.temp.o
 .debug_line    0x00011af8       0x78 C:\QMK_MSYS\tmp\ccAjuQ4s.debug.temp.o
 .debug_line    0x00011b70      0x5e8 .build/obj_vessel_base/i2c_master.a(i2c_master.o)
 .debug_line    0x00012158       0x4e C:/QMK_MSYS/mingw64/bin/../lib/gcc/arm-none-eabi/13.3.0/thumb/v7e-m+fp/hard\libgcc.a(_aeabi_uldivmod.o)
 .debug_line    0x000121a6      0x503 C:/QMK_MSYS/mingw64/bin/../lib/gcc/arm-none-eabi/13.3.0/thumb/v7e-m+fp/hard\libgcc.a(_udivmoddi4.o)
 .debug_line    0x000126a9       0x4a C:/QMK_MSYS/mingw64/bin/../lib/gcc/arm-none-eabi/13.3.0/thumb/v7e-m+fp/hard\libgcc.a(_dvmd_tls.o)
 .debug_line    0x000126f3      0x2aa C:/QMK_MSYS/mingw64/bin/../lib/gcc/arm-none-eabi/13.3.0/../../../../arm-none-eabi/lib/thumb/v7e-m+fp/hard\libg_nano.a(libc_a-rand.o)
 .debug_line    0x0001299d       0xfb C:/QMK_MSYS/mingw64/bin/../lib/gcc/arm-none-eabi/13.3.0/../../../../arm-none-eabi/lib/thumb/v7e-m+fp/hard\libg_nano.a(libc_a-impure.o)
 .debug_line    0x00012a98      0x1aa C:/QMK_MSYS/mingw64/bin/../lib/gcc/arm-none-eabi/13.3.0/../../../../arm-none-eabi/lib/thumb/v7e-m+fp/hard\libg_nano.a(libc_a-assert.o)
 .debug_line    0x00012c42      0x175 C:/QMK_MSYS/mingw64/bin/../lib/gcc/arm-none-eabi/13.3.0/../../../../arm-none-eabi/lib/thumb/v7e-m+fp/hard\libg_nano.a(libc_a-malloc.o)
 .debug_line    0x00012db7      0x42a C:/QMK_MSYS/mingw64/bin/../lib/gcc/arm-none-eabi/13.3.0/../../../../arm-none-eabi/lib/thumb/v7e-m+fp/hard\libg_nano.a(libc_a-mallocr.o)
 .debug_line    0x000131e1      0x162 C:/QMK_MSYS/mingw64/bin/../lib/gcc/arm-none-eabi/13.3.0/../../../../arm-none-eabi/lib/thumb/v7e-m+fp/hard\libg_nano.a(libc_a-mlock.o)
 .debug_line    0x00013343      0x1b4 C:/QMK_MSYS/mingw64/bin/../lib/gcc/arm-none-eabi/13.3.0/../../../../arm-none-eabi/lib/thumb/v7e-m+fp/hard\libg_nano.a(libc_a-fprintf.o)
 .debug_line    0x000134f7       0xd7 C:/QMK_MSYS/mingw64/bin/../lib/gcc/arm-none-eabi/13.3.0/../../../../arm-none-eabi/lib/thumb/v7e-m+fp/hard\libg_nano.a(libc_a-lock.o)
 .debug_line    0x000135ce      0x110 C:/QMK_MSYS/mingw64/bin/../lib/gcc/arm-none-eabi/13.3.0/../../../../arm-none-eabi/lib/thumb/v7e-m+fp/hard\libg_nano.a(libc_a-abort.o)
 .debug_line    0x000136de      0x2d5 C:/QMK_MSYS/mingw64/bin/../lib/gcc/arm-none-eabi/13.3.0/../../../../arm-none-eabi/lib/thumb/v7e-m+fp/hard\libg_nano.a(libc_a-freer.o)
 .debug_line    0x000139b3      0x6f0 C:/QMK_MSYS/mingw64/bin/../lib/gcc/arm-none-eabi/13.3.0/../../../../arm-none-eabi/lib/thumb/v7e-m+fp/hard\libg_nano.a(libc_a-nano-vfprintf.o)
 .debug_line    0x000140a3      0x752 C:/QMK_MSYS/mingw64/bin/../lib/gcc/arm-none-eabi/13.3.0/../../../../arm-none-eabi/lib/thumb/v7e-m+fp/hard\libg_nano.a(libc_a-nano-vfprintf_i.o)
 .debug_line    0x000147f5      0x63e C:/QMK_MSYS/mingw64/bin/../lib/gcc/arm-none-eabi/13.3.0/../../../../arm-none-eabi/lib/thumb/v7e-m+fp/hard\libg_nano.a(libc_a-findfp.o)
 .debug_line    0x00014e33      0x60a C:/QMK_MSYS/mingw64/bin/../lib/gcc/arm-none-eabi/13.3.0/../../../../arm-none-eabi/lib/thumb/v7e-m+fp/hard\libg_nano.a(libc_a-fvwrite.o)
 .debug_line    0x0001543d      0x1d4 C:/QMK_MSYS/mingw64/bin/../lib/gcc/arm-none-eabi/13.3.0/../../../../arm-none-eabi/lib/thumb/v7e-m+fp/hard\libg_nano.a(libc_a-fwalk.o)
 .debug_line    0x00015611      0x235 C:/QMK_MSYS/mingw64/bin/../lib/gcc/arm-none-eabi/13.3.0/../../../../arm-none-eabi/lib/thumb/v7e-m+fp/hard\libg_nano.a(libc_a-stdio.o)
 .debug_line    0x00015846      0x267 C:/QMK_MSYS/mingw64/bin/../lib/gcc/arm-none-eabi/13.3.0/../../../../arm-none-eabi/lib/thumb/v7e-m+fp/hard\libg_nano.a(libc_a-wbuf.o)
 .debug_line    0x00015aad      0x2da C:/QMK_MSYS/mingw64/bin/../lib/gcc/arm-none-eabi/13.3.0/../../../../arm-none-eabi/lib/thumb/v7e-m+fp/hard\libg_nano.a(libc_a-wsetup.o)
 .debug_line    0x00015d87      0x207 C:/QMK_MSYS/mingw64/bin/../lib/gcc/arm-none-eabi/13.3.0/../../../../arm-none-eabi/lib/thumb/v7e-m+fp/hard\libg_nano.a(libc_a-memmove.o)
 .debug_line    0x00015f8e      0x1cd C:/QMK_MSYS/mingw64/bin/../lib/gcc/arm-none-eabi/13.3.0/../../../../arm-none-eabi/lib/thumb/v7e-m+fp/hard\libg_nano.a(libc_a-memset.o)
 .debug_line    0x0001615b      0x61c C:/QMK_MSYS/mingw64/bin/../lib/gcc/arm-none-eabi/13.3.0/../../../../arm-none-eabi/lib/thumb/v7e-m+fp/hard\libg_nano.a(libc_a-signal.o)
 .debug_line    0x00016777      0x1cb C:/QMK_MSYS/mingw64/bin/../lib/gcc/arm-none-eabi/13.3.0/../../../../arm-none-eabi/lib/thumb/v7e-m+fp/hard\libg_nano.a(libc_a-signalr.o)
 .debug_line    0x00016942       0x84 C:/QMK_MSYS/mingw64/bin/../lib/gcc/arm-none-eabi/13.3.0/../../../../arm-none-eabi/lib/thumb/v7e-m+fp/hard\libg_nano.a(libc_a-memchr.o)
 .debug_line    0x000169c6       0xb9 C:/QMK_MSYS/mingw64/bin/../lib/gcc/arm-none-eabi/13.3.0/../../../../arm-none-eabi/lib/thumb/v7e-m+fp/hard\libg_nano.a(libc_a-memcpy.o)
 .debug_line    0x00016a7f      0x1f8 C:/QMK_MSYS/mingw64/bin/../lib/gcc/arm-none-eabi/13.3.0/../../../../arm-none-eabi/lib/thumb/v7e-m+fp/hard\libg_nano.a(libc_a-reallocr.o)
 .debug_line    0x00016c77      0x425 C:/QMK_MSYS/mingw64/bin/../lib/gcc/arm-none-eabi/13.3.0/../../../../arm-none-eabi/lib/thumb/v7e-m+fp/hard\libg_nano.a(libc_a-fflush.o)
 .debug_line    0x0001709c      0x397 C:/QMK_MSYS/mingw64/bin/../lib/gcc/arm-none-eabi/13.3.0/../../../../arm-none-eabi/lib/thumb/v7e-m+fp/hard\libg_nano.a(libc_a-makebuf.o)
 .debug_line    0x00017433      0x285 C:/QMK_MSYS/mingw64/bin/../lib/gcc/arm-none-eabi/13.3.0/../../../../arm-none-eabi/lib/thumb/v7e-m+fp/hard\libg_nano.a(libc_a-reent.o)
 .debug_line    0x000176b8      0x180 C:/QMK_MSYS/mingw64/bin/../lib/gcc/arm-none-eabi/13.3.0/../../../../arm-none-eabi/lib/thumb/v7e-m+fp/hard\libg_nano.a(libc_a-msizer.o)
 .debug_line    0x00017838      0x17d C:/QMK_MSYS/mingw64/bin/../lib/gcc/arm-none-eabi/13.3.0/../../../../arm-none-eabi/lib/thumb/v7e-m+fp/hard\libg_nano.a(libc_a-memcmp.o)

.debug_str      0x00000000    0x101a7
 .debug_str     0x00000000      0x277 C:\QMK_MSYS\tmp\ccs2W3Vd.ltrans0.ltrans.o
 .debug_str     0x00000000      0x322 C:\QMK_MSYS\tmp\ccYy8zNJ.debug.temp.o
 .debug_str     0x00000000     0x4ff7 C:\QMK_MSYS\tmp\cc8jr1VC.debug.temp.o
 .debug_str     0x00000000     0x4b89 C:\QMK_MSYS\tmp\ccO4b5Y3.debug.temp.o
 .debug_str     0x00000000      0x3bf C:\QMK_MSYS\tmp\ccU9JcqW.debug.temp.o
 .debug_str     0x00000000     0x4e24 C:\QMK_MSYS\tmp\ccgoXcxn.debug.temp.o
 .debug_str     0x00000000      0x6bd C:\QMK_MSYS\tmp\ccsxOlSO.debug.temp.o
 .debug_str     0x00000000     0x464b C:\QMK_MSYS\tmp\cciViwbg.debug.temp.o
 .debug_str     0x00000000      0x5b5 C:\QMK_MSYS\tmp\cca0yIIH.debug.temp.o
 .debug_str     0x00000000      0x54a C:\QMK_MSYS\tmp\cc0pCGa9.debug.temp.o
 .debug_str     0x00000000      0xaff C:\QMK_MSYS\tmp\ccwjgFEz.debug.temp.o
 .debug_str     0x00000000     0x4be9 C:\QMK_MSYS\tmp\ccunYi4Z.debug.temp.o
 .debug_str     0x00000000     0x4358 C:\QMK_MSYS\tmp\cci23xsq.debug.temp.o
 .debug_str     0x00000000      0x25e C:\QMK_MSYS\tmp\ccaulbyh.debug.temp.o
 .debug_str     0x00000000      0x221 C:\QMK_MSYS\tmp\ccEA8olI.debug.temp.o
 .debug_str     0x00000000      0x279 C:\QMK_MSYS\tmp\ccWeMX28.debug.temp.o
 .debug_str     0x00000000      0x3ea C:\QMK_MSYS\tmp\cco2DIJz.debug.temp.o
 .debug_str     0x00000000      0x505 C:\QMK_MSYS\tmp\ccmAD3C0.debug.temp.o
 .debug_str     0x00000000      0x3b0 C:\QMK_MSYS\tmp\cc47Kovr.debug.temp.o
 .debug_str     0x00000000      0x2b1 C:\QMK_MSYS\tmp\ccsbw1pR.debug.temp.o
 .debug_str     0x00000000      0x501 C:\QMK_MSYS\tmp\cc6u1jfh.debug.temp.o
 .debug_str     0x00000000      0x34a C:\QMK_MSYS\tmp\ccWqp82G.debug.temp.o
 .debug_str     0x00000000      0x2be C:\QMK_MSYS\tmp\cc2KLL36.debug.temp.o
 .debug_str     0x00000000      0x285 C:\QMK_MSYS\tmp\ccCAUx2w.debug.temp.o
 .debug_str     0x00000000     0x1a99 C:\QMK_MSYS\tmp\ccavKcfX.debug.temp.o
 .debug_str     0x00000000      0x2d4 C:\QMK_MSYS\tmp\ccGKnDmn.debug.temp.o
 .debug_str     0x00000000     0x495d C:\QMK_MSYS\tmp\cce79oHN.debug.temp.o
 .debug_str     0x00000000      0x221 C:\QMK_MSYS\tmp\cckRVoYd.debug.temp.o
 .debug_str     0x00000000      0x212 C:\QMK_MSYS\tmp\ccqbgfYH.debug.temp.o
 .debug_str     0x00000000      0x8f0 C:\QMK_MSYS\tmp\cciESETb.debug.temp.o
 .debug_str     0x00000000     0x4573 C:\QMK_MSYS\tmp\ccGvlT2F.debug.temp.o
 .debug_str     0x00000000      0x49e C:\QMK_MSYS\tmp\cc4I5Saa.debug.temp.o
 .debug_str     0x00000000      0x36d C:\QMK_MSYS\tmp\ccSnR1cE.debug.temp.o
 .debug_str     0x00000000      0x2ff C:\QMK_MSYS\tmp\ccyWH1w8.debug.temp.o
 .debug_str     0x00000000     0x4403 C:\QMK_MSYS\tmp\ccoCtGLC.debug.temp.o
 .debug_str     0x00000000     0x4451 C:\QMK_MSYS\tmp\ccQpxRe7.debug.temp.o
 .debug_str     0x00000000      0x6f5 C:\QMK_MSYS\tmp\ccMU9izB.debug.temp.o
 .debug_str     0x00000000      0x366 C:\QMK_MSYS\tmp\ccO4Lu04.debug.temp.o
 .debug_str     0x00000000     0x43a9 C:\QMK_MSYS\tmp\ccgPjOV1.debug.temp.o
 .debug_str     0x00000000      0xa80 C:\QMK_MSYS\tmp\ccwAvutv.debug.temp.o
 .debug_str     0x00000000      0x602 C:\QMK_MSYS\tmp\ccW8nlXY.debug.temp.o
 .debug_str     0x00000000     0x441c C:\QMK_MSYS\tmp\cccktRCs.debug.temp.o
 .debug_str     0x00000000      0x3a0 C:\QMK_MSYS\tmp\cc6pXUhW.debug.temp.o
 .debug_str     0x00000000      0x2ed C:\QMK_MSYS\tmp\ccek32UT.debug.temp.o
 .debug_str     0x00000000      0x230 C:\QMK_MSYS\tmp\ccwnQKdL.debug.temp.o
 .debug_str     0x00000000      0x348 C:\QMK_MSYS\tmp\ccOJie5d.debug.temp.o
 .debug_str     0x00000000      0x39d C:\QMK_MSYS\tmp\ccG4SEeH.debug.temp.o
 .debug_str     0x00000000      0x4ab C:\QMK_MSYS\tmp\cckinsha.debug.temp.o
 .debug_str     0x00000000     0x1685 C:\QMK_MSYS\tmp\ccgRbtjD.debug.temp.o
 .debug_str     0x00000000      0xf37 C:\QMK_MSYS\tmp\ccGbXBy6.debug.temp.o
 .debug_str     0x00000000      0xa90 C:\QMK_MSYS\tmp\ccqU3HIz.debug.temp.o
 .debug_str     0x00000000     0x1240 C:\QMK_MSYS\tmp\cccI8FZ1.debug.temp.o
 .debug_str     0x00000000     0x1114 C:\QMK_MSYS\tmp\ccuGGubu.debug.temp.o
 .debug_str     0x00000000     0x1254 C:\QMK_MSYS\tmp\ccwcIvzW.debug.temp.o
 .debug_str     0x00000000      0x4b8 C:\QMK_MSYS\tmp\ccU2tOfR.debug.temp.o
 .debug_str     0x00000000      0x91e C:\QMK_MSYS\tmp\ccOcGXKj.debug.temp.o
 .debug_str     0x00000000      0x589 C:\QMK_MSYS\tmp\ccW11CeM.debug.temp.o
 .debug_str     0x00000000      0x86f C:\QMK_MSYS\tmp\ccS8sjUd.debug.temp.o
 .debug_str     0x00000000      0x7db C:\QMK_MSYS\tmp\ccMcYjfK.debug.temp.o
 .debug_str     0x00000000      0x723 C:\QMK_MSYS\tmp\ccyqoOug.debug.temp.o
 .debug_str     0x00000000      0x8ce C:\QMK_MSYS\tmp\cccqrNWM.debug.temp.o
 .debug_str     0x00000000      0x6d8 C:\QMK_MSYS\tmp\cckT9yUp.debug.temp.o
 .debug_str     0x00000000      0xdfc C:\QMK_MSYS\tmp\ccUajHNZ.debug.temp.o
 .debug_str     0x00000000      0x351 C:\QMK_MSYS\tmp\ccCSIbRx.debug.temp.o
 .debug_str     0x00000000      0x25c C:\QMK_MSYS\tmp\ccgwBwl6.debug.temp.o
 .debug_str     0x00000000      0x34d C:\QMK_MSYS\tmp\ccKS4vMB.debug.temp.o
 .debug_str     0x00000000      0x628 C:\QMK_MSYS\tmp\cca7GX86.debug.temp.o
 .debug_str     0x00000000      0x93c C:\QMK_MSYS\tmp\ccEe4n45.debug.temp.o
 .debug_str     0x00000000      0xfef C:\QMK_MSYS\tmp\ccKK5gCm.debug.temp.o
 .debug_str     0x00000000      0x393 C:\QMK_MSYS\tmp\ccCHaup1.debug.temp.o
 .debug_str     0x00000000      0x6fe C:\QMK_MSYS\tmp\ccaMHsKz.debug.temp.o
 .debug_str     0x00000000      0x479 C:\QMK_MSYS\tmp\cco0Ypj8.debug.temp.o
 .debug_str     0x00000000      0x5d3 C:\QMK_MSYS\tmp\cc4Drlro.debug.temp.o
 .debug_str     0x00000000      0x312 C:\QMK_MSYS\tmp\ccAQkt0t.debug.temp.o
 .debug_str     0x00000000     0x11bc C:\QMK_MSYS\tmp\ccQpYuI1.debug.temp.o
 .debug_str     0x00000000     0x1184 C:\QMK_MSYS\tmp\ccu6aUw7.debug.temp.o
 .debug_str     0x00000000      0x4b9 C:\QMK_MSYS\tmp\cc6xi9gk.debug.temp.o
 .debug_str     0x00000000      0x4b4 C:\QMK_MSYS\tmp\ccurH6dg.debug.temp.o
 .debug_str     0x00000000      0x71a C:\QMK_MSYS\tmp\ccad69BR.debug.temp.o
 .debug_str     0x00000000      0x77c C:\QMK_MSYS\tmp\ccAjuQ4s.debug.temp.o
 .debug_str     0x00000000    0x101a7 .build/obj_vessel_base/i2c_master.a(i2c_master.o)
                                0x983 (size before relaxing)
 .debug_str     0x000101a7       0x7e C:/QMK_MSYS/mingw64/bin/../lib/gcc/arm-none-eabi/13.3.0/thumb/v7e-m+fp/hard\libgcc.a(_aeabi_uldivmod.o)
 .debug_str     0x000101a7      0x696 C:/QMK_MSYS/mingw64/bin/../lib/gcc/arm-none-eabi/13.3.0/thumb/v7e-m+fp/hard\libgcc.a(_udivmoddi4.o)
 .debug_str     0x000101a7       0x9e C:/QMK_MSYS/mingw64/bin/../lib/gcc/arm-none-eabi/13.3.0/thumb/v7e-m+fp/hard\libgcc.a(_dvmd_tls.o)
 .debug_str     0x000101a7      0x4cb C:/QMK_MSYS/mingw64/bin/../lib/gcc/arm-none-eabi/13.3.0/../../../../arm-none-eabi/lib/thumb/v7e-m+fp/hard\libg_nano.a(libc_a-rand.o)
 .debug_str     0x000101a7      0x4a7 C:/QMK_MSYS/mingw64/bin/../lib/gcc/arm-none-eabi/13.3.0/../../../../arm-none-eabi/lib/thumb/v7e-m+fp/hard\libg_nano.a(libc_a-impure.o)
 .debug_str     0x000101a7      0x4e0 C:/QMK_MSYS/mingw64/bin/../lib/gcc/arm-none-eabi/13.3.0/../../../../arm-none-eabi/lib/thumb/v7e-m+fp/hard\libg_nano.a(libc_a-assert.o)
 .debug_str     0x000101a7      0x4cc C:/QMK_MSYS/mingw64/bin/../lib/gcc/arm-none-eabi/13.3.0/../../../../arm-none-eabi/lib/thumb/v7e-m+fp/hard\libg_nano.a(libc_a-malloc.o)
 .debug_str     0x000101a7      0x588 C:/QMK_MSYS/mingw64/bin/../lib/gcc/arm-none-eabi/13.3.0/../../../../arm-none-eabi/lib/thumb/v7e-m+fp/hard\libg_nano.a(libc_a-mallocr.o)
 .debug_str     0x000101a7      0x529 C:/QMK_MSYS/mingw64/bin/../lib/gcc/arm-none-eabi/13.3.0/../../../../arm-none-eabi/lib/thumb/v7e-m+fp/hard\libg_nano.a(libc_a-mlock.o)
 .debug_str     0x000101a7      0x4e5 C:/QMK_MSYS/mingw64/bin/../lib/gcc/arm-none-eabi/13.3.0/../../../../arm-none-eabi/lib/thumb/v7e-m+fp/hard\libg_nano.a(libc_a-fprintf.o)
 .debug_str     0x000101a7      0x2fa C:/QMK_MSYS/mingw64/bin/../lib/gcc/arm-none-eabi/13.3.0/../../../../arm-none-eabi/lib/thumb/v7e-m+fp/hard\libg_nano.a(libc_a-lock.o)
 .debug_str     0x000101a7      0x18a C:/QMK_MSYS/mingw64/bin/../lib/gcc/arm-none-eabi/13.3.0/../../../../arm-none-eabi/lib/thumb/v7e-m+fp/hard\libg_nano.a(libc_a-abort.o)
 .debug_str     0x000101a7      0x527 C:/QMK_MSYS/mingw64/bin/../lib/gcc/arm-none-eabi/13.3.0/../../../../arm-none-eabi/lib/thumb/v7e-m+fp/hard\libg_nano.a(libc_a-freer.o)
 .debug_str     0x000101a7      0x858 C:/QMK_MSYS/mingw64/bin/../lib/gcc/arm-none-eabi/13.3.0/../../../../arm-none-eabi/lib/thumb/v7e-m+fp/hard\libg_nano.a(libc_a-nano-vfprintf.o)
 .debug_str     0x000101a7      0x786 C:/QMK_MSYS/mingw64/bin/../lib/gcc/arm-none-eabi/13.3.0/../../../../arm-none-eabi/lib/thumb/v7e-m+fp/hard\libg_nano.a(libc_a-nano-vfprintf_i.o)
 .debug_str     0x000101a7      0x72a C:/QMK_MSYS/mingw64/bin/../lib/gcc/arm-none-eabi/13.3.0/../../../../arm-none-eabi/lib/thumb/v7e-m+fp/hard\libg_nano.a(libc_a-findfp.o)
 .debug_str     0x000101a7      0x54b C:/QMK_MSYS/mingw64/bin/../lib/gcc/arm-none-eabi/13.3.0/../../../../arm-none-eabi/lib/thumb/v7e-m+fp/hard\libg_nano.a(libc_a-fvwrite.o)
 .debug_str     0x000101a7      0x4b7 C:/QMK_MSYS/mingw64/bin/../lib/gcc/arm-none-eabi/13.3.0/../../../../arm-none-eabi/lib/thumb/v7e-m+fp/hard\libg_nano.a(libc_a-fwalk.o)
 .debug_str     0x000101a7      0x514 C:/QMK_MSYS/mingw64/bin/../lib/gcc/arm-none-eabi/13.3.0/../../../../arm-none-eabi/lib/thumb/v7e-m+fp/hard\libg_nano.a(libc_a-stdio.o)
 .debug_str     0x000101a7      0x4dd C:/QMK_MSYS/mingw64/bin/../lib/gcc/arm-none-eabi/13.3.0/../../../../arm-none-eabi/lib/thumb/v7e-m+fp/hard\libg_nano.a(libc_a-wbuf.o)
 .debug_str     0x000101a7      0x4d8 C:/QMK_MSYS/mingw64/bin/../lib/gcc/arm-none-eabi/13.3.0/../../../../arm-none-eabi/lib/thumb/v7e-m+fp/hard\libg_nano.a(libc_a-wsetup.o)
 .debug_str     0x000101a7      0x1ba C:/QMK_MSYS/mingw64/bin/../lib/gcc/arm-none-eabi/13.3.0/../../../../arm-none-eabi/lib/thumb/v7e-m+fp/hard\libg_nano.a(libc_a-memmove.o)
 .debug_str     0x000101a7      0x19b C:/QMK_MSYS/mingw64/bin/../lib/gcc/arm-none-eabi/13.3.0/../../../../arm-none-eabi/lib/thumb/v7e-m+fp/hard\libg_nano.a(libc_a-memset.o)
 .debug_str     0x000101a7      0x52e C:/QMK_MSYS/mingw64/bin/../lib/gcc/arm-none-eabi/13.3.0/../../../../arm-none-eabi/lib/thumb/v7e-m+fp/hard\libg_nano.a(libc_a-signal.o)
 .debug_str     0x000101a7      0x4c3 C:/QMK_MSYS/mingw64/bin/../lib/gcc/arm-none-eabi/13.3.0/../../../../arm-none-eabi/lib/thumb/v7e-m+fp/hard\libg_nano.a(libc_a-signalr.o)
 .debug_str     0x000101a7       0x95 C:/QMK_MSYS/mingw64/bin/../lib/gcc/arm-none-eabi/13.3.0/../../../../arm-none-eabi/lib/thumb/v7e-m+fp/hard\libg_nano.a(libc_a-memchr.o)
 .debug_str     0x000101a7       0xa3 C:/QMK_MSYS/mingw64/bin/../lib/gcc/arm-none-eabi/13.3.0/../../../../arm-none-eabi/lib/thumb/v7e-m+fp/hard\libg_nano.a(libc_a-memcpy.o)
 .debug_str     0x000101a7      0x51d C:/QMK_MSYS/mingw64/bin/../lib/gcc/arm-none-eabi/13.3.0/../../../../arm-none-eabi/lib/thumb/v7e-m+fp/hard\libg_nano.a(libc_a-reallocr.o)
 .debug_str     0x000101a7      0x572 C:/QMK_MSYS/mingw64/bin/../lib/gcc/arm-none-eabi/13.3.0/../../../../arm-none-eabi/lib/thumb/v7e-m+fp/hard\libg_nano.a(libc_a-fflush.o)
 .debug_str     0x000101a7      0x63a C:/QMK_MSYS/mingw64/bin/../lib/gcc/arm-none-eabi/13.3.0/../../../../arm-none-eabi/lib/thumb/v7e-m+fp/hard\libg_nano.a(libc_a-makebuf.o)
 .debug_str     0x000101a7      0x4c6 C:/QMK_MSYS/mingw64/bin/../lib/gcc/arm-none-eabi/13.3.0/../../../../arm-none-eabi/lib/thumb/v7e-m+fp/hard\libg_nano.a(libc_a-reent.o)
 .debug_str     0x000101a7      0x4f0 C:/QMK_MSYS/mingw64/bin/../lib/gcc/arm-none-eabi/13.3.0/../../../../arm-none-eabi/lib/thumb/v7e-m+fp/hard\libg_nano.a(libc_a-msizer.o)
 .debug_str     0x000101a7      0x187 C:/QMK_MSYS/mingw64/bin/../lib/gcc/arm-none-eabi/13.3.0/../../../../arm-none-eabi/lib/thumb/v7e-m+fp/hard\libg_nano.a(libc_a-memcmp.o)

.comment        0x00000000       0x24
 .comment       0x00000000       0x13 C:\QMK_MSYS\tmp\ccs2W3Vd.ltrans0.ltrans.o
 .comment       0x00000000       0x24 .build/obj_vessel_base/i2c_master.a(i2c_master.o)
                                 0x13 (size before relaxing)
 .comment       0x00000024       0x13 C:/QMK_MSYS/mingw64/bin/../lib/gcc/arm-none-eabi/13.3.0/thumb/v7e-m+fp/hard\libgcc.a(_udivmoddi4.o)
 .comment       0x00000024       0x13 C:/QMK_MSYS/mingw64/bin/../lib/gcc/arm-none-eabi/13.3.0/../../../../arm-none-eabi/lib/thumb/v7e-m+fp/hard\libg_nano.a(libc_a-rand.o)
 .comment       0x00000024       0x13 C:/QMK_MSYS/mingw64/bin/../lib/gcc/arm-none-eabi/13.3.0/../../../../arm-none-eabi/lib/thumb/v7e-m+fp/hard\libg_nano.a(libc_a-impure.o)
 .comment       0x00000024       0x13 C:/QMK_MSYS/mingw64/bin/../lib/gcc/arm-none-eabi/13.3.0/../../../../arm-none-eabi/lib/thumb/v7e-m+fp/hard\libg_nano.a(libc_a-assert.o)
 .comment       0x00000024       0x13 C:/QMK_MSYS/mingw64/bin/../lib/gcc/arm-none-eabi/13.3.0/../../../../arm-none-eabi/lib/thumb/v7e-m+fp/hard\libg_nano.a(libc_a-malloc.o)
 .comment       0x00000024       0x13 C:/QMK_MSYS/mingw64/bin/../lib/gcc/arm-none-eabi/13.3.0/../../../../arm-none-eabi/lib/thumb/v7e-m+fp/hard\libg_nano.a(libc_a-mallocr.o)
 .comment       0x00000024       0x13 C:/QMK_MSYS/mingw64/bin/../lib/gcc/arm-none-eabi/13.3.0/../../../../arm-none-eabi/lib/thumb/v7e-m+fp/hard\libg_nano.a(libc_a-mlock.o)
 .comment       0x00000024       0x13 C:/QMK_MSYS/mingw64/bin/../lib/gcc/arm-none-eabi/13.3.0/../../../../arm-none-eabi/lib/thumb/v7e-m+fp/hard\libg_nano.a(libc_a-fprintf.o)
 .comment       0x00000024       0x13 C:/QMK_MSYS/mingw64/bin/../lib/gcc/arm-none-eabi/13.3.0/../../../../arm-none-eabi/lib/thumb/v7e-m+fp/hard\libg_nano.a(libc_a-lock.o)
 .comment       0x00000024       0x13 C:/QMK_MSYS/mingw64/bin/../lib/gcc/arm-none-eabi/13.3.0/../../../../arm-none-eabi/lib/thumb/v7e-m+fp/hard\libg_nano.a(libc_a-abort.o)
 .comment       0x00000024       0x13 C:/QMK_MSYS/mingw64/bin/../lib/gcc/arm-none-eabi/13.3.0/../../../../arm-none-eabi/lib/thumb/v7e-m+fp/hard\libg_nano.a(libc_a-freer.o)
 .comment       0x00000024       0x13 C:/QMK_MSYS/mingw64/bin/../lib/gcc/arm-none-eabi/13.3.0/../../../../arm-none-eabi/lib/thumb/v7e-m+fp/hard\libg_nano.a(libc_a-nano-vfprintf.o)
 .comment       0x00000024       0x13 C:/QMK_MSYS/mingw64/bin/../lib/gcc/arm-none-eabi/13.3.0/../../../../arm-none-eabi/lib/thumb/v7e-m+fp/hard\libg_nano.a(libc_a-nano-vfprintf_i.o)
 .comment       0x00000024       0x13 C:/QMK_MSYS/mingw64/bin/../lib/gcc/arm-none-eabi/13.3.0/../../../../arm-none-eabi/lib/thumb/v7e-m+fp/hard\libg_nano.a(libc_a-findfp.o)
 .comment       0x00000024       0x13 C:/QMK_MSYS/mingw64/bin/../lib/gcc/arm-none-eabi/13.3.0/../../../../arm-none-eabi/lib/thumb/v7e-m+fp/hard\libg_nano.a(libc_a-fvwrite.o)
 .comment       0x00000024       0x13 C:/QMK_MSYS/mingw64/bin/../lib/gcc/arm-none-eabi/13.3.0/../../../../arm-none-eabi/lib/thumb/v7e-m+fp/hard\libg_nano.a(libc_a-fwalk.o)
 .comment       0x00000024       0x13 C:/QMK_MSYS/mingw64/bin/../lib/gcc/arm-none-eabi/13.3.0/../../../../arm-none-eabi/lib/thumb/v7e-m+fp/hard\libg_nano.a(libc_a-stdio.o)
 .comment       0x00000024       0x13 C:/QMK_MSYS/mingw64/bin/../lib/gcc/arm-none-eabi/13.3.0/../../../../arm-none-eabi/lib/thumb/v7e-m+fp/hard\libg_nano.a(libc_a-wbuf.o)
 .comment       0x00000024       0x13 C:/QMK_MSYS/mingw64/bin/../lib/gcc/arm-none-eabi/13.3.0/../../../../arm-none-eabi/lib/thumb/v7e-m+fp/hard\libg_nano.a(libc_a-wsetup.o)
 .comment       0x00000024       0x13 C:/QMK_MSYS/mingw64/bin/../lib/gcc/arm-none-eabi/13.3.0/../../../../arm-none-eabi/lib/thumb/v7e-m+fp/hard\libg_nano.a(libc_a-memmove.o)
 .comment       0x00000024       0x13 C:/QMK_MSYS/mingw64/bin/../lib/gcc/arm-none-eabi/13.3.0/../../../../arm-none-eabi/lib/thumb/v7e-m+fp/hard\libg_nano.a(libc_a-memset.o)
 .comment       0x00000024       0x13 C:/QMK_MSYS/mingw64/bin/../lib/gcc/arm-none-eabi/13.3.0/../../../../arm-none-eabi/lib/thumb/v7e-m+fp/hard\libg_nano.a(libc_a-signal.o)
 .comment       0x00000024       0x13 C:/QMK_MSYS/mingw64/bin/../lib/gcc/arm-none-eabi/13.3.0/../../../../arm-none-eabi/lib/thumb/v7e-m+fp/hard\libg_nano.a(libc_a-signalr.o)
 .comment       0x00000024       0x13 C:/QMK_MSYS/mingw64/bin/../lib/gcc/arm-none-eabi/13.3.0/../../../../arm-none-eabi/lib/thumb/v7e-m+fp/hard\libg_nano.a(libc_a-reallocr.o)
 .comment       0x00000024       0x13 C:/QMK_MSYS/mingw64/bin/../lib/gcc/arm-none-eabi/13.3.0/../../../../arm-none-eabi/lib/thumb/v7e-m+fp/hard\libg_nano.a(libc_a-fflush.o)
 .comment       0x00000024       0x13 C:/QMK_MSYS/mingw64/bin/../lib/gcc/arm-none-eabi/13.3.0/../../../../arm-none-eabi/lib/thumb/v7e-m+fp/hard\libg_nano.a(libc_a-makebuf.o)
 .comment       0x00000024       0x13 C:/QMK_MSYS/mingw64/bin/../lib/gcc/arm-none-eabi/13.3.0/../../../../arm-none-eabi/lib/thumb/v7e-m+fp/hard\libg_nano.a(libc_a-reent.o)
 .comment       0x00000024       0x13 C:/QMK_MSYS/mingw64/bin/../lib/gcc/arm-none-eabi/13.3.0/../../../../arm-none-eabi/lib/thumb/v7e-m+fp/hard\libg_nano.a(libc_a-msizer.o)
 .comment       0x00000024       0x13 C:/QMK_MSYS/mingw64/bin/../lib/gcc/arm-none-eabi/13.3.0/../../../../arm-none-eabi/lib/thumb/v7e-m+fp/hard\libg_nano.a(libc_a-memcmp.o)

.ARM.attributes
                0x00000000       0x32
 .ARM.attributes
                0x00000000       0x30 C:\QMK_MSYS\tmp\ccs2W3Vd.ltrans0.ltrans.o
 .ARM.attributes
                0x00000030       0x32 .build/obj_vessel_base/i2c_master.a(i2c_master.o)
 .ARM.attributes
                0x00000062       0x25 .build/obj_vessel_base/./lib/chibios/os/common/startup/ARMCMx/compilers/GCC/crt0_v7m.o
 .ARM.attributes
                0x00000087       0x25 .build/obj_vessel_base/./lib/chibios/os/common/startup/ARMCMx/compilers/GCC/vectors.o
 .ARM.attributes
                0x000000ac       0x25 .build/obj_vessel_base/./lib/chibios/os/common/ports/ARMv7-M/compilers/GCC/chcoreasm.o
 .ARM.attributes
                0x000000d1       0x22 C:/QMK_MSYS/mingw64/bin/../lib/gcc/arm-none-eabi/13.3.0/thumb/v7e-m+fp/hard\libgcc.a(_aeabi_uldivmod.o)
 .ARM.attributes
                0x000000f3       0x34 C:/QMK_MSYS/mingw64/bin/../lib/gcc/arm-none-eabi/13.3.0/thumb/v7e-m+fp/hard\libgcc.a(_udivmoddi4.o)
 .ARM.attributes
                0x00000127       0x22 C:/QMK_MSYS/mingw64/bin/../lib/gcc/arm-none-eabi/13.3.0/thumb/v7e-m+fp/hard\libgcc.a(_dvmd_tls.o)
 .ARM.attributes
                0x00000149       0x34 C:/QMK_MSYS/mingw64/bin/../lib/gcc/arm-none-eabi/13.3.0/../../../../arm-none-eabi/lib/thumb/v7e-m+fp/hard\libg_nano.a(libc_a-rand.o)
 .ARM.attributes
                0x0000017d       0x34 C:/QMK_MSYS/mingw64/bin/../lib/gcc/arm-none-eabi/13.3.0/../../../../arm-none-eabi/lib/thumb/v7e-m+fp/hard\libg_nano.a(libc_a-impure.o)
 .ARM.attributes
                0x000001b1       0x34 C:/QMK_MSYS/mingw64/bin/../lib/gcc/arm-none-eabi/13.3.0/../../../../arm-none-eabi/lib/thumb/v7e-m+fp/hard\libg_nano.a(libc_a-assert.o)
 .ARM.attributes
                0x000001e5       0x34 C:/QMK_MSYS/mingw64/bin/../lib/gcc/arm-none-eabi/13.3.0/../../../../arm-none-eabi/lib/thumb/v7e-m+fp/hard\libg_nano.a(libc_a-malloc.o)
 .ARM.attributes
                0x00000219       0x34 C:/QMK_MSYS/mingw64/bin/../lib/gcc/arm-none-eabi/13.3.0/../../../../arm-none-eabi/lib/thumb/v7e-m+fp/hard\libg_nano.a(libc_a-mallocr.o)
 .ARM.attributes
                0x0000024d       0x34 C:/QMK_MSYS/mingw64/bin/../lib/gcc/arm-none-eabi/13.3.0/../../../../arm-none-eabi/lib/thumb/v7e-m+fp/hard\libg_nano.a(libc_a-mlock.o)
 .ARM.attributes
                0x00000281       0x34 C:/QMK_MSYS/mingw64/bin/../lib/gcc/arm-none-eabi/13.3.0/../../../../arm-none-eabi/lib/thumb/v7e-m+fp/hard\libg_nano.a(libc_a-fprintf.o)
 .ARM.attributes
                0x000002b5       0x34 C:/QMK_MSYS/mingw64/bin/../lib/gcc/arm-none-eabi/13.3.0/../../../../arm-none-eabi/lib/thumb/v7e-m+fp/hard\libg_nano.a(libc_a-lock.o)
 .ARM.attributes
                0x000002e9       0x34 C:/QMK_MSYS/mingw64/bin/../lib/gcc/arm-none-eabi/13.3.0/../../../../arm-none-eabi/lib/thumb/v7e-m+fp/hard\libg_nano.a(libc_a-abort.o)
 .ARM.attributes
                0x0000031d       0x34 C:/QMK_MSYS/mingw64/bin/../lib/gcc/arm-none-eabi/13.3.0/../../../../arm-none-eabi/lib/thumb/v7e-m+fp/hard\libg_nano.a(libc_a-freer.o)
 .ARM.attributes
                0x00000351       0x34 C:/QMK_MSYS/mingw64/bin/../lib/gcc/arm-none-eabi/13.3.0/../../../../arm-none-eabi/lib/thumb/v7e-m+fp/hard\libg_nano.a(libc_a-nano-vfprintf.o)
 .ARM.attributes
                0x00000385       0x34 C:/QMK_MSYS/mingw64/bin/../lib/gcc/arm-none-eabi/13.3.0/../../../../arm-none-eabi/lib/thumb/v7e-m+fp/hard\libg_nano.a(libc_a-nano-vfprintf_i.o)
 .ARM.attributes
                0x000003b9       0x34 C:/QMK_MSYS/mingw64/bin/../lib/gcc/arm-none-eabi/13.3.0/../../../../arm-none-eabi/lib/thumb/v7e-m+fp/hard\libg_nano.a(libc_a-findfp.o)
 .ARM.attributes
                0x000003ed       0x34 C:/QMK_MSYS/mingw64/bin/../lib/gcc/arm-none-eabi/13.3.0/../../../../arm-none-eabi/lib/thumb/v7e-m+fp/hard\libg_nano.a(libc_a-fvwrite.o)
 .ARM.attributes
                0x00000421       0x34 C:/QMK_MSYS/mingw64/bin/../lib/gcc/arm-none-eabi/13.3.0/../../../../arm-none-eabi/lib/thumb/v7e-m+fp/hard\libg_nano.a(libc_a-fwalk.o)
 .ARM.attributes
                0x00000455       0x34 C:/QMK_MSYS/mingw64/bin/../lib/gcc/arm-none-eabi/13.3.0/../../../../arm-none-eabi/lib/thumb/v7e-m+fp/hard\libg_nano.a(libc_a-stdio.o)
 .ARM.attributes
                0x00000489       0x34 C:/QMK_MSYS/mingw64/bin/../lib/gcc/arm-none-eabi/13.3.0/../../../../arm-none-eabi/lib/thumb/v7e-m+fp/hard\libg_nano.a(libc_a-wbuf.o)
 .ARM.attributes
                0x000004bd       0x34 C:/QMK_MSYS/mingw64/bin/../lib/gcc/arm-none-eabi/13.3.0/../../../../arm-none-eabi/lib/thumb/v7e-m+fp/hard\libg_nano.a(libc_a-wsetup.o)
 .ARM.attributes
                0x000004f1       0x34 C:/QMK_MSYS/mingw64/bin/../lib/gcc/arm-none-eabi/13.3.0/../../../../arm-none-eabi/lib/thumb/v7e-m+fp/hard\libg_nano.a(libc_a-memmove.o)
 .ARM.attributes
                0x00000525       0x34 C:/QMK_MSYS/mingw64/bin/../lib/gcc/arm-none-eabi/13.3.0/../../../../arm-none-eabi/lib/thumb/v7e-m+fp/hard\libg_nano.a(libc_a-memset.o)
 .ARM.attributes
                0x00000559       0x34 C:/QMK_MSYS/mingw64/bin/../lib/gcc/arm-none-eabi/13.3.0/../../../../arm-none-eabi/lib/thumb/v7e-m+fp/hard\libg_nano.a(libc_a-signal.o)
 .ARM.attributes
                0x0000058d       0x34 C:/QMK_MSYS/mingw64/bin/../lib/gcc/arm-none-eabi/13.3.0/../../../../arm-none-eabi/lib/thumb/v7e-m+fp/hard\libg_nano.a(libc_a-signalr.o)
 .ARM.attributes
                0x000005c1       0x1c C:/QMK_MSYS/mingw64/bin/../lib/gcc/arm-none-eabi/13.3.0/../../../../arm-none-eabi/lib/thumb/v7e-m+fp/hard\libg_nano.a(libc_a-memchr.o)
 .ARM.attributes
                0x000005dd       0x20 C:/QMK_MSYS/mingw64/bin/../lib/gcc/arm-none-eabi/13.3.0/../../../../arm-none-eabi/lib/thumb/v7e-m+fp/hard\libg_nano.a(libc_a-memcpy.o)
 .ARM.attributes
                0x000005fd       0x34 C:/QMK_MSYS/mingw64/bin/../lib/gcc/arm-none-eabi/13.3.0/../../../../arm-none-eabi/lib/thumb/v7e-m+fp/hard\libg_nano.a(libc_a-reallocr.o)
 .ARM.attributes
                0x00000631       0x34 C:/QMK_MSYS/mingw64/bin/../lib/gcc/arm-none-eabi/13.3.0/../../../../arm-none-eabi/lib/thumb/v7e-m+fp/hard\libg_nano.a(libc_a-fflush.o)
 .ARM.attributes
                0x00000665       0x34 C:/QMK_MSYS/mingw64/bin/../lib/gcc/arm-none-eabi/13.3.0/../../../../arm-none-eabi/lib/thumb/v7e-m+fp/hard\libg_nano.a(libc_a-makebuf.o)
 .ARM.attributes
                0x00000699       0x34 C:/QMK_MSYS/mingw64/bin/../lib/gcc/arm-none-eabi/13.3.0/../../../../arm-none-eabi/lib/thumb/v7e-m+fp/hard\libg_nano.a(libc_a-reent.o)
 .ARM.attributes
                0x000006cd       0x34 C:/QMK_MSYS/mingw64/bin/../lib/gcc/arm-none-eabi/13.3.0/../../../../arm-none-eabi/lib/thumb/v7e-m+fp/hard\libg_nano.a(libc_a-msizer.o)
 .ARM.attributes
                0x00000701       0x34 C:/QMK_MSYS/mingw64/bin/../lib/gcc/arm-none-eabi/13.3.0/../../../../arm-none-eabi/lib/thumb/v7e-m+fp/hard\libg_nano.a(libc_a-memcmp.o)

.debug_frame    0x00000000     0x27e8
 .debug_frame   0x00000000     0x1be8 C:\QMK_MSYS\tmp\ccs2W3Vd.ltrans0.ltrans.o
 .debug_frame   0x00001be8      0x180 .build/obj_vessel_base/i2c_master.a(i2c_master.o)
 .debug_frame   0x00001d68       0x2c C:/QMK_MSYS/mingw64/bin/../lib/gcc/arm-none-eabi/13.3.0/thumb/v7e-m+fp/hard\libgcc.a(_aeabi_uldivmod.o)
 .debug_frame   0x00001d94       0x34 C:/QMK_MSYS/mingw64/bin/../lib/gcc/arm-none-eabi/13.3.0/thumb/v7e-m+fp/hard\libgcc.a(_udivmoddi4.o)
 .debug_frame   0x00001dc8       0x44 C:/QMK_MSYS/mingw64/bin/../lib/gcc/arm-none-eabi/13.3.0/../../../../arm-none-eabi/lib/thumb/v7e-m+fp/hard\libg_nano.a(libc_a-rand.o)
 .debug_frame   0x00001e0c       0x40 C:/QMK_MSYS/mingw64/bin/../lib/gcc/arm-none-eabi/13.3.0/../../../../arm-none-eabi/lib/thumb/v7e-m+fp/hard\libg_nano.a(libc_a-assert.o)
 .debug_frame   0x00001e4c       0x30 C:/QMK_MSYS/mingw64/bin/../lib/gcc/arm-none-eabi/13.3.0/../../../../arm-none-eabi/lib/thumb/v7e-m+fp/hard\libg_nano.a(libc_a-malloc.o)
 .debug_frame   0x00001e7c       0x5c C:/QMK_MSYS/mingw64/bin/../lib/gcc/arm-none-eabi/13.3.0/../../../../arm-none-eabi/lib/thumb/v7e-m+fp/hard\libg_nano.a(libc_a-mallocr.o)
 .debug_frame   0x00001ed8       0x30 C:/QMK_MSYS/mingw64/bin/../lib/gcc/arm-none-eabi/13.3.0/../../../../arm-none-eabi/lib/thumb/v7e-m+fp/hard\libg_nano.a(libc_a-mlock.o)
 .debug_frame   0x00001f08       0x70 C:/QMK_MSYS/mingw64/bin/../lib/gcc/arm-none-eabi/13.3.0/../../../../arm-none-eabi/lib/thumb/v7e-m+fp/hard\libg_nano.a(libc_a-fprintf.o)
 .debug_frame   0x00001f78       0xb0 C:/QMK_MSYS/mingw64/bin/../lib/gcc/arm-none-eabi/13.3.0/../../../../arm-none-eabi/lib/thumb/v7e-m+fp/hard\libg_nano.a(libc_a-lock.o)
 .debug_frame   0x00002028       0x28 C:/QMK_MSYS/mingw64/bin/../lib/gcc/arm-none-eabi/13.3.0/../../../../arm-none-eabi/lib/thumb/v7e-m+fp/hard\libg_nano.a(libc_a-abort.o)
 .debug_frame   0x00002050       0x58 C:/QMK_MSYS/mingw64/bin/../lib/gcc/arm-none-eabi/13.3.0/../../../../arm-none-eabi/lib/thumb/v7e-m+fp/hard\libg_nano.a(libc_a-freer.o)
 .debug_frame   0x000020a8       0xbc C:/QMK_MSYS/mingw64/bin/../lib/gcc/arm-none-eabi/13.3.0/../../../../arm-none-eabi/lib/thumb/v7e-m+fp/hard\libg_nano.a(libc_a-nano-vfprintf.o)
 .debug_frame   0x00002164       0x6c C:/QMK_MSYS/mingw64/bin/../lib/gcc/arm-none-eabi/13.3.0/../../../../arm-none-eabi/lib/thumb/v7e-m+fp/hard\libg_nano.a(libc_a-nano-vfprintf_i.o)
 .debug_frame   0x000021d0      0x13c C:/QMK_MSYS/mingw64/bin/../lib/gcc/arm-none-eabi/13.3.0/../../../../arm-none-eabi/lib/thumb/v7e-m+fp/hard\libg_nano.a(libc_a-findfp.o)
 .debug_frame   0x0000230c       0x64 C:/QMK_MSYS/mingw64/bin/../lib/gcc/arm-none-eabi/13.3.0/../../../../arm-none-eabi/lib/thumb/v7e-m+fp/hard\libg_nano.a(libc_a-fvwrite.o)
 .debug_frame   0x00002370       0x34 C:/QMK_MSYS/mingw64/bin/../lib/gcc/arm-none-eabi/13.3.0/../../../../arm-none-eabi/lib/thumb/v7e-m+fp/hard\libg_nano.a(libc_a-fwalk.o)
 .debug_frame   0x000023a4       0x8c C:/QMK_MSYS/mingw64/bin/../lib/gcc/arm-none-eabi/13.3.0/../../../../arm-none-eabi/lib/thumb/v7e-m+fp/hard\libg_nano.a(libc_a-stdio.o)
 .debug_frame   0x00002430       0x4c C:/QMK_MSYS/mingw64/bin/../lib/gcc/arm-none-eabi/13.3.0/../../../../arm-none-eabi/lib/thumb/v7e-m+fp/hard\libg_nano.a(libc_a-wbuf.o)
 .debug_frame   0x0000247c       0x2c C:/QMK_MSYS/mingw64/bin/../lib/gcc/arm-none-eabi/13.3.0/../../../../arm-none-eabi/lib/thumb/v7e-m+fp/hard\libg_nano.a(libc_a-wsetup.o)
 .debug_frame   0x000024a8       0x40 C:/QMK_MSYS/mingw64/bin/../lib/gcc/arm-none-eabi/13.3.0/../../../../arm-none-eabi/lib/thumb/v7e-m+fp/hard\libg_nano.a(libc_a-memmove.o)
 .debug_frame   0x000024e8       0x2c C:/QMK_MSYS/mingw64/bin/../lib/gcc/arm-none-eabi/13.3.0/../../../../arm-none-eabi/lib/thumb/v7e-m+fp/hard\libg_nano.a(libc_a-memset.o)
 .debug_frame   0x00002514      0x118 C:/QMK_MSYS/mingw64/bin/../lib/gcc/arm-none-eabi/13.3.0/../../../../arm-none-eabi/lib/thumb/v7e-m+fp/hard\libg_nano.a(libc_a-signal.o)
 .debug_frame   0x0000262c       0x3c C:/QMK_MSYS/mingw64/bin/../lib/gcc/arm-none-eabi/13.3.0/../../../../arm-none-eabi/lib/thumb/v7e-m+fp/hard\libg_nano.a(libc_a-signalr.o)
 .debug_frame   0x00002668       0x38 C:/QMK_MSYS/mingw64/bin/../lib/gcc/arm-none-eabi/13.3.0/../../../../arm-none-eabi/lib/thumb/v7e-m+fp/hard\libg_nano.a(libc_a-reallocr.o)
 .debug_frame   0x000026a0       0x5c C:/QMK_MSYS/mingw64/bin/../lib/gcc/arm-none-eabi/13.3.0/../../../../arm-none-eabi/lib/thumb/v7e-m+fp/hard\libg_nano.a(libc_a-fflush.o)
 .debug_frame   0x000026fc       0x60 C:/QMK_MSYS/mingw64/bin/../lib/gcc/arm-none-eabi/13.3.0/../../../../arm-none-eabi/lib/thumb/v7e-m+fp/hard\libg_nano.a(libc_a-makebuf.o)
 .debug_frame   0x0000275c       0x40 C:/QMK_MSYS/mingw64/bin/../lib/gcc/arm-none-eabi/13.3.0/../../../../arm-none-eabi/lib/thumb/v7e-m+fp/hard\libg_nano.a(libc_a-reent.o)
 .debug_frame   0x0000279c       0x20 C:/QMK_MSYS/mingw64/bin/../lib/gcc/arm-none-eabi/13.3.0/../../../../arm-none-eabi/lib/thumb/v7e-m+fp/hard\libg_nano.a(libc_a-msizer.o)
 .debug_frame   0x000027bc       0x2c C:/QMK_MSYS/mingw64/bin/../lib/gcc/arm-none-eabi/13.3.0/../../../../arm-none-eabi/lib/thumb/v7e-m+fp/hard\libg_nano.a(libc_a-memcmp.o)

.debug_line_str
                0x00000000     0x1cea
 .debug_line_str
                0x00000000      0x174 C:\QMK_MSYS\tmp\ccYy8zNJ.debug.temp.o
 .debug_line_str
                0x00000000      0x28d C:\QMK_MSYS\tmp\cc8jr1VC.debug.temp.o
 .debug_line_str
                0x00000000      0x281 C:\QMK_MSYS\tmp\ccO4b5Y3.debug.temp.o
 .debug_line_str
                0x00000000      0x114 C:\QMK_MSYS\tmp\ccU9JcqW.debug.temp.o
 .debug_line_str
                0x00000000      0x201 C:\QMK_MSYS\tmp\ccgoXcxn.debug.temp.o
 .debug_line_str
                0x00000000      0x16c C:\QMK_MSYS\tmp\ccsxOlSO.debug.temp.o
 .debug_line_str
                0x00000000      0x11d C:\QMK_MSYS\tmp\cciViwbg.debug.temp.o
 .debug_line_str
                0x00000000      0x19b C:\QMK_MSYS\tmp\cca0yIIH.debug.temp.o
 .debug_line_str
                0x00000000      0x158 C:\QMK_MSYS\tmp\cc0pCGa9.debug.temp.o
 .debug_line_str
                0x00000000      0x26c C:\QMK_MSYS\tmp\ccwjgFEz.debug.temp.o
 .debug_line_str
                0x00000000      0x1a4 C:\QMK_MSYS\tmp\ccunYi4Z.debug.temp.o
 .debug_line_str
                0x00000000      0x109 C:\QMK_MSYS\tmp\cci23xsq.debug.temp.o
 .debug_line_str
                0x00000000       0xe7 C:\QMK_MSYS\tmp\ccaulbyh.debug.temp.o
 .debug_line_str
                0x00000000       0xe5 C:\QMK_MSYS\tmp\ccEA8olI.debug.temp.o
 .debug_line_str
                0x00000000       0xea C:\QMK_MSYS\tmp\ccWeMX28.debug.temp.o
 .debug_line_str
                0x00000000      0x16a C:\QMK_MSYS\tmp\cco2DIJz.debug.temp.o
 .debug_line_str
                0x00000000      0x252 C:\QMK_MSYS\tmp\ccmAD3C0.debug.temp.o
 .debug_line_str
                0x00000000      0x187 C:\QMK_MSYS\tmp\cc47Kovr.debug.temp.o
 .debug_line_str
                0x00000000       0x5d C:\QMK_MSYS\tmp\ccsbw1pR.debug.temp.o
 .debug_line_str
                0x00000000      0x14c C:\QMK_MSYS\tmp\cc6u1jfh.debug.temp.o
 .debug_line_str
                0x00000000      0x175 C:\QMK_MSYS\tmp\ccWqp82G.debug.temp.o
 .debug_line_str
                0x00000000      0x168 C:\QMK_MSYS\tmp\cc2KLL36.debug.temp.o
 .debug_line_str
                0x00000000       0xe4 C:\QMK_MSYS\tmp\ccCAUx2w.debug.temp.o
 .debug_line_str
                0x00000000      0x610 C:\QMK_MSYS\tmp\ccavKcfX.debug.temp.o
 .debug_line_str
                0x00000000      0x135 C:\QMK_MSYS\tmp\ccGKnDmn.debug.temp.o
 .debug_line_str
                0x00000000      0x15c C:\QMK_MSYS\tmp\cce79oHN.debug.temp.o
 .debug_line_str
                0x00000000       0xe6 C:\QMK_MSYS\tmp\cckRVoYd.debug.temp.o
 .debug_line_str
                0x00000000       0xdf C:\QMK_MSYS\tmp\ccqbgfYH.debug.temp.o
 .debug_line_str
                0x00000000      0x1ac C:\QMK_MSYS\tmp\cciESETb.debug.temp.o
 .debug_line_str
                0x00000000      0x1e1 C:\QMK_MSYS\tmp\ccGvlT2F.debug.temp.o
 .debug_line_str
                0x00000000      0x1c6 C:\QMK_MSYS\tmp\cc4I5Saa.debug.temp.o
 .debug_line_str
                0x00000000      0x1e6 C:\QMK_MSYS\tmp\ccSnR1cE.debug.temp.o
 .debug_line_str
                0x00000000      0x14d C:\QMK_MSYS\tmp\ccyWH1w8.debug.temp.o
 .debug_line_str
                0x00000000      0x163 C:\QMK_MSYS\tmp\ccoCtGLC.debug.temp.o
 .debug_line_str
                0x00000000      0x142 C:\QMK_MSYS\tmp\ccQpxRe7.debug.temp.o
 .debug_line_str
                0x00000000      0x158 C:\QMK_MSYS\tmp\ccMU9izB.debug.temp.o
 .debug_line_str
                0x00000000      0x104 C:\QMK_MSYS\tmp\ccO4Lu04.debug.temp.o
 .debug_line_str
                0x00000000      0x144 C:\QMK_MSYS\tmp\ccgPjOV1.debug.temp.o
 .debug_line_str
                0x00000000      0x208 C:\QMK_MSYS\tmp\ccwAvutv.debug.temp.o
 .debug_line_str
                0x00000000      0x11e C:\QMK_MSYS\tmp\ccW8nlXY.debug.temp.o
 .debug_line_str
                0x00000000      0x1a6 C:\QMK_MSYS\tmp\cccktRCs.debug.temp.o
 .debug_line_str
                0x00000000      0x10c C:\QMK_MSYS\tmp\cc6pXUhW.debug.temp.o
 .debug_line_str
                0x00000000       0xe8 C:\QMK_MSYS\tmp\ccek32UT.debug.temp.o
 .debug_line_str
                0x00000000       0xb1 C:\QMK_MSYS\tmp\ccwnQKdL.debug.temp.o
 .debug_line_str
                0x00000000      0x178 C:\QMK_MSYS\tmp\ccOJie5d.debug.temp.o
 .debug_line_str
                0x00000000      0x1ad C:\QMK_MSYS\tmp\ccG4SEeH.debug.temp.o
 .debug_line_str
                0x00000000      0x157 C:\QMK_MSYS\tmp\cckinsha.debug.temp.o
 .debug_line_str
                0x00000000      0x3f0 C:\QMK_MSYS\tmp\ccgRbtjD.debug.temp.o
 .debug_line_str
                0x00000000      0x30a C:\QMK_MSYS\tmp\ccGbXBy6.debug.temp.o
 .debug_line_str
                0x00000000      0x1cc C:\QMK_MSYS\tmp\ccqU3HIz.debug.temp.o
 .debug_line_str
                0x00000000      0x31c C:\QMK_MSYS\tmp\cccI8FZ1.debug.temp.o
 .debug_line_str
                0x00000000      0x2de C:\QMK_MSYS\tmp\ccuGGubu.debug.temp.o
 .debug_line_str
                0x00000000      0x3be C:\QMK_MSYS\tmp\ccwcIvzW.debug.temp.o
 .debug_line_str
                0x00000000      0x123 C:\QMK_MSYS\tmp\ccU2tOfR.debug.temp.o
 .debug_line_str
                0x00000000      0x290 C:\QMK_MSYS\tmp\ccOcGXKj.debug.temp.o
 .debug_line_str
                0x00000000      0x1b9 C:\QMK_MSYS\tmp\ccW11CeM.debug.temp.o
 .debug_line_str
                0x00000000      0x227 C:\QMK_MSYS\tmp\ccS8sjUd.debug.temp.o
 .debug_line_str
                0x00000000      0x1fd C:\QMK_MSYS\tmp\ccMcYjfK.debug.temp.o
 .debug_line_str
                0x00000000      0x204 C:\QMK_MSYS\tmp\ccyqoOug.debug.temp.o
 .debug_line_str
                0x00000000      0x288 C:\QMK_MSYS\tmp\cccqrNWM.debug.temp.o
 .debug_line_str
                0x00000000      0x209 C:\QMK_MSYS\tmp\cckT9yUp.debug.temp.o
 .debug_line_str
                0x00000000      0x22f C:\QMK_MSYS\tmp\ccUajHNZ.debug.temp.o
 .debug_line_str
                0x00000000      0x1f0 C:\QMK_MSYS\tmp\ccCSIbRx.debug.temp.o
 .debug_line_str
                0x00000000      0x172 C:\QMK_MSYS\tmp\ccgwBwl6.debug.temp.o
 .debug_line_str
                0x00000000      0x181 C:\QMK_MSYS\tmp\ccKS4vMB.debug.temp.o
 .debug_line_str
                0x00000000      0x27e C:\QMK_MSYS\tmp\cca7GX86.debug.temp.o
 .debug_line_str
                0x00000000      0x328 C:\QMK_MSYS\tmp\ccEe4n45.debug.temp.o
 .debug_line_str
                0x00000000      0x312 C:\QMK_MSYS\tmp\ccKK5gCm.debug.temp.o
 .debug_line_str
                0x00000000      0x147 C:\QMK_MSYS\tmp\ccCHaup1.debug.temp.o
 .debug_line_str
                0x00000000      0x445 C:\QMK_MSYS\tmp\ccaMHsKz.debug.temp.o
 .debug_line_str
                0x00000000      0x1da C:\QMK_MSYS\tmp\cco0Ypj8.debug.temp.o
 .debug_line_str
                0x00000000      0x23a C:\QMK_MSYS\tmp\cc4Drlro.debug.temp.o
 .debug_line_str
                0x00000000      0x13a C:\QMK_MSYS\tmp\ccAQkt0t.debug.temp.o
 .debug_line_str
                0x00000000      0x384 C:\QMK_MSYS\tmp\ccQpYuI1.debug.temp.o
 .debug_line_str
                0x00000000      0x36f C:\QMK_MSYS\tmp\ccu6aUw7.debug.temp.o
 .debug_line_str
                0x00000000      0x23f C:\QMK_MSYS\tmp\cc6xi9gk.debug.temp.o
 .debug_line_str
                0x00000000      0x1be C:\QMK_MSYS\tmp\ccurH6dg.debug.temp.o
 .debug_line_str
                0x00000000      0x1f2 C:\QMK_MSYS\tmp\ccad69BR.debug.temp.o
 .debug_line_str
                0x00000000      0x179 C:\QMK_MSYS\tmp\ccAjuQ4s.debug.temp.o
 .debug_line_str
                0x00000000     0x1cea C:/QMK_MSYS/mingw64/bin/../lib/gcc/arm-none-eabi/13.3.0/thumb/v7e-m+fp/hard\libgcc.a(_aeabi_uldivmod.o)
                                 0x72 (size before relaxing)
 .debug_line_str
                0x00001cea       0x76 C:/QMK_MSYS/mingw64/bin/../lib/gcc/arm-none-eabi/13.3.0/thumb/v7e-m+fp/hard\libgcc.a(_dvmd_tls.o)
 .debug_line_str
                0x00001cea       0x89 C:/QMK_MSYS/mingw64/bin/../lib/gcc/arm-none-eabi/13.3.0/../../../../arm-none-eabi/lib/thumb/v7e-m+fp/hard\libg_nano.a(libc_a-memchr.o)
 .debug_line_str
                0x00001cea       0x90 C:/QMK_MSYS/mingw64/bin/../lib/gcc/arm-none-eabi/13.3.0/../../../../arm-none-eabi/lib/thumb/v7e-m+fp/hard\libg_nano.a(libc_a-memcpy.o)

Cross Reference Table

Symbol                                            File
BAND_PINWHEEL_SAT                                 .build/obj_vessel_base/quantum/rgb_matrix/rgb_matrix.o (symbol from plugin)
BAND_PINWHEEL_VAL                                 .build/obj_vessel_base/quantum/rgb_matrix/rgb_matrix.o (symbol from plugin)
BAND_SAT                                          .build/obj_vessel_base/quantum/rgb_matrix/rgb_matrix.o (symbol from plugin)
BAND_SPIRAL_SAT                                   .build/obj_vessel_base/quantum/rgb_matrix/rgb_matrix.o (symbol from plugin)
BAND_SPIRAL_VAL                                   .build/obj_vessel_base/quantum/rgb_matrix/rgb_matrix.o (symbol from plugin)
BAND_VAL                                          .build/obj_vessel_base/quantum/rgb_matrix/rgb_matrix.o (symbol from plugin)
BREATHING                                         .build/obj_vessel_base/quantum/rgb_matrix/rgb_matrix.o (symbol from plugin)
BusFault_Handler                                  .build/obj_vessel_base/./lib/chibios/os/common/startup/ARMCMx/compilers/GCC/vectors.o
CIE1931_CURVE                                     .build/obj_vessel_base/quantum/led_tables.o (symbol from plugin)
                                                  .build/obj_vessel_base/quantum/color.o (symbol from plugin)
CYCLE_ALL                                         .build/obj_vessel_base/quantum/rgb_matrix/rgb_matrix.o (symbol from plugin)
CYCLE_LEFT_RIGHT                                  .build/obj_vessel_base/quantum/rgb_matrix/rgb_matrix.o (symbol from plugin)
CYCLE_OUT_IN                                      .build/obj_vessel_base/quantum/rgb_matrix/rgb_matrix.o (symbol from plugin)
CYCLE_OUT_IN_DUAL                                 .build/obj_vessel_base/quantum/rgb_matrix/rgb_matrix.o (symbol from plugin)
CYCLE_PINWHEEL                                    .build/obj_vessel_base/quantum/rgb_matrix/rgb_matrix.o (symbol from plugin)
CYCLE_SPIRAL                                      .build/obj_vessel_base/quantum/rgb_matrix/rgb_matrix.o (symbol from plugin)
CYCLE_UP_DOWN                                     .build/obj_vessel_base/quantum/rgb_matrix/rgb_matrix.o (symbol from plugin)
ConfigurationDescriptor                           .build/obj_vessel_base/usb_descriptor.o (symbol from plugin)
DUAL_BEACON                                       .build/obj_vessel_base/quantum/rgb_matrix/rgb_matrix.o (symbol from plugin)
DebugMon_Handler                                  .build/obj_vessel_base/./lib/chibios/os/common/startup/ARMCMx/compilers/GCC/vectors.o
DeviceDescriptor                                  .build/obj_vessel_base/usb_descriptor.o (symbol from plugin)
FLOWER_BLOOMING                                   .build/obj_vessel_base/quantum/rgb_matrix/rgb_matrix.o (symbol from plugin)
GRADIENT_LEFT_RIGHT                               .build/obj_vessel_base/quantum/rgb_matrix/rgb_matrix.o (symbol from plugin)
HUE_BREATHING                                     .build/obj_vessel_base/quantum/rgb_matrix/rgb_matrix.o (symbol from plugin)
HUE_PENDULUM                                      .build/obj_vessel_base/quantum/rgb_matrix/rgb_matrix.o (symbol from plugin)
HUE_WAVE                                          .build/obj_vessel_base/quantum/rgb_matrix/rgb_matrix.o (symbol from plugin)
HardFault_Handler                                 .build/obj_vessel_base/./lib/chibios/os/common/startup/ARMCMx/compilers/GCC/vectors.o
I2CD1                                             C:\QMK_MSYS\tmp\ccs2W3Vd.ltrans0.ltrans.o
                                                  .build/obj_vessel_base/lib/chibios/os/hal/ports/STM32/LLD/I2Cv1/hal_i2c_lld.o (symbol from plugin)
                                                  .build/obj_vessel_base/i2c_master.a(i2c_master.o)
KeyboardReport                                    .build/obj_vessel_base/usb_descriptor.o (symbol from plugin)
LanguageString                                    .build/obj_vessel_base/usb_descriptor.o (symbol from plugin)
MULTISPLASH                                       .build/obj_vessel_base/quantum/rgb_matrix/rgb_matrix.o (symbol from plugin)
ManufacturerString                                .build/obj_vessel_base/usb_descriptor.o (symbol from plugin)
MemManage_Handler                                 .build/obj_vessel_base/./lib/chibios/os/common/startup/ARMCMx/compilers/GCC/vectors.o
NMI_Handler                                       .build/obj_vessel_base/./lib/chibios/os/common/startup/ARMCMx/compilers/GCC/vectors.o
PendSV_Handler                                    .build/obj_vessel_base/./lib/chibios/os/common/startup/ARMCMx/compilers/GCC/vectors.o
ProductString                                     .build/obj_vessel_base/usb_descriptor.o (symbol from plugin)
RAINBOW_BEACON                                    .build/obj_vessel_base/quantum/rgb_matrix/rgb_matrix.o (symbol from plugin)
RAINBOW_MOVING_CHEVRON                            .build/obj_vessel_base/quantum/rgb_matrix/rgb_matrix.o (symbol from plugin)
RAINBOW_PINWHEELS                                 .build/obj_vessel_base/quantum/rgb_matrix/rgb_matrix.o (symbol from plugin)
RIVERFLOW                                         .build/obj_vessel_base/quantum/rgb_matrix/rgb_matrix.o (symbol from plugin)
Reset_Handler                                     .build/obj_vessel_base/./lib/chibios/os/common/startup/ARMCMx/compilers/GCC/vectors.o
SOLID_COLOR                                       .build/obj_vessel_base/quantum/rgb_matrix/rgb_matrix.o (symbol from plugin)
SOLID_MULTISPLASH                                 .build/obj_vessel_base/quantum/rgb_matrix/rgb_matrix.o (symbol from plugin)
SOLID_REACTIVE                                    .build/obj_vessel_base/quantum/rgb_matrix/rgb_matrix.o (symbol from plugin)
SOLID_REACTIVE_CROSS                              .build/obj_vessel_base/quantum/rgb_matrix/rgb_matrix.o (symbol from plugin)
SOLID_REACTIVE_MULTICROSS                         .build/obj_vessel_base/quantum/rgb_matrix/rgb_matrix.o (symbol from plugin)
SOLID_REACTIVE_MULTINEXUS                         .build/obj_vessel_base/quantum/rgb_matrix/rgb_matrix.o (symbol from plugin)
SOLID_REACTIVE_MULTIWIDE                          .build/obj_vessel_base/quantum/rgb_matrix/rgb_matrix.o (symbol from plugin)
SOLID_REACTIVE_NEXUS                              .build/obj_vessel_base/quantum/rgb_matrix/rgb_matrix.o (symbol from plugin)
SOLID_REACTIVE_SIMPLE                             .build/obj_vessel_base/quantum/rgb_matrix/rgb_matrix.o (symbol from plugin)
SOLID_REACTIVE_WIDE                               .build/obj_vessel_base/quantum/rgb_matrix/rgb_matrix.o (symbol from plugin)
SOLID_SPLASH                                      .build/obj_vessel_base/quantum/rgb_matrix/rgb_matrix.o (symbol from plugin)
SOLID_SPLASH_math                                 .build/obj_vessel_base/quantum/rgb_matrix/rgb_matrix.o (symbol from plugin)
SPLASH                                            .build/obj_vessel_base/quantum/rgb_matrix/rgb_matrix.o (symbol from plugin)
SPLASH_math                                       .build/obj_vessel_base/quantum/rgb_matrix/rgb_matrix.o (symbol from plugin)
STARLIGHT                                         .build/obj_vessel_base/quantum/rgb_matrix/rgb_matrix.o (symbol from plugin)
STARLIGHT_DUAL_HUE                                .build/obj_vessel_base/quantum/rgb_matrix/rgb_matrix.o (symbol from plugin)
STARLIGHT_DUAL_SAT                                .build/obj_vessel_base/quantum/rgb_matrix/rgb_matrix.o (symbol from plugin)
SVC_Handler                                       C:\QMK_MSYS\tmp\ccs2W3Vd.ltrans0.ltrans.o
                                                  .build/obj_vessel_base/lib/chibios/os/common/ports/ARMv7-M/chcore.o (symbol from plugin)
                                                  .build/obj_vessel_base/./lib/chibios/os/common/startup/ARMCMx/compilers/GCC/vectors.o
SecureFault_Handler                               .build/obj_vessel_base/./lib/chibios/os/common/startup/ARMCMx/compilers/GCC/vectors.o
SharedReport                                      .build/obj_vessel_base/usb_descriptor.o (symbol from plugin)
SysTick_Handler                                   .build/obj_vessel_base/./lib/chibios/os/common/startup/ARMCMx/compilers/GCC/vectors.o
SystemCoreClock                                   .build/obj_vessel_base/lib/chibios/os/hal/ports/STM32/STM32F4xx/hal_lld.o (symbol from plugin)
USBD1                                             .build/obj_vessel_base/lib/chibios/os/hal/ports/STM32/LLD/OTGv1/hal_usb_lld.o (symbol from plugin)
                                                  .build/obj_vessel_base/protocol/chibios/usb_util.o (symbol from plugin)
                                                  .build/obj_vessel_base/protocol/chibios/usb_endpoints.o (symbol from plugin)
                                                  .build/obj_vessel_base/protocol/chibios/chibios.o (symbol from plugin)
                                                  .build/obj_vessel_base/protocol/chibios/usb_main.o (symbol from plugin)
UsageFault_Handler                                .build/obj_vessel_base/./lib/chibios/os/common/startup/ARMCMx/compilers/GCC/vectors.o
Vector100                                         .build/obj_vessel_base/./lib/chibios/os/common/startup/ARMCMx/compilers/GCC/vectors.o
Vector104                                         .build/obj_vessel_base/./lib/chibios/os/common/startup/ARMCMx/compilers/GCC/vectors.o
Vector108                                         .build/obj_vessel_base/./lib/chibios/os/common/startup/ARMCMx/compilers/GCC/vectors.o
Vector10C                                         .build/obj_vessel_base/./lib/chibios/os/common/startup/ARMCMx/compilers/GCC/vectors.o
Vector110                                         .build/obj_vessel_base/./lib/chibios/os/common/startup/ARMCMx/compilers/GCC/vectors.o
Vector114                                         .build/obj_vessel_base/./lib/chibios/os/common/startup/ARMCMx/compilers/GCC/vectors.o
Vector118                                         .build/obj_vessel_base/./lib/chibios/os/common/startup/ARMCMx/compilers/GCC/vectors.o
Vector11C                                         .build/obj_vessel_base/./lib/chibios/os/common/startup/ARMCMx/compilers/GCC/vectors.o
Vector120                                         C:\QMK_MSYS\tmp\ccs2W3Vd.ltrans0.ltrans.o
                                                  .build/obj_vessel_base/lib/chibios/os/hal/ports/STM32/LLD/DMAv2/stm32_dma.o (symbol from plugin)
                                                  .build/obj_vessel_base/./lib/chibios/os/common/startup/ARMCMx/compilers/GCC/vectors.o
Vector124                                         C:\QMK_MSYS\tmp\ccs2W3Vd.ltrans0.ltrans.o
                                                  .build/obj_vessel_base/lib/chibios/os/hal/ports/STM32/LLD/DMAv2/stm32_dma.o (symbol from plugin)
                                                  .build/obj_vessel_base/./lib/chibios/os/common/startup/ARMCMx/compilers/GCC/vectors.o
Vector128                                         C:\QMK_MSYS\tmp\ccs2W3Vd.ltrans0.ltrans.o
                                                  .build/obj_vessel_base/lib/chibios/os/hal/ports/STM32/LLD/DMAv2/stm32_dma.o (symbol from plugin)
                                                  .build/obj_vessel_base/./lib/chibios/os/common/startup/ARMCMx/compilers/GCC/vectors.o
Vector12C                                         C:\QMK_MSYS\tmp\ccs2W3Vd.ltrans0.ltrans.o
                                                  .build/obj_vessel_base/lib/chibios/os/hal/ports/STM32/LLD/DMAv2/stm32_dma.o (symbol from plugin)
                                                  .build/obj_vessel_base/./lib/chibios/os/common/startup/ARMCMx/compilers/GCC/vectors.o
Vector130                                         C:\QMK_MSYS\tmp\ccs2W3Vd.ltrans0.ltrans.o
                                                  .build/obj_vessel_base/lib/chibios/os/hal/ports/STM32/LLD/DMAv2/stm32_dma.o (symbol from plugin)
                                                  .build/obj_vessel_base/./lib/chibios/os/common/startup/ARMCMx/compilers/GCC/vectors.o
Vector134                                         .build/obj_vessel_base/./lib/chibios/os/common/startup/ARMCMx/compilers/GCC/vectors.o
Vector138                                         .build/obj_vessel_base/./lib/chibios/os/common/startup/ARMCMx/compilers/GCC/vectors.o
Vector13C                                         .build/obj_vessel_base/./lib/chibios/os/common/startup/ARMCMx/compilers/GCC/vectors.o
Vector140                                         .build/obj_vessel_base/./lib/chibios/os/common/startup/ARMCMx/compilers/GCC/vectors.o
Vector144                                         .build/obj_vessel_base/./lib/chibios/os/common/startup/ARMCMx/compilers/GCC/vectors.o
Vector148                                         .build/obj_vessel_base/./lib/chibios/os/common/startup/ARMCMx/compilers/GCC/vectors.o
Vector14C                                         C:\QMK_MSYS\tmp\ccs2W3Vd.ltrans0.ltrans.o
                                                  .build/obj_vessel_base/lib/chibios/os/hal/ports/STM32/LLD/OTGv1/hal_usb_lld.o (symbol from plugin)
                                                  .build/obj_vessel_base/./lib/chibios/os/common/startup/ARMCMx/compilers/GCC/vectors.o
Vector150                                         C:\QMK_MSYS\tmp\ccs2W3Vd.ltrans0.ltrans.o
                                                  .build/obj_vessel_base/lib/chibios/os/hal/ports/STM32/LLD/DMAv2/stm32_dma.o (symbol from plugin)
                                                  .build/obj_vessel_base/./lib/chibios/os/common/startup/ARMCMx/compilers/GCC/vectors.o
Vector154                                         C:\QMK_MSYS\tmp\ccs2W3Vd.ltrans0.ltrans.o
                                                  .build/obj_vessel_base/lib/chibios/os/hal/ports/STM32/LLD/DMAv2/stm32_dma.o (symbol from plugin)
                                                  .build/obj_vessel_base/./lib/chibios/os/common/startup/ARMCMx/compilers/GCC/vectors.o
Vector158                                         C:\QMK_MSYS\tmp\ccs2W3Vd.ltrans0.ltrans.o
                                                  .build/obj_vessel_base/lib/chibios/os/hal/ports/STM32/LLD/DMAv2/stm32_dma.o (symbol from plugin)
                                                  .build/obj_vessel_base/./lib/chibios/os/common/startup/ARMCMx/compilers/GCC/vectors.o
Vector15C                                         .build/obj_vessel_base/./lib/chibios/os/common/startup/ARMCMx/compilers/GCC/vectors.o
Vector160                                         .build/obj_vessel_base/./lib/chibios/os/common/startup/ARMCMx/compilers/GCC/vectors.o
Vector164                                         .build/obj_vessel_base/./lib/chibios/os/common/startup/ARMCMx/compilers/GCC/vectors.o
Vector168                                         .build/obj_vessel_base/./lib/chibios/os/common/startup/ARMCMx/compilers/GCC/vectors.o
Vector16C                                         .build/obj_vessel_base/./lib/chibios/os/common/startup/ARMCMx/compilers/GCC/vectors.o
Vector170                                         .build/obj_vessel_base/./lib/chibios/os/common/startup/ARMCMx/compilers/GCC/vectors.o
Vector174                                         .build/obj_vessel_base/./lib/chibios/os/common/startup/ARMCMx/compilers/GCC/vectors.o
Vector178                                         .build/obj_vessel_base/./lib/chibios/os/common/startup/ARMCMx/compilers/GCC/vectors.o
Vector17C                                         .build/obj_vessel_base/./lib/chibios/os/common/startup/ARMCMx/compilers/GCC/vectors.o
Vector180                                         .build/obj_vessel_base/./lib/chibios/os/common/startup/ARMCMx/compilers/GCC/vectors.o
Vector184                                         .build/obj_vessel_base/./lib/chibios/os/common/startup/ARMCMx/compilers/GCC/vectors.o
Vector188                                         .build/obj_vessel_base/./lib/chibios/os/common/startup/ARMCMx/compilers/GCC/vectors.o
Vector18C                                         .build/obj_vessel_base/./lib/chibios/os/common/startup/ARMCMx/compilers/GCC/vectors.o
Vector190                                         .build/obj_vessel_base/./lib/chibios/os/common/startup/ARMCMx/compilers/GCC/vectors.o
Vector194                                         .build/obj_vessel_base/./lib/chibios/os/common/startup/ARMCMx/compilers/GCC/vectors.o
Vector198                                         .build/obj_vessel_base/./lib/chibios/os/common/startup/ARMCMx/compilers/GCC/vectors.o
Vector19C                                         .build/obj_vessel_base/./lib/chibios/os/common/startup/ARMCMx/compilers/GCC/vectors.o
Vector1A0                                         .build/obj_vessel_base/./lib/chibios/os/common/startup/ARMCMx/compilers/GCC/vectors.o
Vector1A4                                         .build/obj_vessel_base/./lib/chibios/os/common/startup/ARMCMx/compilers/GCC/vectors.o
Vector1A8                                         .build/obj_vessel_base/./lib/chibios/os/common/startup/ARMCMx/compilers/GCC/vectors.o
Vector1AC                                         .build/obj_vessel_base/./lib/chibios/os/common/startup/ARMCMx/compilers/GCC/vectors.o
Vector1B0                                         .build/obj_vessel_base/./lib/chibios/os/common/startup/ARMCMx/compilers/GCC/vectors.o
Vector1B4                                         .build/obj_vessel_base/./lib/chibios/os/common/startup/ARMCMx/compilers/GCC/vectors.o
Vector1B8                                         .build/obj_vessel_base/./lib/chibios/os/common/startup/ARMCMx/compilers/GCC/vectors.o
Vector1BC                                         .build/obj_vessel_base/./lib/chibios/os/common/startup/ARMCMx/compilers/GCC/vectors.o
Vector1C0                                         .build/obj_vessel_base/./lib/chibios/os/common/startup/ARMCMx/compilers/GCC/vectors.o
Vector1C4                                         .build/obj_vessel_base/./lib/chibios/os/common/startup/ARMCMx/compilers/GCC/vectors.o
Vector1C8                                         .build/obj_vessel_base/./lib/chibios/os/common/startup/ARMCMx/compilers/GCC/vectors.o
Vector1CC                                         .build/obj_vessel_base/./lib/chibios/os/common/startup/ARMCMx/compilers/GCC/vectors.o
Vector1D0                                         .build/obj_vessel_base/./lib/chibios/os/common/startup/ARMCMx/compilers/GCC/vectors.o
Vector1D4                                         .build/obj_vessel_base/./lib/chibios/os/common/startup/ARMCMx/compilers/GCC/vectors.o
Vector1D8                                         .build/obj_vessel_base/./lib/chibios/os/common/startup/ARMCMx/compilers/GCC/vectors.o
Vector1DC                                         .build/obj_vessel_base/./lib/chibios/os/common/startup/ARMCMx/compilers/GCC/vectors.o
Vector20                                          .build/obj_vessel_base/./lib/chibios/os/common/startup/ARMCMx/compilers/GCC/vectors.o
Vector24                                          .build/obj_vessel_base/./lib/chibios/os/common/startup/ARMCMx/compilers/GCC/vectors.o
Vector28                                          .build/obj_vessel_base/./lib/chibios/os/common/startup/ARMCMx/compilers/GCC/vectors.o
Vector34                                          .build/obj_vessel_base/./lib/chibios/os/common/startup/ARMCMx/compilers/GCC/vectors.o
Vector40                                          .build/obj_vessel_base/./lib/chibios/os/common/startup/ARMCMx/compilers/GCC/vectors.o
Vector44                                          .build/obj_vessel_base/./lib/chibios/os/common/startup/ARMCMx/compilers/GCC/vectors.o
Vector48                                          .build/obj_vessel_base/./lib/chibios/os/common/startup/ARMCMx/compilers/GCC/vectors.o
Vector4C                                          .build/obj_vessel_base/./lib/chibios/os/common/startup/ARMCMx/compilers/GCC/vectors.o
Vector50                                          .build/obj_vessel_base/./lib/chibios/os/common/startup/ARMCMx/compilers/GCC/vectors.o
Vector54                                          .build/obj_vessel_base/./lib/chibios/os/common/startup/ARMCMx/compilers/GCC/vectors.o
Vector58                                          .build/obj_vessel_base/./lib/chibios/os/common/startup/ARMCMx/compilers/GCC/vectors.o
Vector5C                                          .build/obj_vessel_base/./lib/chibios/os/common/startup/ARMCMx/compilers/GCC/vectors.o
Vector60                                          .build/obj_vessel_base/./lib/chibios/os/common/startup/ARMCMx/compilers/GCC/vectors.o
Vector64                                          .build/obj_vessel_base/./lib/chibios/os/common/startup/ARMCMx/compilers/GCC/vectors.o
Vector68                                          .build/obj_vessel_base/./lib/chibios/os/common/startup/ARMCMx/compilers/GCC/vectors.o
Vector6C                                          C:\QMK_MSYS\tmp\ccs2W3Vd.ltrans0.ltrans.o
                                                  .build/obj_vessel_base/lib/chibios/os/hal/ports/STM32/LLD/DMAv2/stm32_dma.o (symbol from plugin)
                                                  .build/obj_vessel_base/./lib/chibios/os/common/startup/ARMCMx/compilers/GCC/vectors.o
Vector70                                          C:\QMK_MSYS\tmp\ccs2W3Vd.ltrans0.ltrans.o
                                                  .build/obj_vessel_base/lib/chibios/os/hal/ports/STM32/LLD/DMAv2/stm32_dma.o (symbol from plugin)
                                                  .build/obj_vessel_base/./lib/chibios/os/common/startup/ARMCMx/compilers/GCC/vectors.o
Vector74                                          C:\QMK_MSYS\tmp\ccs2W3Vd.ltrans0.ltrans.o
                                                  .build/obj_vessel_base/lib/chibios/os/hal/ports/STM32/LLD/DMAv2/stm32_dma.o (symbol from plugin)
                                                  .build/obj_vessel_base/./lib/chibios/os/common/startup/ARMCMx/compilers/GCC/vectors.o
Vector78                                          C:\QMK_MSYS\tmp\ccs2W3Vd.ltrans0.ltrans.o
                                                  .build/obj_vessel_base/lib/chibios/os/hal/ports/STM32/LLD/DMAv2/stm32_dma.o (symbol from plugin)
                                                  .build/obj_vessel_base/./lib/chibios/os/common/startup/ARMCMx/compilers/GCC/vectors.o
Vector7C                                          C:\QMK_MSYS\tmp\ccs2W3Vd.ltrans0.ltrans.o
                                                  .build/obj_vessel_base/lib/chibios/os/hal/ports/STM32/LLD/DMAv2/stm32_dma.o (symbol from plugin)
                                                  .build/obj_vessel_base/./lib/chibios/os/common/startup/ARMCMx/compilers/GCC/vectors.o
Vector80                                          C:\QMK_MSYS\tmp\ccs2W3Vd.ltrans0.ltrans.o
                                                  .build/obj_vessel_base/lib/chibios/os/hal/ports/STM32/LLD/DMAv2/stm32_dma.o (symbol from plugin)
                                                  .build/obj_vessel_base/./lib/chibios/os/common/startup/ARMCMx/compilers/GCC/vectors.o
Vector84                                          C:\QMK_MSYS\tmp\ccs2W3Vd.ltrans0.ltrans.o
                                                  .build/obj_vessel_base/lib/chibios/os/hal/ports/STM32/LLD/DMAv2/stm32_dma.o (symbol from plugin)
                                                  .build/obj_vessel_base/./lib/chibios/os/common/startup/ARMCMx/compilers/GCC/vectors.o
Vector88                                          .build/obj_vessel_base/./lib/chibios/os/common/startup/ARMCMx/compilers/GCC/vectors.o
Vector8C                                          .build/obj_vessel_base/./lib/chibios/os/common/startup/ARMCMx/compilers/GCC/vectors.o
Vector90                                          .build/obj_vessel_base/./lib/chibios/os/common/startup/ARMCMx/compilers/GCC/vectors.o
Vector94                                          .build/obj_vessel_base/./lib/chibios/os/common/startup/ARMCMx/compilers/GCC/vectors.o
Vector98                                          .build/obj_vessel_base/./lib/chibios/os/common/startup/ARMCMx/compilers/GCC/vectors.o
Vector9C                                          .build/obj_vessel_base/./lib/chibios/os/common/startup/ARMCMx/compilers/GCC/vectors.o
VectorA0                                          .build/obj_vessel_base/./lib/chibios/os/common/startup/ARMCMx/compilers/GCC/vectors.o
VectorA4                                          .build/obj_vessel_base/./lib/chibios/os/common/startup/ARMCMx/compilers/GCC/vectors.o
VectorA8                                          .build/obj_vessel_base/./lib/chibios/os/common/startup/ARMCMx/compilers/GCC/vectors.o
VectorAC                                          .build/obj_vessel_base/./lib/chibios/os/common/startup/ARMCMx/compilers/GCC/vectors.o
VectorB0                                          C:\QMK_MSYS\tmp\ccs2W3Vd.ltrans0.ltrans.o
                                                  .build/obj_vessel_base/lib/chibios/os/hal/ports/STM32/STM32F4xx/stm32_isr.o (symbol from plugin)
                                                  .build/obj_vessel_base/./lib/chibios/os/common/startup/ARMCMx/compilers/GCC/vectors.o
VectorB4                                          .build/obj_vessel_base/./lib/chibios/os/common/startup/ARMCMx/compilers/GCC/vectors.o
VectorB8                                          .build/obj_vessel_base/./lib/chibios/os/common/startup/ARMCMx/compilers/GCC/vectors.o
VectorBC                                          C:\QMK_MSYS\tmp\ccs2W3Vd.ltrans0.ltrans.o
                                                  .build/obj_vessel_base/lib/chibios/os/hal/ports/STM32/LLD/I2Cv1/hal_i2c_lld.o (symbol from plugin)
                                                  .build/obj_vessel_base/./lib/chibios/os/common/startup/ARMCMx/compilers/GCC/vectors.o
VectorC0                                          C:\QMK_MSYS\tmp\ccs2W3Vd.ltrans0.ltrans.o
                                                  .build/obj_vessel_base/lib/chibios/os/hal/ports/STM32/LLD/I2Cv1/hal_i2c_lld.o (symbol from plugin)
                                                  .build/obj_vessel_base/./lib/chibios/os/common/startup/ARMCMx/compilers/GCC/vectors.o
VectorC4                                          .build/obj_vessel_base/./lib/chibios/os/common/startup/ARMCMx/compilers/GCC/vectors.o
VectorC8                                          .build/obj_vessel_base/./lib/chibios/os/common/startup/ARMCMx/compilers/GCC/vectors.o
VectorCC                                          .build/obj_vessel_base/./lib/chibios/os/common/startup/ARMCMx/compilers/GCC/vectors.o
VectorD0                                          .build/obj_vessel_base/./lib/chibios/os/common/startup/ARMCMx/compilers/GCC/vectors.o
VectorD4                                          .build/obj_vessel_base/./lib/chibios/os/common/startup/ARMCMx/compilers/GCC/vectors.o
VectorD8                                          .build/obj_vessel_base/./lib/chibios/os/common/startup/ARMCMx/compilers/GCC/vectors.o
VectorDC                                          .build/obj_vessel_base/./lib/chibios/os/common/startup/ARMCMx/compilers/GCC/vectors.o
VectorE0                                          .build/obj_vessel_base/./lib/chibios/os/common/startup/ARMCMx/compilers/GCC/vectors.o
VectorE4                                          .build/obj_vessel_base/./lib/chibios/os/common/startup/ARMCMx/compilers/GCC/vectors.o
VectorE8                                          .build/obj_vessel_base/./lib/chibios/os/common/startup/ARMCMx/compilers/GCC/vectors.o
VectorEC                                          .build/obj_vessel_base/./lib/chibios/os/common/startup/ARMCMx/compilers/GCC/vectors.o
VectorF0                                          .build/obj_vessel_base/./lib/chibios/os/common/startup/ARMCMx/compilers/GCC/vectors.o
VectorF4                                          .build/obj_vessel_base/./lib/chibios/os/common/startup/ARMCMx/compilers/GCC/vectors.o
VectorF8                                          .build/obj_vessel_base/./lib/chibios/os/common/startup/ARMCMx/compilers/GCC/vectors.o
VectorFC                                          C:\QMK_MSYS\tmp\ccs2W3Vd.ltrans0.ltrans.o
                                                  .build/obj_vessel_base/lib/chibios/os/hal/ports/STM32/LLD/DMAv2/stm32_dma.o (symbol from plugin)
                                                  .build/obj_vessel_base/./lib/chibios/os/common/startup/ARMCMx/compilers/GCC/vectors.o
__aeabi_idiv0                                     C:/QMK_MSYS/mingw64/bin/../lib/gcc/arm-none-eabi/13.3.0/thumb/v7e-m+fp/hard\libgcc.a(_dvmd_tls.o)
__aeabi_ldiv0                                     C:/QMK_MSYS/mingw64/bin/../lib/gcc/arm-none-eabi/13.3.0/thumb/v7e-m+fp/hard\libgcc.a(_dvmd_tls.o)
                                                  C:/QMK_MSYS/mingw64/bin/../lib/gcc/arm-none-eabi/13.3.0/thumb/v7e-m+fp/hard\libgcc.a(_aeabi_uldivmod.o)
                                                  C:/QMK_MSYS/mingw64/bin/../lib/gcc/arm-none-eabi/13.3.0/thumb/v7e-m+fp/hard\libgcc.a(_aeabi_ldivmod.o)
__aeabi_ldivmod                                   C:/QMK_MSYS/mingw64/bin/../lib/gcc/arm-none-eabi/13.3.0/thumb/v7e-m+fp/hard\libgcc.a(_aeabi_ldivmod.o)
                                                  C:\QMK_MSYS\tmp\ccs2W3Vd.ltrans0.ltrans.o
                                                  .build/obj_vessel_base/i2c_master.a(i2c_master.o)
__aeabi_uldivmod                                  C:/QMK_MSYS/mingw64/bin/../lib/gcc/arm-none-eabi/13.3.0/thumb/v7e-m+fp/hard\libgcc.a(_aeabi_uldivmod.o)
                                                  C:\QMK_MSYS\tmp\ccs2W3Vd.ltrans0.ltrans.o
                                                  .build/obj_vessel_base/i2c_master.a(i2c_master.o)
__assert                                          C:/QMK_MSYS/mingw64/bin/../lib/gcc/arm-none-eabi/13.3.0/../../../../arm-none-eabi/lib/thumb/v7e-m+fp/hard\libg_nano.a(libc_a-assert.o)
__assert_func                                     C:/QMK_MSYS/mingw64/bin/../lib/gcc/arm-none-eabi/13.3.0/../../../../arm-none-eabi/lib/thumb/v7e-m+fp/hard\libg_nano.a(libc_a-assert.o)
                                                  C:/QMK_MSYS/mingw64/bin/../lib/gcc/arm-none-eabi/13.3.0/../../../../arm-none-eabi/lib/thumb/v7e-m+fp/hard\libg_nano.a(libc_a-rand.o)
__bss_base__                                      .build/obj_vessel_base/./lib/chibios/os/common/startup/ARMCMx/compilers/GCC/crt0_v7m.o
__bss_end__                                       .build/obj_vessel_base/./lib/chibios/os/common/startup/ARMCMx/compilers/GCC/crt0_v7m.o
__chibios_override___early_init                   .build/obj_vessel_base/lib/chibios/os/hal/boards/ST_NUCLEO64_F446RE/board.o (symbol from plugin)
                                                  .build/obj_vessel_base/protocol/chibios/chibios.o (symbol from plugin)
__chibios_override_boardInit                      .build/obj_vessel_base/lib/chibios/os/hal/boards/ST_NUCLEO64_F446RE/board.o (symbol from plugin)
                                                  .build/obj_vessel_base/protocol/chibios/chibios.o (symbol from plugin)
__core_init                                       .build/obj_vessel_base/lib/chibios/os/oslib/src/chmemcore.o (symbol from plugin)
                                                  .build/obj_vessel_base/lib/chibios/os/rt/src/chsys.o (symbol from plugin)
__cpu_init                                        C:\QMK_MSYS\tmp\ccs2W3Vd.ltrans0.ltrans.o
                                                  .build/obj_vessel_base/lib/chibios/os/common/startup/ARMCMx/compilers/GCC/crt1.o (symbol from plugin)
                                                  .build/obj_vessel_base/./lib/chibios/os/common/startup/ARMCMx/compilers/GCC/crt0_v7m.o
__cxa_pure_virtual                                .build/obj_vessel_base/lib/chibios/os/various/syscalls.o (symbol from plugin)
__data_base__                                     .build/obj_vessel_base/./lib/chibios/os/common/startup/ARMCMx/compilers/GCC/crt0_v7m.o
__data_end__                                      .build/obj_vessel_base/./lib/chibios/os/common/startup/ARMCMx/compilers/GCC/crt0_v7m.o
__default_exit                                    C:\QMK_MSYS\tmp\ccs2W3Vd.ltrans0.ltrans.o
                                                  .build/obj_vessel_base/lib/chibios/os/common/startup/ARMCMx/compilers/GCC/crt1.o (symbol from plugin)
                                                  .build/obj_vessel_base/./lib/chibios/os/common/startup/ARMCMx/compilers/GCC/crt0_v7m.o
__dso_handle                                      C:\QMK_MSYS\tmp\ccs2W3Vd.ltrans0.ltrans.o
                                                  .build/obj_vessel_base/platforms/chibios/syscall-fallbacks.o (symbol from plugin)
__early_init                                      C:\QMK_MSYS\tmp\ccs2W3Vd.ltrans0.ltrans.o
                                                  .build/obj_vessel_base/protocol/chibios/chibios.o (symbol from plugin)
                                                  .build/obj_vessel_base/./lib/chibios/os/common/startup/ARMCMx/compilers/GCC/crt0_v7m.o
__errno                                           C:/QMK_MSYS/mingw64/bin/../lib/gcc/arm-none-eabi/13.3.0/../../../../arm-none-eabi/lib/thumb/v7e-m+fp/hard\libg_nano.a(libc_a-errno.o)
                                                  .build/obj_vessel_base/platforms/chibios/syscall-fallbacks.o (symbol from plugin)
__fini_array_base__                               .build/obj_vessel_base/./lib/chibios/os/common/startup/ARMCMx/compilers/GCC/crt0_v7m.o
__fini_array_end__                                .build/obj_vessel_base/./lib/chibios/os/common/startup/ARMCMx/compilers/GCC/crt0_v7m.o
__fp_lock_all                                     C:/QMK_MSYS/mingw64/bin/../lib/gcc/arm-none-eabi/13.3.0/../../../../arm-none-eabi/lib/thumb/v7e-m+fp/hard\libg_nano.a(libc_a-findfp.o)
__fp_unlock_all                                   C:/QMK_MSYS/mingw64/bin/../lib/gcc/arm-none-eabi/13.3.0/../../../../arm-none-eabi/lib/thumb/v7e-m+fp/hard\libg_nano.a(libc_a-findfp.o)
__heap_base__                                     C:\QMK_MSYS\tmp\ccs2W3Vd.ltrans0.ltrans.o
                                                  .build/obj_vessel_base/lib/chibios/os/oslib/src/chmemcore.o (symbol from plugin)
__heap_end__                                      C:\QMK_MSYS\tmp\ccs2W3Vd.ltrans0.ltrans.o
                                                  .build/obj_vessel_base/lib/chibios/os/oslib/src/chmemcore.o (symbol from plugin)
__init_array_base__                               .build/obj_vessel_base/./lib/chibios/os/common/startup/ARMCMx/compilers/GCC/crt0_v7m.o
__init_array_end__                                .build/obj_vessel_base/./lib/chibios/os/common/startup/ARMCMx/compilers/GCC/crt0_v7m.o
__init_ram_areas                                  C:\QMK_MSYS\tmp\ccs2W3Vd.ltrans0.ltrans.o
                                                  .build/obj_vessel_base/lib/chibios/os/common/startup/ARMCMx/compilers/GCC/crt1.o (symbol from plugin)
                                                  .build/obj_vessel_base/./lib/chibios/os/common/startup/ARMCMx/compilers/GCC/crt0_v7m.o
__late_init                                       C:\QMK_MSYS\tmp\ccs2W3Vd.ltrans0.ltrans.o
                                                  .build/obj_vessel_base/lib/chibios/os/common/startup/ARMCMx/compilers/GCC/crt1.o (symbol from plugin)
                                                  .build/obj_vessel_base/./lib/chibios/os/common/startup/ARMCMx/compilers/GCC/crt0_v7m.o
__lock___arc4random_mutex                         C:/QMK_MSYS/mingw64/bin/../lib/gcc/arm-none-eabi/13.3.0/../../../../arm-none-eabi/lib/thumb/v7e-m+fp/hard\libg_nano.a(libc_a-lock.o)
__lock___at_quick_exit_mutex                      C:/QMK_MSYS/mingw64/bin/../lib/gcc/arm-none-eabi/13.3.0/../../../../arm-none-eabi/lib/thumb/v7e-m+fp/hard\libg_nano.a(libc_a-lock.o)
__lock___atexit_recursive_mutex                   C:/QMK_MSYS/mingw64/bin/../lib/gcc/arm-none-eabi/13.3.0/../../../../arm-none-eabi/lib/thumb/v7e-m+fp/hard\libg_nano.a(libc_a-lock.o)
__lock___dd_hash_mutex                            C:/QMK_MSYS/mingw64/bin/../lib/gcc/arm-none-eabi/13.3.0/../../../../arm-none-eabi/lib/thumb/v7e-m+fp/hard\libg_nano.a(libc_a-lock.o)
__lock___env_recursive_mutex                      C:/QMK_MSYS/mingw64/bin/../lib/gcc/arm-none-eabi/13.3.0/../../../../arm-none-eabi/lib/thumb/v7e-m+fp/hard\libg_nano.a(libc_a-lock.o)
__lock___malloc_recursive_mutex                   C:/QMK_MSYS/mingw64/bin/../lib/gcc/arm-none-eabi/13.3.0/../../../../arm-none-eabi/lib/thumb/v7e-m+fp/hard\libg_nano.a(libc_a-lock.o)
                                                  C:/QMK_MSYS/mingw64/bin/../lib/gcc/arm-none-eabi/13.3.0/../../../../arm-none-eabi/lib/thumb/v7e-m+fp/hard\libg_nano.a(libc_a-mlock.o)
__lock___sfp_recursive_mutex                      C:/QMK_MSYS/mingw64/bin/../lib/gcc/arm-none-eabi/13.3.0/../../../../arm-none-eabi/lib/thumb/v7e-m+fp/hard\libg_nano.a(libc_a-lock.o)
                                                  C:/QMK_MSYS/mingw64/bin/../lib/gcc/arm-none-eabi/13.3.0/../../../../arm-none-eabi/lib/thumb/v7e-m+fp/hard\libg_nano.a(libc_a-findfp.o)
__lock___tz_mutex                                 C:/QMK_MSYS/mingw64/bin/../lib/gcc/arm-none-eabi/13.3.0/../../../../arm-none-eabi/lib/thumb/v7e-m+fp/hard\libg_nano.a(libc_a-lock.o)
__main_stack_base__                               .build/obj_vessel_base/./lib/chibios/os/common/startup/ARMCMx/compilers/GCC/crt0_v7m.o
__main_stack_end__                                .build/obj_vessel_base/./lib/chibios/os/common/startup/ARMCMx/compilers/GCC/vectors.o
                                                  .build/obj_vessel_base/./lib/chibios/os/common/startup/ARMCMx/compilers/GCC/crt0_v7m.o
__malloc_free_list                                C:/QMK_MSYS/mingw64/bin/../lib/gcc/arm-none-eabi/13.3.0/../../../../arm-none-eabi/lib/thumb/v7e-m+fp/hard\libg_nano.a(libc_a-mallocr.o)
                                                  C:/QMK_MSYS/mingw64/bin/../lib/gcc/arm-none-eabi/13.3.0/../../../../arm-none-eabi/lib/thumb/v7e-m+fp/hard\libg_nano.a(libc_a-freer.o)
__malloc_lock                                     C:/QMK_MSYS/mingw64/bin/../lib/gcc/arm-none-eabi/13.3.0/../../../../arm-none-eabi/lib/thumb/v7e-m+fp/hard\libg_nano.a(libc_a-mlock.o)
                                                  C:/QMK_MSYS/mingw64/bin/../lib/gcc/arm-none-eabi/13.3.0/../../../../arm-none-eabi/lib/thumb/v7e-m+fp/hard\libg_nano.a(libc_a-freer.o)
                                                  C:/QMK_MSYS/mingw64/bin/../lib/gcc/arm-none-eabi/13.3.0/../../../../arm-none-eabi/lib/thumb/v7e-m+fp/hard\libg_nano.a(libc_a-mallocr.o)
__malloc_sbrk_start                               C:/QMK_MSYS/mingw64/bin/../lib/gcc/arm-none-eabi/13.3.0/../../../../arm-none-eabi/lib/thumb/v7e-m+fp/hard\libg_nano.a(libc_a-mallocr.o)
__malloc_unlock                                   C:/QMK_MSYS/mingw64/bin/../lib/gcc/arm-none-eabi/13.3.0/../../../../arm-none-eabi/lib/thumb/v7e-m+fp/hard\libg_nano.a(libc_a-mlock.o)
                                                  C:/QMK_MSYS/mingw64/bin/../lib/gcc/arm-none-eabi/13.3.0/../../../../arm-none-eabi/lib/thumb/v7e-m+fp/hard\libg_nano.a(libc_a-freer.o)
                                                  C:/QMK_MSYS/mingw64/bin/../lib/gcc/arm-none-eabi/13.3.0/../../../../arm-none-eabi/lib/thumb/v7e-m+fp/hard\libg_nano.a(libc_a-mallocr.o)
__port_exit_from_isr                              .build/obj_vessel_base/./lib/chibios/os/common/ports/ARMv7-M/compilers/GCC/chcoreasm.o
                                                  C:\QMK_MSYS\tmp\ccs2W3Vd.ltrans0.ltrans.o
                                                  .build/obj_vessel_base/lib/chibios/os/common/ports/ARMv7-M/chcore.o (symbol from plugin)
__port_irq_epilogue                               .build/obj_vessel_base/lib/chibios/os/common/ports/ARMv7-M/chcore.o (symbol from plugin)
                                                  .build/obj_vessel_base/lib/chibios/os/hal/ports/STM32/LLD/OTGv1/hal_usb_lld.o (symbol from plugin)
                                                  .build/obj_vessel_base/lib/chibios/os/hal/ports/STM32/LLD/I2Cv1/hal_i2c_lld.o (symbol from plugin)
                                                  .build/obj_vessel_base/lib/chibios/os/hal/ports/STM32/LLD/DMAv2/stm32_dma.o (symbol from plugin)
                                                  .build/obj_vessel_base/lib/chibios/os/hal/ports/STM32/STM32F4xx/stm32_isr.o (symbol from plugin)
__port_switch                                     .build/obj_vessel_base/./lib/chibios/os/common/ports/ARMv7-M/compilers/GCC/chcoreasm.o
                                                  C:\QMK_MSYS\tmp\ccs2W3Vd.ltrans0.ltrans.o
                                                  .build/obj_vessel_base/lib/chibios/os/rt/src/chschd.o (symbol from plugin)
__port_switch_from_isr                            .build/obj_vessel_base/./lib/chibios/os/common/ports/ARMv7-M/compilers/GCC/chcoreasm.o
                                                  C:\QMK_MSYS\tmp\ccs2W3Vd.ltrans0.ltrans.o
                                                  .build/obj_vessel_base/lib/chibios/os/common/ports/ARMv7-M/chcore.o (symbol from plugin)
__port_thread_start                               .build/obj_vessel_base/./lib/chibios/os/common/ports/ARMv7-M/compilers/GCC/chcoreasm.o
                                                  C:\QMK_MSYS\tmp\ccs2W3Vd.ltrans0.ltrans.o
                                                  .build/obj_vessel_base/lib/chibios/os/rt/src/chthreads.o (symbol from plugin)
__process_stack_base__                            .build/obj_vessel_base/./lib/chibios/os/common/startup/ARMCMx/compilers/GCC/crt0_v7m.o
__process_stack_end__                             .build/obj_vessel_base/./lib/chibios/os/common/startup/ARMCMx/compilers/GCC/crt0_v7m.o
__ram0_clear__                                    C:\QMK_MSYS\tmp\ccs2W3Vd.ltrans0.ltrans.o
                                                  .build/obj_vessel_base/lib/chibios/os/common/startup/ARMCMx/compilers/GCC/crt1.o (symbol from plugin)
__ram0_end__                                      C:\QMK_MSYS\tmp\ccs2W3Vd.ltrans0.ltrans.o
                                                  .build/obj_vessel_base/platforms/chibios/bootloaders/stm32_dfu.o (symbol from plugin)
__ram0_init__                                     C:\QMK_MSYS\tmp\ccs2W3Vd.ltrans0.ltrans.o
                                                  .build/obj_vessel_base/lib/chibios/os/common/startup/ARMCMx/compilers/GCC/crt1.o (symbol from plugin)
__ram0_init_text__                                C:\QMK_MSYS\tmp\ccs2W3Vd.ltrans0.ltrans.o
                                                  .build/obj_vessel_base/lib/chibios/os/common/startup/ARMCMx/compilers/GCC/crt1.o (symbol from plugin)
__ram0_noinit__                                   C:\QMK_MSYS\tmp\ccs2W3Vd.ltrans0.ltrans.o
                                                  .build/obj_vessel_base/lib/chibios/os/common/startup/ARMCMx/compilers/GCC/crt1.o (symbol from plugin)
__ram1_clear__                                    C:\QMK_MSYS\tmp\ccs2W3Vd.ltrans0.ltrans.o
                                                  .build/obj_vessel_base/lib/chibios/os/common/startup/ARMCMx/compilers/GCC/crt1.o (symbol from plugin)
__ram1_init__                                     C:\QMK_MSYS\tmp\ccs2W3Vd.ltrans0.ltrans.o
                                                  .build/obj_vessel_base/lib/chibios/os/common/startup/ARMCMx/compilers/GCC/crt1.o (symbol from plugin)
__ram1_init_text__                                C:\QMK_MSYS\tmp\ccs2W3Vd.ltrans0.ltrans.o
                                                  .build/obj_vessel_base/lib/chibios/os/common/startup/ARMCMx/compilers/GCC/crt1.o (symbol from plugin)
__ram1_noinit__                                   C:\QMK_MSYS\tmp\ccs2W3Vd.ltrans0.ltrans.o
                                                  .build/obj_vessel_base/lib/chibios/os/common/startup/ARMCMx/compilers/GCC/crt1.o (symbol from plugin)
__ram2_clear__                                    C:\QMK_MSYS\tmp\ccs2W3Vd.ltrans0.ltrans.o
                                                  .build/obj_vessel_base/lib/chibios/os/common/startup/ARMCMx/compilers/GCC/crt1.o (symbol from plugin)
__ram2_init__                                     C:\QMK_MSYS\tmp\ccs2W3Vd.ltrans0.ltrans.o
                                                  .build/obj_vessel_base/lib/chibios/os/common/startup/ARMCMx/compilers/GCC/crt1.o (symbol from plugin)
__ram2_init_text__                                C:\QMK_MSYS\tmp\ccs2W3Vd.ltrans0.ltrans.o
                                                  .build/obj_vessel_base/lib/chibios/os/common/startup/ARMCMx/compilers/GCC/crt1.o (symbol from plugin)
__ram2_noinit__                                   C:\QMK_MSYS\tmp\ccs2W3Vd.ltrans0.ltrans.o
                                                  .build/obj_vessel_base/lib/chibios/os/common/startup/ARMCMx/compilers/GCC/crt1.o (symbol from plugin)
__ram3_clear__                                    C:\QMK_MSYS\tmp\ccs2W3Vd.ltrans0.ltrans.o
                                                  .build/obj_vessel_base/lib/chibios/os/common/startup/ARMCMx/compilers/GCC/crt1.o (symbol from plugin)
__ram3_init__                                     C:\QMK_MSYS\tmp\ccs2W3Vd.ltrans0.ltrans.o
                                                  .build/obj_vessel_base/lib/chibios/os/common/startup/ARMCMx/compilers/GCC/crt1.o (symbol from plugin)
__ram3_init_text__                                C:\QMK_MSYS\tmp\ccs2W3Vd.ltrans0.ltrans.o
                                                  .build/obj_vessel_base/lib/chibios/os/common/startup/ARMCMx/compilers/GCC/crt1.o (symbol from plugin)
__ram3_noinit__                                   C:\QMK_MSYS\tmp\ccs2W3Vd.ltrans0.ltrans.o
                                                  .build/obj_vessel_base/lib/chibios/os/common/startup/ARMCMx/compilers/GCC/crt1.o (symbol from plugin)
__ram4_clear__                                    C:\QMK_MSYS\tmp\ccs2W3Vd.ltrans0.ltrans.o
                                                  .build/obj_vessel_base/lib/chibios/os/common/startup/ARMCMx/compilers/GCC/crt1.o (symbol from plugin)
__ram4_init__                                     C:\QMK_MSYS\tmp\ccs2W3Vd.ltrans0.ltrans.o
                                                  .build/obj_vessel_base/lib/chibios/os/common/startup/ARMCMx/compilers/GCC/crt1.o (symbol from plugin)
__ram4_init_text__                                C:\QMK_MSYS\tmp\ccs2W3Vd.ltrans0.ltrans.o
                                                  .build/obj_vessel_base/lib/chibios/os/common/startup/ARMCMx/compilers/GCC/crt1.o (symbol from plugin)
__ram4_noinit__                                   C:\QMK_MSYS\tmp\ccs2W3Vd.ltrans0.ltrans.o
                                                  .build/obj_vessel_base/lib/chibios/os/common/startup/ARMCMx/compilers/GCC/crt1.o (symbol from plugin)
__ram5_clear__                                    C:\QMK_MSYS\tmp\ccs2W3Vd.ltrans0.ltrans.o
                                                  .build/obj_vessel_base/lib/chibios/os/common/startup/ARMCMx/compilers/GCC/crt1.o (symbol from plugin)
__ram5_init__                                     C:\QMK_MSYS\tmp\ccs2W3Vd.ltrans0.ltrans.o
                                                  .build/obj_vessel_base/lib/chibios/os/common/startup/ARMCMx/compilers/GCC/crt1.o (symbol from plugin)
__ram5_init_text__                                C:\QMK_MSYS\tmp\ccs2W3Vd.ltrans0.ltrans.o
                                                  .build/obj_vessel_base/lib/chibios/os/common/startup/ARMCMx/compilers/GCC/crt1.o (symbol from plugin)
__ram5_noinit__                                   C:\QMK_MSYS\tmp\ccs2W3Vd.ltrans0.ltrans.o
                                                  .build/obj_vessel_base/lib/chibios/os/common/startup/ARMCMx/compilers/GCC/crt1.o (symbol from plugin)
__ram6_clear__                                    C:\QMK_MSYS\tmp\ccs2W3Vd.ltrans0.ltrans.o
                                                  .build/obj_vessel_base/lib/chibios/os/common/startup/ARMCMx/compilers/GCC/crt1.o (symbol from plugin)
__ram6_init__                                     C:\QMK_MSYS\tmp\ccs2W3Vd.ltrans0.ltrans.o
                                                  .build/obj_vessel_base/lib/chibios/os/common/startup/ARMCMx/compilers/GCC/crt1.o (symbol from plugin)
__ram6_init_text__                                C:\QMK_MSYS\tmp\ccs2W3Vd.ltrans0.ltrans.o
                                                  .build/obj_vessel_base/lib/chibios/os/common/startup/ARMCMx/compilers/GCC/crt1.o (symbol from plugin)
__ram6_noinit__                                   C:\QMK_MSYS\tmp\ccs2W3Vd.ltrans0.ltrans.o
                                                  .build/obj_vessel_base/lib/chibios/os/common/startup/ARMCMx/compilers/GCC/crt1.o (symbol from plugin)
__ram7_clear__                                    C:\QMK_MSYS\tmp\ccs2W3Vd.ltrans0.ltrans.o
                                                  .build/obj_vessel_base/lib/chibios/os/common/startup/ARMCMx/compilers/GCC/crt1.o (symbol from plugin)
__ram7_init__                                     C:\QMK_MSYS\tmp\ccs2W3Vd.ltrans0.ltrans.o
                                                  .build/obj_vessel_base/lib/chibios/os/common/startup/ARMCMx/compilers/GCC/crt1.o (symbol from plugin)
__ram7_init_text__                                C:\QMK_MSYS\tmp\ccs2W3Vd.ltrans0.ltrans.o
                                                  .build/obj_vessel_base/lib/chibios/os/common/startup/ARMCMx/compilers/GCC/crt1.o (symbol from plugin)
__ram7_noinit__                                   C:\QMK_MSYS\tmp\ccs2W3Vd.ltrans0.ltrans.o
                                                  .build/obj_vessel_base/lib/chibios/os/common/startup/ARMCMx/compilers/GCC/crt1.o (symbol from plugin)
__retarget_lock_acquire                           C:/QMK_MSYS/mingw64/bin/../lib/gcc/arm-none-eabi/13.3.0/../../../../arm-none-eabi/lib/thumb/v7e-m+fp/hard\libg_nano.a(libc_a-lock.o)
__retarget_lock_acquire_recursive                 C:/QMK_MSYS/mingw64/bin/../lib/gcc/arm-none-eabi/13.3.0/../../../../arm-none-eabi/lib/thumb/v7e-m+fp/hard\libg_nano.a(libc_a-lock.o)
                                                  C:/QMK_MSYS/mingw64/bin/../lib/gcc/arm-none-eabi/13.3.0/../../../../arm-none-eabi/lib/thumb/v7e-m+fp/hard\libg_nano.a(libc_a-fflush.o)
                                                  C:/QMK_MSYS/mingw64/bin/../lib/gcc/arm-none-eabi/13.3.0/../../../../arm-none-eabi/lib/thumb/v7e-m+fp/hard\libg_nano.a(libc_a-findfp.o)
                                                  C:/QMK_MSYS/mingw64/bin/../lib/gcc/arm-none-eabi/13.3.0/../../../../arm-none-eabi/lib/thumb/v7e-m+fp/hard\libg_nano.a(libc_a-nano-vfprintf.o)
                                                  C:/QMK_MSYS/mingw64/bin/../lib/gcc/arm-none-eabi/13.3.0/../../../../arm-none-eabi/lib/thumb/v7e-m+fp/hard\libg_nano.a(libc_a-mlock.o)
__retarget_lock_close                             C:/QMK_MSYS/mingw64/bin/../lib/gcc/arm-none-eabi/13.3.0/../../../../arm-none-eabi/lib/thumb/v7e-m+fp/hard\libg_nano.a(libc_a-lock.o)
__retarget_lock_close_recursive                   C:/QMK_MSYS/mingw64/bin/../lib/gcc/arm-none-eabi/13.3.0/../../../../arm-none-eabi/lib/thumb/v7e-m+fp/hard\libg_nano.a(libc_a-lock.o)
__retarget_lock_init                              C:/QMK_MSYS/mingw64/bin/../lib/gcc/arm-none-eabi/13.3.0/../../../../arm-none-eabi/lib/thumb/v7e-m+fp/hard\libg_nano.a(libc_a-lock.o)
__retarget_lock_init_recursive                    C:/QMK_MSYS/mingw64/bin/../lib/gcc/arm-none-eabi/13.3.0/../../../../arm-none-eabi/lib/thumb/v7e-m+fp/hard\libg_nano.a(libc_a-lock.o)
                                                  C:/QMK_MSYS/mingw64/bin/../lib/gcc/arm-none-eabi/13.3.0/../../../../arm-none-eabi/lib/thumb/v7e-m+fp/hard\libg_nano.a(libc_a-findfp.o)
__retarget_lock_release                           C:/QMK_MSYS/mingw64/bin/../lib/gcc/arm-none-eabi/13.3.0/../../../../arm-none-eabi/lib/thumb/v7e-m+fp/hard\libg_nano.a(libc_a-lock.o)
__retarget_lock_release_recursive                 C:/QMK_MSYS/mingw64/bin/../lib/gcc/arm-none-eabi/13.3.0/../../../../arm-none-eabi/lib/thumb/v7e-m+fp/hard\libg_nano.a(libc_a-lock.o)
                                                  C:/QMK_MSYS/mingw64/bin/../lib/gcc/arm-none-eabi/13.3.0/../../../../arm-none-eabi/lib/thumb/v7e-m+fp/hard\libg_nano.a(libc_a-fflush.o)
                                                  C:/QMK_MSYS/mingw64/bin/../lib/gcc/arm-none-eabi/13.3.0/../../../../arm-none-eabi/lib/thumb/v7e-m+fp/hard\libg_nano.a(libc_a-findfp.o)
                                                  C:/QMK_MSYS/mingw64/bin/../lib/gcc/arm-none-eabi/13.3.0/../../../../arm-none-eabi/lib/thumb/v7e-m+fp/hard\libg_nano.a(libc_a-nano-vfprintf.o)
                                                  C:/QMK_MSYS/mingw64/bin/../lib/gcc/arm-none-eabi/13.3.0/../../../../arm-none-eabi/lib/thumb/v7e-m+fp/hard\libg_nano.a(libc_a-mlock.o)
__retarget_lock_try_acquire                       C:/QMK_MSYS/mingw64/bin/../lib/gcc/arm-none-eabi/13.3.0/../../../../arm-none-eabi/lib/thumb/v7e-m+fp/hard\libg_nano.a(libc_a-lock.o)
__retarget_lock_try_acquire_recursive             C:/QMK_MSYS/mingw64/bin/../lib/gcc/arm-none-eabi/13.3.0/../../../../arm-none-eabi/lib/thumb/v7e-m+fp/hard\libg_nano.a(libc_a-lock.o)
__sclose                                          C:/QMK_MSYS/mingw64/bin/../lib/gcc/arm-none-eabi/13.3.0/../../../../arm-none-eabi/lib/thumb/v7e-m+fp/hard\libg_nano.a(libc_a-stdio.o)
                                                  C:/QMK_MSYS/mingw64/bin/../lib/gcc/arm-none-eabi/13.3.0/../../../../arm-none-eabi/lib/thumb/v7e-m+fp/hard\libg_nano.a(libc_a-findfp.o)
__seofread                                        C:/QMK_MSYS/mingw64/bin/../lib/gcc/arm-none-eabi/13.3.0/../../../../arm-none-eabi/lib/thumb/v7e-m+fp/hard\libg_nano.a(libc_a-stdio.o)
__sf                                              C:/QMK_MSYS/mingw64/bin/../lib/gcc/arm-none-eabi/13.3.0/../../../../arm-none-eabi/lib/thumb/v7e-m+fp/hard\libg_nano.a(libc_a-findfp.o)
                                                  C:/QMK_MSYS/mingw64/bin/../lib/gcc/arm-none-eabi/13.3.0/../../../../arm-none-eabi/lib/thumb/v7e-m+fp/hard\libg_nano.a(libc_a-impure.o)
__sflush_r                                        C:/QMK_MSYS/mingw64/bin/../lib/gcc/arm-none-eabi/13.3.0/../../../../arm-none-eabi/lib/thumb/v7e-m+fp/hard\libg_nano.a(libc_a-fflush.o)
__sfp                                             C:/QMK_MSYS/mingw64/bin/../lib/gcc/arm-none-eabi/13.3.0/../../../../arm-none-eabi/lib/thumb/v7e-m+fp/hard\libg_nano.a(libc_a-findfp.o)
__sfp_lock_acquire                                C:/QMK_MSYS/mingw64/bin/../lib/gcc/arm-none-eabi/13.3.0/../../../../arm-none-eabi/lib/thumb/v7e-m+fp/hard\libg_nano.a(libc_a-findfp.o)
__sfp_lock_release                                C:/QMK_MSYS/mingw64/bin/../lib/gcc/arm-none-eabi/13.3.0/../../../../arm-none-eabi/lib/thumb/v7e-m+fp/hard\libg_nano.a(libc_a-findfp.o)
__sfputs_r                                        C:/QMK_MSYS/mingw64/bin/../lib/gcc/arm-none-eabi/13.3.0/../../../../arm-none-eabi/lib/thumb/v7e-m+fp/hard\libg_nano.a(libc_a-nano-vfprintf.o)
__sfvwrite_r                                      C:/QMK_MSYS/mingw64/bin/../lib/gcc/arm-none-eabi/13.3.0/../../../../arm-none-eabi/lib/thumb/v7e-m+fp/hard\libg_nano.a(libc_a-fvwrite.o)
                                                  C:/QMK_MSYS/mingw64/bin/../lib/gcc/arm-none-eabi/13.3.0/../../../../arm-none-eabi/lib/thumb/v7e-m+fp/hard\libg_nano.a(libc_a-nano-vfprintf.o)
__sglue                                           C:/QMK_MSYS/mingw64/bin/../lib/gcc/arm-none-eabi/13.3.0/../../../../arm-none-eabi/lib/thumb/v7e-m+fp/hard\libg_nano.a(libc_a-findfp.o)
                                                  C:/QMK_MSYS/mingw64/bin/../lib/gcc/arm-none-eabi/13.3.0/../../../../arm-none-eabi/lib/thumb/v7e-m+fp/hard\libg_nano.a(libc_a-fflush.o)
__sigtramp                                        C:/QMK_MSYS/mingw64/bin/../lib/gcc/arm-none-eabi/13.3.0/../../../../arm-none-eabi/lib/thumb/v7e-m+fp/hard\libg_nano.a(libc_a-signal.o)
__sigtramp_r                                      C:/QMK_MSYS/mingw64/bin/../lib/gcc/arm-none-eabi/13.3.0/../../../../arm-none-eabi/lib/thumb/v7e-m+fp/hard\libg_nano.a(libc_a-signal.o)
__sinit                                           C:/QMK_MSYS/mingw64/bin/../lib/gcc/arm-none-eabi/13.3.0/../../../../arm-none-eabi/lib/thumb/v7e-m+fp/hard\libg_nano.a(libc_a-findfp.o)
                                                  C:/QMK_MSYS/mingw64/bin/../lib/gcc/arm-none-eabi/13.3.0/../../../../arm-none-eabi/lib/thumb/v7e-m+fp/hard\libg_nano.a(libc_a-fflush.o)
                                                  C:/QMK_MSYS/mingw64/bin/../lib/gcc/arm-none-eabi/13.3.0/../../../../arm-none-eabi/lib/thumb/v7e-m+fp/hard\libg_nano.a(libc_a-wsetup.o)
                                                  C:/QMK_MSYS/mingw64/bin/../lib/gcc/arm-none-eabi/13.3.0/../../../../arm-none-eabi/lib/thumb/v7e-m+fp/hard\libg_nano.a(libc_a-wbuf.o)
                                                  C:/QMK_MSYS/mingw64/bin/../lib/gcc/arm-none-eabi/13.3.0/../../../../arm-none-eabi/lib/thumb/v7e-m+fp/hard\libg_nano.a(libc_a-nano-vfprintf.o)
__smakebuf_r                                      C:/QMK_MSYS/mingw64/bin/../lib/gcc/arm-none-eabi/13.3.0/../../../../arm-none-eabi/lib/thumb/v7e-m+fp/hard\libg_nano.a(libc_a-makebuf.o)
                                                  C:/QMK_MSYS/mingw64/bin/../lib/gcc/arm-none-eabi/13.3.0/../../../../arm-none-eabi/lib/thumb/v7e-m+fp/hard\libg_nano.a(libc_a-wsetup.o)
__sprint_r                                        C:/QMK_MSYS/mingw64/bin/../lib/gcc/arm-none-eabi/13.3.0/../../../../arm-none-eabi/lib/thumb/v7e-m+fp/hard\libg_nano.a(libc_a-nano-vfprintf.o)
__sread                                           C:/QMK_MSYS/mingw64/bin/../lib/gcc/arm-none-eabi/13.3.0/../../../../arm-none-eabi/lib/thumb/v7e-m+fp/hard\libg_nano.a(libc_a-stdio.o)
                                                  C:/QMK_MSYS/mingw64/bin/../lib/gcc/arm-none-eabi/13.3.0/../../../../arm-none-eabi/lib/thumb/v7e-m+fp/hard\libg_nano.a(libc_a-findfp.o)
__sseek                                           C:/QMK_MSYS/mingw64/bin/../lib/gcc/arm-none-eabi/13.3.0/../../../../arm-none-eabi/lib/thumb/v7e-m+fp/hard\libg_nano.a(libc_a-stdio.o)
                                                  C:/QMK_MSYS/mingw64/bin/../lib/gcc/arm-none-eabi/13.3.0/../../../../arm-none-eabi/lib/thumb/v7e-m+fp/hard\libg_nano.a(libc_a-findfp.o)
__stdio_exit_handler                              C:/QMK_MSYS/mingw64/bin/../lib/gcc/arm-none-eabi/13.3.0/../../../../arm-none-eabi/lib/thumb/v7e-m+fp/hard\libg_nano.a(libc_a-findfp.o)
__swbuf                                           C:/QMK_MSYS/mingw64/bin/../lib/gcc/arm-none-eabi/13.3.0/../../../../arm-none-eabi/lib/thumb/v7e-m+fp/hard\libg_nano.a(libc_a-wbuf.o)
__swbuf_r                                         C:/QMK_MSYS/mingw64/bin/../lib/gcc/arm-none-eabi/13.3.0/../../../../arm-none-eabi/lib/thumb/v7e-m+fp/hard\libg_nano.a(libc_a-wbuf.o)
                                                  C:/QMK_MSYS/mingw64/bin/../lib/gcc/arm-none-eabi/13.3.0/../../../../arm-none-eabi/lib/thumb/v7e-m+fp/hard\libg_nano.a(libc_a-nano-vfprintf.o)
__swhatbuf_r                                      C:/QMK_MSYS/mingw64/bin/../lib/gcc/arm-none-eabi/13.3.0/../../../../arm-none-eabi/lib/thumb/v7e-m+fp/hard\libg_nano.a(libc_a-makebuf.o)
__swrite                                          C:/QMK_MSYS/mingw64/bin/../lib/gcc/arm-none-eabi/13.3.0/../../../../arm-none-eabi/lib/thumb/v7e-m+fp/hard\libg_nano.a(libc_a-stdio.o)
                                                  C:/QMK_MSYS/mingw64/bin/../lib/gcc/arm-none-eabi/13.3.0/../../../../arm-none-eabi/lib/thumb/v7e-m+fp/hard\libg_nano.a(libc_a-findfp.o)
__swsetup_r                                       C:/QMK_MSYS/mingw64/bin/../lib/gcc/arm-none-eabi/13.3.0/../../../../arm-none-eabi/lib/thumb/v7e-m+fp/hard\libg_nano.a(libc_a-wsetup.o)
                                                  C:/QMK_MSYS/mingw64/bin/../lib/gcc/arm-none-eabi/13.3.0/../../../../arm-none-eabi/lib/thumb/v7e-m+fp/hard\libg_nano.a(libc_a-wbuf.o)
                                                  C:/QMK_MSYS/mingw64/bin/../lib/gcc/arm-none-eabi/13.3.0/../../../../arm-none-eabi/lib/thumb/v7e-m+fp/hard\libg_nano.a(libc_a-fvwrite.o)
                                                  C:/QMK_MSYS/mingw64/bin/../lib/gcc/arm-none-eabi/13.3.0/../../../../arm-none-eabi/lib/thumb/v7e-m+fp/hard\libg_nano.a(libc_a-nano-vfprintf.o)
__textdata_base__                                 .build/obj_vessel_base/./lib/chibios/os/common/startup/ARMCMx/compilers/GCC/crt0_v7m.o
__thd_object_init                                 .build/obj_vessel_base/lib/chibios/os/rt/src/chthreads.o (symbol from plugin)
                                                  .build/obj_vessel_base/lib/chibios/os/rt/src/chinstances.o (symbol from plugin)
__udivmoddi4                                      C:/QMK_MSYS/mingw64/bin/../lib/gcc/arm-none-eabi/13.3.0/thumb/v7e-m+fp/hard\libgcc.a(_udivmoddi4.o)
                                                  C:/QMK_MSYS/mingw64/bin/../lib/gcc/arm-none-eabi/13.3.0/thumb/v7e-m+fp/hard\libgcc.a(_aeabi_uldivmod.o)
                                                  C:/QMK_MSYS/mingw64/bin/../lib/gcc/arm-none-eabi/13.3.0/thumb/v7e-m+fp/hard\libgcc.a(_aeabi_ldivmod.o)
_close_r                                          C:\QMK_MSYS\tmp\ccs2W3Vd.ltrans0.ltrans.o
                                                  .build/obj_vessel_base/lib/chibios/os/various/syscalls.o (symbol from plugin)
                                                  C:/QMK_MSYS/mingw64/bin/../lib/gcc/arm-none-eabi/13.3.0/../../../../arm-none-eabi/lib/thumb/v7e-m+fp/hard\libg_nano.a(libc_a-stdio.o)
_crt0_entry                                       .build/obj_vessel_base/./lib/chibios/os/common/startup/ARMCMx/compilers/GCC/crt0_v7m.o
                                                  .build/obj_vessel_base/./lib/chibios/os/common/startup/ARMCMx/compilers/GCC/vectors.o
_ctype_                                           C:/QMK_MSYS/mingw64/bin/../lib/gcc/arm-none-eabi/13.3.0/../../../../arm-none-eabi/lib/thumb/v7e-m+fp/hard\libg_nano.a(libc_a-ctype_.o)
                                                  .build/obj_vessel_base/lib/chibios/os/hal/lib/streams/chscanf.o (symbol from plugin)
                                                  .build/obj_vessel_base/quantum/send_string/send_string.o (symbol from plugin)
_exit                                             C:\QMK_MSYS\tmp\ccs2W3Vd.ltrans0.ltrans.o
                                                  .build/obj_vessel_base/lib/chibios/os/various/syscalls.o (symbol from plugin)
                                                  C:/QMK_MSYS/mingw64/bin/../lib/gcc/arm-none-eabi/13.3.0/../../../../arm-none-eabi/lib/thumb/v7e-m+fp/hard\libg_nano.a(libc_a-abort.o)
_fflush_r                                         C:/QMK_MSYS/mingw64/bin/../lib/gcc/arm-none-eabi/13.3.0/../../../../arm-none-eabi/lib/thumb/v7e-m+fp/hard\libg_nano.a(libc_a-fflush.o)
                                                  C:/QMK_MSYS/mingw64/bin/../lib/gcc/arm-none-eabi/13.3.0/../../../../arm-none-eabi/lib/thumb/v7e-m+fp/hard\libg_nano.a(libc_a-wbuf.o)
                                                  C:/QMK_MSYS/mingw64/bin/../lib/gcc/arm-none-eabi/13.3.0/../../../../arm-none-eabi/lib/thumb/v7e-m+fp/hard\libg_nano.a(libc_a-fvwrite.o)
                                                  C:/QMK_MSYS/mingw64/bin/../lib/gcc/arm-none-eabi/13.3.0/../../../../arm-none-eabi/lib/thumb/v7e-m+fp/hard\libg_nano.a(libc_a-findfp.o)
_fini                                             C:\QMK_MSYS\tmp\ccs2W3Vd.ltrans0.ltrans.o
                                                  .build/obj_vessel_base/platforms/chibios/syscall-fallbacks.o (symbol from plugin)
_fiprintf_r                                       C:/QMK_MSYS/mingw64/bin/../lib/gcc/arm-none-eabi/13.3.0/../../../../arm-none-eabi/lib/thumb/v7e-m+fp/hard\libg_nano.a(libc_a-fprintf.o)
_fprintf_r                                        C:/QMK_MSYS/mingw64/bin/../lib/gcc/arm-none-eabi/13.3.0/../../../../arm-none-eabi/lib/thumb/v7e-m+fp/hard\libg_nano.a(libc_a-fprintf.o)
_free_r                                           C:/QMK_MSYS/mingw64/bin/../lib/gcc/arm-none-eabi/13.3.0/../../../../arm-none-eabi/lib/thumb/v7e-m+fp/hard\libg_nano.a(libc_a-freer.o)
                                                  C:/QMK_MSYS/mingw64/bin/../lib/gcc/arm-none-eabi/13.3.0/../../../../arm-none-eabi/lib/thumb/v7e-m+fp/hard\libg_nano.a(libc_a-reent.o)
                                                  C:/QMK_MSYS/mingw64/bin/../lib/gcc/arm-none-eabi/13.3.0/../../../../arm-none-eabi/lib/thumb/v7e-m+fp/hard\libg_nano.a(libc_a-fflush.o)
                                                  C:/QMK_MSYS/mingw64/bin/../lib/gcc/arm-none-eabi/13.3.0/../../../../arm-none-eabi/lib/thumb/v7e-m+fp/hard\libg_nano.a(libc_a-reallocr.o)
                                                  C:/QMK_MSYS/mingw64/bin/../lib/gcc/arm-none-eabi/13.3.0/../../../../arm-none-eabi/lib/thumb/v7e-m+fp/hard\libg_nano.a(libc_a-wsetup.o)
                                                  C:/QMK_MSYS/mingw64/bin/../lib/gcc/arm-none-eabi/13.3.0/../../../../arm-none-eabi/lib/thumb/v7e-m+fp/hard\libg_nano.a(libc_a-fvwrite.o)
                                                  C:/QMK_MSYS/mingw64/bin/../lib/gcc/arm-none-eabi/13.3.0/../../../../arm-none-eabi/lib/thumb/v7e-m+fp/hard\libg_nano.a(libc_a-malloc.o)
_fstat_r                                          C:\QMK_MSYS\tmp\ccs2W3Vd.ltrans0.ltrans.o
                                                  .build/obj_vessel_base/lib/chibios/os/various/syscalls.o (symbol from plugin)
                                                  C:/QMK_MSYS/mingw64/bin/../lib/gcc/arm-none-eabi/13.3.0/../../../../arm-none-eabi/lib/thumb/v7e-m+fp/hard\libg_nano.a(libc_a-makebuf.o)
_fwalk_sglue                                      C:/QMK_MSYS/mingw64/bin/../lib/gcc/arm-none-eabi/13.3.0/../../../../arm-none-eabi/lib/thumb/v7e-m+fp/hard\libg_nano.a(libc_a-fwalk.o)
                                                  C:/QMK_MSYS/mingw64/bin/../lib/gcc/arm-none-eabi/13.3.0/../../../../arm-none-eabi/lib/thumb/v7e-m+fp/hard\libg_nano.a(libc_a-fflush.o)
                                                  C:/QMK_MSYS/mingw64/bin/../lib/gcc/arm-none-eabi/13.3.0/../../../../arm-none-eabi/lib/thumb/v7e-m+fp/hard\libg_nano.a(libc_a-findfp.o)
_getpid                                           C:\QMK_MSYS\tmp\ccs2W3Vd.ltrans0.ltrans.o
                                                  .build/obj_vessel_base/lib/chibios/os/various/syscalls.o (symbol from plugin)
                                                  C:/QMK_MSYS/mingw64/bin/../lib/gcc/arm-none-eabi/13.3.0/../../../../arm-none-eabi/lib/thumb/v7e-m+fp/hard\libg_nano.a(libc_a-signalr.o)
_getpid_r                                         C:/QMK_MSYS/mingw64/bin/../lib/gcc/arm-none-eabi/13.3.0/../../../../arm-none-eabi/lib/thumb/v7e-m+fp/hard\libg_nano.a(libc_a-signalr.o)
                                                  C:/QMK_MSYS/mingw64/bin/../lib/gcc/arm-none-eabi/13.3.0/../../../../arm-none-eabi/lib/thumb/v7e-m+fp/hard\libg_nano.a(libc_a-signal.o)
_gettimeofday_r                                   C:\QMK_MSYS\tmp\ccs2W3Vd.ltrans0.ltrans.o
                                                  .build/obj_vessel_base/platforms/chibios/syscall-fallbacks.o (symbol from plugin)
_impure_data                                      C:/QMK_MSYS/mingw64/bin/../lib/gcc/arm-none-eabi/13.3.0/../../../../arm-none-eabi/lib/thumb/v7e-m+fp/hard\libg_nano.a(libc_a-impure.o)
                                                  C:/QMK_MSYS/mingw64/bin/../lib/gcc/arm-none-eabi/13.3.0/../../../../arm-none-eabi/lib/thumb/v7e-m+fp/hard\libg_nano.a(libc_a-fflush.o)
                                                  C:/QMK_MSYS/mingw64/bin/../lib/gcc/arm-none-eabi/13.3.0/../../../../arm-none-eabi/lib/thumb/v7e-m+fp/hard\libg_nano.a(libc_a-findfp.o)
_impure_ptr                                       C:/QMK_MSYS/mingw64/bin/../lib/gcc/arm-none-eabi/13.3.0/../../../../arm-none-eabi/lib/thumb/v7e-m+fp/hard\libg_nano.a(libc_a-impure.o)
                                                  C:/QMK_MSYS/mingw64/bin/../lib/gcc/arm-none-eabi/13.3.0/../../../../arm-none-eabi/lib/thumb/v7e-m+fp/hard\libg_nano.a(libc_a-reent.o)
                                                  C:/QMK_MSYS/mingw64/bin/../lib/gcc/arm-none-eabi/13.3.0/../../../../arm-none-eabi/lib/thumb/v7e-m+fp/hard\libg_nano.a(libc_a-fflush.o)
                                                  C:/QMK_MSYS/mingw64/bin/../lib/gcc/arm-none-eabi/13.3.0/../../../../arm-none-eabi/lib/thumb/v7e-m+fp/hard\libg_nano.a(libc_a-signal.o)
                                                  C:/QMK_MSYS/mingw64/bin/../lib/gcc/arm-none-eabi/13.3.0/../../../../arm-none-eabi/lib/thumb/v7e-m+fp/hard\libg_nano.a(libc_a-wsetup.o)
                                                  C:/QMK_MSYS/mingw64/bin/../lib/gcc/arm-none-eabi/13.3.0/../../../../arm-none-eabi/lib/thumb/v7e-m+fp/hard\libg_nano.a(libc_a-wbuf.o)
                                                  C:/QMK_MSYS/mingw64/bin/../lib/gcc/arm-none-eabi/13.3.0/../../../../arm-none-eabi/lib/thumb/v7e-m+fp/hard\libg_nano.a(libc_a-nano-vfprintf.o)
                                                  C:/QMK_MSYS/mingw64/bin/../lib/gcc/arm-none-eabi/13.3.0/../../../../arm-none-eabi/lib/thumb/v7e-m+fp/hard\libg_nano.a(libc_a-fprintf.o)
                                                  C:/QMK_MSYS/mingw64/bin/../lib/gcc/arm-none-eabi/13.3.0/../../../../arm-none-eabi/lib/thumb/v7e-m+fp/hard\libg_nano.a(libc_a-malloc.o)
                                                  C:/QMK_MSYS/mingw64/bin/../lib/gcc/arm-none-eabi/13.3.0/../../../../arm-none-eabi/lib/thumb/v7e-m+fp/hard\libg_nano.a(libc_a-assert.o)
                                                  C:/QMK_MSYS/mingw64/bin/../lib/gcc/arm-none-eabi/13.3.0/../../../../arm-none-eabi/lib/thumb/v7e-m+fp/hard\libg_nano.a(libc_a-errno.o)
                                                  C:/QMK_MSYS/mingw64/bin/../lib/gcc/arm-none-eabi/13.3.0/../../../../arm-none-eabi/lib/thumb/v7e-m+fp/hard\libg_nano.a(libc_a-rand.o)
_init_signal                                      C:/QMK_MSYS/mingw64/bin/../lib/gcc/arm-none-eabi/13.3.0/../../../../arm-none-eabi/lib/thumb/v7e-m+fp/hard\libg_nano.a(libc_a-signal.o)
_init_signal_r                                    C:/QMK_MSYS/mingw64/bin/../lib/gcc/arm-none-eabi/13.3.0/../../../../arm-none-eabi/lib/thumb/v7e-m+fp/hard\libg_nano.a(libc_a-signal.o)
_isatty_r                                         C:\QMK_MSYS\tmp\ccs2W3Vd.ltrans0.ltrans.o
                                                  .build/obj_vessel_base/lib/chibios/os/various/syscalls.o (symbol from plugin)
                                                  C:/QMK_MSYS/mingw64/bin/../lib/gcc/arm-none-eabi/13.3.0/../../../../arm-none-eabi/lib/thumb/v7e-m+fp/hard\libg_nano.a(libc_a-makebuf.o)
_kill                                             C:\QMK_MSYS\tmp\ccs2W3Vd.ltrans0.ltrans.o
                                                  .build/obj_vessel_base/lib/chibios/os/various/syscalls.o (symbol from plugin)
                                                  C:/QMK_MSYS/mingw64/bin/../lib/gcc/arm-none-eabi/13.3.0/../../../../arm-none-eabi/lib/thumb/v7e-m+fp/hard\libg_nano.a(libc_a-signalr.o)
_kill_r                                           C:/QMK_MSYS/mingw64/bin/../lib/gcc/arm-none-eabi/13.3.0/../../../../arm-none-eabi/lib/thumb/v7e-m+fp/hard\libg_nano.a(libc_a-signalr.o)
                                                  C:/QMK_MSYS/mingw64/bin/../lib/gcc/arm-none-eabi/13.3.0/../../../../arm-none-eabi/lib/thumb/v7e-m+fp/hard\libg_nano.a(libc_a-signal.o)
_link_r                                           C:\QMK_MSYS\tmp\ccs2W3Vd.ltrans0.ltrans.o
                                                  .build/obj_vessel_base/platforms/chibios/syscall-fallbacks.o (symbol from plugin)
_lseek_r                                          C:\QMK_MSYS\tmp\ccs2W3Vd.ltrans0.ltrans.o
                                                  .build/obj_vessel_base/lib/chibios/os/various/syscalls.o (symbol from plugin)
                                                  C:/QMK_MSYS/mingw64/bin/../lib/gcc/arm-none-eabi/13.3.0/../../../../arm-none-eabi/lib/thumb/v7e-m+fp/hard\libg_nano.a(libc_a-stdio.o)
_malloc_r                                         C:/QMK_MSYS/mingw64/bin/../lib/gcc/arm-none-eabi/13.3.0/../../../../arm-none-eabi/lib/thumb/v7e-m+fp/hard\libg_nano.a(libc_a-mallocr.o)
                                                  C:/QMK_MSYS/mingw64/bin/../lib/gcc/arm-none-eabi/13.3.0/../../../../arm-none-eabi/lib/thumb/v7e-m+fp/hard\libg_nano.a(libc_a-makebuf.o)
                                                  C:/QMK_MSYS/mingw64/bin/../lib/gcc/arm-none-eabi/13.3.0/../../../../arm-none-eabi/lib/thumb/v7e-m+fp/hard\libg_nano.a(libc_a-reallocr.o)
                                                  C:/QMK_MSYS/mingw64/bin/../lib/gcc/arm-none-eabi/13.3.0/../../../../arm-none-eabi/lib/thumb/v7e-m+fp/hard\libg_nano.a(libc_a-signal.o)
                                                  C:/QMK_MSYS/mingw64/bin/../lib/gcc/arm-none-eabi/13.3.0/../../../../arm-none-eabi/lib/thumb/v7e-m+fp/hard\libg_nano.a(libc_a-fvwrite.o)
                                                  C:/QMK_MSYS/mingw64/bin/../lib/gcc/arm-none-eabi/13.3.0/../../../../arm-none-eabi/lib/thumb/v7e-m+fp/hard\libg_nano.a(libc_a-findfp.o)
                                                  C:/QMK_MSYS/mingw64/bin/../lib/gcc/arm-none-eabi/13.3.0/../../../../arm-none-eabi/lib/thumb/v7e-m+fp/hard\libg_nano.a(libc_a-malloc.o)
_malloc_usable_size_r                             C:/QMK_MSYS/mingw64/bin/../lib/gcc/arm-none-eabi/13.3.0/../../../../arm-none-eabi/lib/thumb/v7e-m+fp/hard\libg_nano.a(libc_a-msizer.o)
                                                  C:/QMK_MSYS/mingw64/bin/../lib/gcc/arm-none-eabi/13.3.0/../../../../arm-none-eabi/lib/thumb/v7e-m+fp/hard\libg_nano.a(libc_a-reallocr.o)
_open_r                                           C:\QMK_MSYS\tmp\ccs2W3Vd.ltrans0.ltrans.o
                                                  .build/obj_vessel_base/lib/chibios/os/various/syscalls.o (symbol from plugin)
_pal_lld_init                                     .build/obj_vessel_base/lib/chibios/os/hal/ports/STM32/LLD/GPIOv2/hal_pal_lld.o (symbol from plugin)
                                                  .build/obj_vessel_base/lib/chibios/os/hal/src/hal.o (symbol from plugin)
_pal_lld_setgroupmode                             C:\QMK_MSYS\tmp\ccs2W3Vd.ltrans0.ltrans.o
                                                  .build/obj_vessel_base/lib/chibios/os/hal/ports/STM32/LLD/GPIOv2/hal_pal_lld.o (symbol from plugin)
                                                  .build/obj_vessel_base/lib/chibios/os/hal/src/hal_pal.o (symbol from plugin)
                                                  .build/obj_vessel_base/i2c_master.a(i2c_master.o)
                                                  .build/obj_vessel_base/ws2812_bitbang.o (symbol from plugin)
                                                  .build/obj_vessel_base/encoder_quadrature.o (symbol from plugin)
                                                  .build/obj_vessel_base/quantum/matrix.o (symbol from plugin)
                                                  .build/obj_vessel_base/keyboards/vessel/vessel.o (symbol from plugin)
_printf_common                                    C:/QMK_MSYS/mingw64/bin/../lib/gcc/arm-none-eabi/13.3.0/../../../../arm-none-eabi/lib/thumb/v7e-m+fp/hard\libg_nano.a(libc_a-nano-vfprintf_i.o)
_printf_float                                     C:/QMK_MSYS/mingw64/bin/../lib/gcc/arm-none-eabi/13.3.0/../../../../arm-none-eabi/lib/thumb/v7e-m+fp/hard\libg_nano.a(libc_a-nano-vfprintf.o)
_printf_i                                         C:/QMK_MSYS/mingw64/bin/../lib/gcc/arm-none-eabi/13.3.0/../../../../arm-none-eabi/lib/thumb/v7e-m+fp/hard\libg_nano.a(libc_a-nano-vfprintf_i.o)
                                                  C:/QMK_MSYS/mingw64/bin/../lib/gcc/arm-none-eabi/13.3.0/../../../../arm-none-eabi/lib/thumb/v7e-m+fp/hard\libg_nano.a(libc_a-nano-vfprintf.o)
_raise_r                                          C:/QMK_MSYS/mingw64/bin/../lib/gcc/arm-none-eabi/13.3.0/../../../../arm-none-eabi/lib/thumb/v7e-m+fp/hard\libg_nano.a(libc_a-signal.o)
_read_r                                           C:\QMK_MSYS\tmp\ccs2W3Vd.ltrans0.ltrans.o
                                                  .build/obj_vessel_base/lib/chibios/os/various/syscalls.o (symbol from plugin)
                                                  C:/QMK_MSYS/mingw64/bin/../lib/gcc/arm-none-eabi/13.3.0/../../../../arm-none-eabi/lib/thumb/v7e-m+fp/hard\libg_nano.a(libc_a-stdio.o)
_realloc_r                                        C:/QMK_MSYS/mingw64/bin/../lib/gcc/arm-none-eabi/13.3.0/../../../../arm-none-eabi/lib/thumb/v7e-m+fp/hard\libg_nano.a(libc_a-reallocr.o)
                                                  C:/QMK_MSYS/mingw64/bin/../lib/gcc/arm-none-eabi/13.3.0/../../../../arm-none-eabi/lib/thumb/v7e-m+fp/hard\libg_nano.a(libc_a-fvwrite.o)
_reclaim_reent                                    C:/QMK_MSYS/mingw64/bin/../lib/gcc/arm-none-eabi/13.3.0/../../../../arm-none-eabi/lib/thumb/v7e-m+fp/hard\libg_nano.a(libc_a-reent.o)
_sbrk_r                                           C:\QMK_MSYS\tmp\ccs2W3Vd.ltrans0.ltrans.o
                                                  .build/obj_vessel_base/lib/chibios/os/various/syscalls.o (symbol from plugin)
                                                  C:/QMK_MSYS/mingw64/bin/../lib/gcc/arm-none-eabi/13.3.0/../../../../arm-none-eabi/lib/thumb/v7e-m+fp/hard\libg_nano.a(libc_a-mallocr.o)
_signal_r                                         C:/QMK_MSYS/mingw64/bin/../lib/gcc/arm-none-eabi/13.3.0/../../../../arm-none-eabi/lib/thumb/v7e-m+fp/hard\libg_nano.a(libc_a-signal.o)
_stm32_dma_streams                                .build/obj_vessel_base/lib/chibios/os/hal/ports/STM32/LLD/DMAv2/stm32_dma.o (symbol from plugin)
_times_r                                          C:\QMK_MSYS\tmp\ccs2W3Vd.ltrans0.ltrans.o
                                                  .build/obj_vessel_base/platforms/chibios/syscall-fallbacks.o (symbol from plugin)
_unhandled_exception                              .build/obj_vessel_base/./lib/chibios/os/common/startup/ARMCMx/compilers/GCC/vectors.o
_unlink_r                                         C:\QMK_MSYS\tmp\ccs2W3Vd.ltrans0.ltrans.o
                                                  .build/obj_vessel_base/platforms/chibios/syscall-fallbacks.o (symbol from plugin)
_usb_ep0in                                        .build/obj_vessel_base/lib/chibios/os/hal/src/hal_usb.o (symbol from plugin)
                                                  .build/obj_vessel_base/lib/chibios/os/hal/ports/STM32/LLD/OTGv1/hal_usb_lld.o (symbol from plugin)
_usb_ep0out                                       .build/obj_vessel_base/lib/chibios/os/hal/src/hal_usb.o (symbol from plugin)
                                                  .build/obj_vessel_base/lib/chibios/os/hal/ports/STM32/LLD/OTGv1/hal_usb_lld.o (symbol from plugin)
_usb_ep0setup                                     .build/obj_vessel_base/lib/chibios/os/hal/src/hal_usb.o (symbol from plugin)
                                                  .build/obj_vessel_base/lib/chibios/os/hal/ports/STM32/LLD/OTGv1/hal_usb_lld.o (symbol from plugin)
_usb_reset                                        .build/obj_vessel_base/lib/chibios/os/hal/src/hal_usb.o (symbol from plugin)
                                                  .build/obj_vessel_base/lib/chibios/os/hal/ports/STM32/LLD/OTGv1/hal_usb_lld.o (symbol from plugin)
_usb_suspend                                      .build/obj_vessel_base/lib/chibios/os/hal/src/hal_usb.o (symbol from plugin)
                                                  .build/obj_vessel_base/lib/chibios/os/hal/ports/STM32/LLD/OTGv1/hal_usb_lld.o (symbol from plugin)
_usb_wakeup                                       .build/obj_vessel_base/lib/chibios/os/hal/src/hal_usb.o (symbol from plugin)
                                                  .build/obj_vessel_base/lib/chibios/os/hal/ports/STM32/LLD/OTGv1/hal_usb_lld.o (symbol from plugin)
_vectors                                          .build/obj_vessel_base/./lib/chibios/os/common/startup/ARMCMx/compilers/GCC/vectors.o
                                                  .build/obj_vessel_base/./lib/chibios/os/common/startup/ARMCMx/compilers/GCC/crt0_v7m.o
_vfiprintf_r                                      C:/QMK_MSYS/mingw64/bin/../lib/gcc/arm-none-eabi/13.3.0/../../../../arm-none-eabi/lib/thumb/v7e-m+fp/hard\libg_nano.a(libc_a-nano-vfprintf.o)
_vfprintf_r                                       C:/QMK_MSYS/mingw64/bin/../lib/gcc/arm-none-eabi/13.3.0/../../../../arm-none-eabi/lib/thumb/v7e-m+fp/hard\libg_nano.a(libc_a-nano-vfprintf.o)
                                                  C:/QMK_MSYS/mingw64/bin/../lib/gcc/arm-none-eabi/13.3.0/../../../../arm-none-eabi/lib/thumb/v7e-m+fp/hard\libg_nano.a(libc_a-fprintf.o)
_write_r                                          C:\QMK_MSYS\tmp\ccs2W3Vd.ltrans0.ltrans.o
                                                  .build/obj_vessel_base/lib/chibios/os/various/syscalls.o (symbol from plugin)
                                                  C:/QMK_MSYS/mingw64/bin/../lib/gcc/arm-none-eabi/13.3.0/../../../../arm-none-eabi/lib/thumb/v7e-m+fp/hard\libg_nano.a(libc_a-stdio.o)
abort                                             C:/QMK_MSYS/mingw64/bin/../lib/gcc/arm-none-eabi/13.3.0/../../../../arm-none-eabi/lib/thumb/v7e-m+fp/hard\libg_nano.a(libc_a-abort.o)
                                                  C:/QMK_MSYS/mingw64/bin/../lib/gcc/arm-none-eabi/13.3.0/../../../../arm-none-eabi/lib/thumb/v7e-m+fp/hard\libg_nano.a(libc_a-assert.o)
action.c.e182ecb1                                 C:\QMK_MSYS\tmp\ccgoXcxn.debug.temp.o
                                                  C:\QMK_MSYS\tmp\ccs2W3Vd.ltrans0.ltrans.o
action_exec                                       .build/obj_vessel_base/quantum/action.o (symbol from plugin)
                                                  .build/obj_vessel_base/quantum/encoder.o (symbol from plugin)
                                                  .build/obj_vessel_base/quantum/keyboard.o (symbol from plugin)
action_for_key                                    .build/obj_vessel_base/quantum/keymap_common.o (symbol from plugin)
                                                  .build/obj_vessel_base/quantum/action_layer.o (symbol from plugin)
action_for_keycode                                .build/obj_vessel_base/quantum/keymap_common.o (symbol from plugin)
action_layer.c.557eb31f                           C:\QMK_MSYS\tmp\ccsxOlSO.debug.temp.o
                                                  C:\QMK_MSYS\tmp\ccs2W3Vd.ltrans0.ltrans.o
action_tapping.c.29603b76                         C:\QMK_MSYS\tmp\cciViwbg.debug.temp.o
                                                  C:\QMK_MSYS\tmp\ccs2W3Vd.ltrans0.ltrans.o
action_tapping_process                            .build/obj_vessel_base/quantum/action_tapping.o (symbol from plugin)
                                                  .build/obj_vessel_base/quantum/action.o (symbol from plugin)
action_util.c.7f79eb32                            C:\QMK_MSYS\tmp\cca0yIIH.debug.temp.o
                                                  C:\QMK_MSYS\tmp\ccs2W3Vd.ltrans0.ltrans.o
add_key                                           .build/obj_vessel_base/quantum/action_util.o (symbol from plugin)
add_key_bit                                       .build/obj_vessel_base/protocol/report.o (symbol from plugin)
add_key_byte                                      .build/obj_vessel_base/protocol/report.o (symbol from plugin)
add_key_to_report                                 .build/obj_vessel_base/protocol/report.o (symbol from plugin)
                                                  .build/obj_vessel_base/quantum/process_keycode/process_grave_esc.o (symbol from plugin)
                                                  .build/obj_vessel_base/quantum/action_util.o (symbol from plugin)
                                                  .build/obj_vessel_base/quantum/action.o (symbol from plugin)
add_mods                                          .build/obj_vessel_base/quantum/action_util.o (symbol from plugin)
                                                  .build/obj_vessel_base/quantum/action.o (symbol from plugin)
add_weak_mods                                     .build/obj_vessel_base/quantum/action_util.o (symbol from plugin)
                                                  .build/obj_vessel_base/quantum/process_keycode/process_tap_dance.o (symbol from plugin)
                                                  .build/obj_vessel_base/quantum/action.o (symbol from plugin)
anim_timer                                        .build/obj_vessel_base/quantum/keymap_introspection.o (symbol from plugin)
animation_on                                      .build/obj_vessel_base/quantum/keymap_introspection.o (symbol from plugin)
ascii_to_altgr_lut                                .build/obj_vessel_base/quantum/send_string/send_string.o (symbol from plugin)
ascii_to_dead_lut                                 .build/obj_vessel_base/quantum/send_string/send_string.o (symbol from plugin)
ascii_to_keycode_lut                              .build/obj_vessel_base/quantum/send_string/send_string.o (symbol from plugin)
ascii_to_shift_lut                                .build/obj_vessel_base/quantum/send_string/send_string.o (symbol from plugin)
biton                                             .build/obj_vessel_base/quantum/bitwise.o (symbol from plugin)
                                                  .build/obj_vessel_base/protocol/report.o (symbol from plugin)
biton16                                           .build/obj_vessel_base/quantum/bitwise.o (symbol from plugin)
biton32                                           .build/obj_vessel_base/quantum/bitwise.o (symbol from plugin)
bitpop                                            .build/obj_vessel_base/quantum/bitwise.o (symbol from plugin)
                                                  .build/obj_vessel_base/quantum/action_util.o (symbol from plugin)
bitpop16                                          .build/obj_vessel_base/quantum/bitwise.o (symbol from plugin)
bitpop32                                          .build/obj_vessel_base/quantum/bitwise.o (symbol from plugin)
bitrev                                            .build/obj_vessel_base/quantum/bitwise.o (symbol from plugin)
bitrev16                                          .build/obj_vessel_base/quantum/bitwise.o (symbol from plugin)
bitrev32                                          .build/obj_vessel_base/quantum/bitwise.o (symbol from plugin)
bitwise.c.a4659c31                                C:\QMK_MSYS\tmp\ccWNKcdv.debug.temp.o
board.c.bf9714c4                                  C:\QMK_MSYS\tmp\ccurH6dg.debug.temp.o
                                                  C:\QMK_MSYS\tmp\ccs2W3Vd.ltrans0.ltrans.o
boardInit                                         .build/obj_vessel_base/protocol/chibios/chibios.o (symbol from plugin)
                                                  .build/obj_vessel_base/lib/chibios/os/hal/src/hal.o (symbol from plugin)
board_init                                        .build/obj_vessel_base/protocol/chibios/chibios.o (symbol from plugin)
bootloader_jump                                   .build/obj_vessel_base/platforms/chibios/bootloaders/stm32_dfu.o (symbol from plugin)
                                                  .build/obj_vessel_base/quantum/bootmagic/bootmagic.o (symbol from plugin)
                                                  .build/obj_vessel_base/quantum/quantum.o (symbol from plugin)
bootloader_marker_active                          .build/obj_vessel_base/platforms/chibios/bootloaders/stm32_dfu.o (symbol from plugin)
bootloader_marker_disable                         .build/obj_vessel_base/platforms/chibios/bootloaders/stm32_dfu.o (symbol from plugin)
bootloader_marker_enable                          .build/obj_vessel_base/platforms/chibios/bootloaders/stm32_dfu.o (symbol from plugin)
bootmagic                                         .build/obj_vessel_base/quantum/bootmagic/bootmagic.o (symbol from plugin)
                                                  .build/obj_vessel_base/quantum/keyboard.o (symbol from plugin)
bootmagic.c.7eea1557                              C:\QMK_MSYS\tmp\ccyWH1w8.debug.temp.o
                                                  C:\QMK_MSYS\tmp\ccs2W3Vd.ltrans0.ltrans.o
bootmagic_reset_eeprom                            .build/obj_vessel_base/quantum/bootmagic/bootmagic.o (symbol from plugin)
bootmagic_scan                                    .build/obj_vessel_base/quantum/bootmagic/bootmagic.o (symbol from plugin)
bootmagic_should_reset                            .build/obj_vessel_base/quantum/bootmagic/bootmagic.o (symbol from plugin)
bsaObjectInit                                     .build/obj_vessel_base/lib/chibios/os/hal/lib/streams/bufstreams.o (symbol from plugin)
bufstreams.c.95fcb116                             C:\QMK_MSYS\tmp\ccgLUr8f.debug.temp.o
ch0                                               .build/obj_vessel_base/lib/chibios/os/rt/src/chsys.o (symbol from plugin)
                                                  .build/obj_vessel_base/lib/chibios/os/rt/src/chevents.o (symbol from plugin)
                                                  .build/obj_vessel_base/lib/chibios/os/rt/src/chmtx.o (symbol from plugin)
                                                  .build/obj_vessel_base/lib/chibios/os/rt/src/chsem.o (symbol from plugin)
                                                  .build/obj_vessel_base/lib/chibios/os/rt/src/chthreads.o (symbol from plugin)
                                                  .build/obj_vessel_base/lib/chibios/os/rt/src/chschd.o (symbol from plugin)
                                                  .build/obj_vessel_base/lib/chibios/os/rt/src/chvt.o (symbol from plugin)
                                                  .build/obj_vessel_base/lib/chibios/os/rt/src/chrfcu.o (symbol from plugin)
chCoreAllocFromBase                               .build/obj_vessel_base/lib/chibios/os/oslib/src/chmemcore.o (symbol from plugin)
                                                  .build/obj_vessel_base/lib/chibios/os/various/syscalls.o (symbol from plugin)
chCoreAllocFromBaseI                              .build/obj_vessel_base/lib/chibios/os/oslib/src/chmemcore.o (symbol from plugin)
chCoreAllocFromTop                                .build/obj_vessel_base/lib/chibios/os/oslib/src/chmemcore.o (symbol from plugin)
chCoreAllocFromTopI                               .build/obj_vessel_base/lib/chibios/os/oslib/src/chmemcore.o (symbol from plugin)
chCoreGetStatusX                                  .build/obj_vessel_base/lib/chibios/os/oslib/src/chmemcore.o (symbol from plugin)
chEvtAddEvents                                    .build/obj_vessel_base/lib/chibios/os/rt/src/chevents.o (symbol from plugin)
chEvtBroadcastFlags                               .build/obj_vessel_base/lib/chibios/os/rt/src/chevents.o (symbol from plugin)
chEvtBroadcastFlagsI                              .build/obj_vessel_base/lib/chibios/os/rt/src/chevents.o (symbol from plugin)
chEvtDispatch                                     .build/obj_vessel_base/lib/chibios/os/rt/src/chevents.o (symbol from plugin)
chEvtGetAndClearEvents                            .build/obj_vessel_base/lib/chibios/os/rt/src/chevents.o (symbol from plugin)
chEvtGetAndClearEventsI                           .build/obj_vessel_base/lib/chibios/os/rt/src/chevents.o (symbol from plugin)
chEvtGetAndClearFlags                             .build/obj_vessel_base/lib/chibios/os/rt/src/chevents.o (symbol from plugin)
chEvtGetAndClearFlagsI                            .build/obj_vessel_base/lib/chibios/os/rt/src/chevents.o (symbol from plugin)
chEvtRegisterMaskWithFlags                        .build/obj_vessel_base/lib/chibios/os/rt/src/chevents.o (symbol from plugin)
chEvtRegisterMaskWithFlagsI                       .build/obj_vessel_base/lib/chibios/os/rt/src/chevents.o (symbol from plugin)
chEvtSignal                                       .build/obj_vessel_base/lib/chibios/os/rt/src/chevents.o (symbol from plugin)
chEvtSignalI                                      .build/obj_vessel_base/lib/chibios/os/rt/src/chevents.o (symbol from plugin)
chEvtUnregister                                   .build/obj_vessel_base/lib/chibios/os/rt/src/chevents.o (symbol from plugin)
chEvtWaitAll                                      .build/obj_vessel_base/lib/chibios/os/rt/src/chevents.o (symbol from plugin)
chEvtWaitAllTimeout                               .build/obj_vessel_base/lib/chibios/os/rt/src/chevents.o (symbol from plugin)
chEvtWaitAny                                      .build/obj_vessel_base/lib/chibios/os/rt/src/chevents.o (symbol from plugin)
chEvtWaitAnyTimeout                               .build/obj_vessel_base/lib/chibios/os/rt/src/chevents.o (symbol from plugin)
chEvtWaitOne                                      .build/obj_vessel_base/lib/chibios/os/rt/src/chevents.o (symbol from plugin)
chEvtWaitOneTimeout                               .build/obj_vessel_base/lib/chibios/os/rt/src/chevents.o (symbol from plugin)
chInstanceObjectInit                              .build/obj_vessel_base/lib/chibios/os/rt/src/chinstances.o (symbol from plugin)
                                                  .build/obj_vessel_base/lib/chibios/os/rt/src/chsys.o (symbol from plugin)
chMtxLock                                         .build/obj_vessel_base/lib/chibios/os/rt/src/chmtx.o (symbol from plugin)
                                                  .build/obj_vessel_base/lib/chibios/os/hal/src/hal_i2c.o (symbol from plugin)
chMtxLockS                                        .build/obj_vessel_base/lib/chibios/os/rt/src/chmtx.o (symbol from plugin)
chMtxObjectInit                                   .build/obj_vessel_base/lib/chibios/os/rt/src/chmtx.o (symbol from plugin)
                                                  .build/obj_vessel_base/lib/chibios/os/hal/src/hal_i2c.o (symbol from plugin)
chMtxTryLock                                      .build/obj_vessel_base/lib/chibios/os/rt/src/chmtx.o (symbol from plugin)
chMtxTryLockS                                     .build/obj_vessel_base/lib/chibios/os/rt/src/chmtx.o (symbol from plugin)
chMtxUnlock                                       .build/obj_vessel_base/lib/chibios/os/rt/src/chmtx.o (symbol from plugin)
                                                  .build/obj_vessel_base/lib/chibios/os/hal/src/hal_i2c.o (symbol from plugin)
chMtxUnlockAll                                    .build/obj_vessel_base/lib/chibios/os/rt/src/chmtx.o (symbol from plugin)
chMtxUnlockAllS                                   .build/obj_vessel_base/lib/chibios/os/rt/src/chmtx.o (symbol from plugin)
chMtxUnlockS                                      .build/obj_vessel_base/lib/chibios/os/rt/src/chmtx.o (symbol from plugin)
chRFCUCollectFaultsI                              .build/obj_vessel_base/lib/chibios/os/rt/src/chrfcu.o (symbol from plugin)
                                                  .build/obj_vessel_base/lib/chibios/os/rt/src/chvt.o (symbol from plugin)
chRFCUGetAndClearFaultsI                          .build/obj_vessel_base/lib/chibios/os/rt/src/chrfcu.o (symbol from plugin)
chSchDoPreemption                                 C:\QMK_MSYS\tmp\ccs2W3Vd.ltrans0.ltrans.o
                                                  .build/obj_vessel_base/lib/chibios/os/rt/src/chschd.o (symbol from plugin)
                                                  .build/obj_vessel_base/./lib/chibios/os/common/ports/ARMv7-M/compilers/GCC/chcoreasm.o
chSchDoYieldS                                     .build/obj_vessel_base/lib/chibios/os/rt/src/chschd.o (symbol from plugin)
                                                  .build/obj_vessel_base/lib/chibios/os/rt/src/chthreads.o (symbol from plugin)
chSchGoSleepS                                     .build/obj_vessel_base/lib/chibios/os/rt/src/chschd.o (symbol from plugin)
                                                  .build/obj_vessel_base/lib/chibios/os/rt/src/chevents.o (symbol from plugin)
                                                  .build/obj_vessel_base/lib/chibios/os/rt/src/chmtx.o (symbol from plugin)
                                                  .build/obj_vessel_base/lib/chibios/os/rt/src/chsem.o (symbol from plugin)
                                                  .build/obj_vessel_base/lib/chibios/os/rt/src/chthreads.o (symbol from plugin)
chSchGoSleepTimeoutS                              .build/obj_vessel_base/lib/chibios/os/rt/src/chschd.o (symbol from plugin)
                                                  .build/obj_vessel_base/lib/chibios/os/rt/src/chevents.o (symbol from plugin)
                                                  .build/obj_vessel_base/lib/chibios/os/rt/src/chsem.o (symbol from plugin)
                                                  .build/obj_vessel_base/lib/chibios/os/rt/src/chthreads.o (symbol from plugin)
chSchIsPreemptionRequired                         .build/obj_vessel_base/lib/chibios/os/rt/src/chschd.o (symbol from plugin)
                                                  .build/obj_vessel_base/lib/chibios/os/common/ports/ARMv7-M/chcore.o (symbol from plugin)
chSchPreemption                                   .build/obj_vessel_base/lib/chibios/os/rt/src/chschd.o (symbol from plugin)
chSchReadyI                                       .build/obj_vessel_base/lib/chibios/os/rt/src/chschd.o (symbol from plugin)
                                                  .build/obj_vessel_base/lib/chibios/os/rt/src/chevents.o (symbol from plugin)
                                                  .build/obj_vessel_base/lib/chibios/os/rt/src/chmtx.o (symbol from plugin)
                                                  .build/obj_vessel_base/lib/chibios/os/rt/src/chsem.o (symbol from plugin)
                                                  .build/obj_vessel_base/lib/chibios/os/rt/src/chthreads.o (symbol from plugin)
chSchRescheduleS                                  .build/obj_vessel_base/lib/chibios/os/rt/src/chschd.o (symbol from plugin)
                                                  .build/obj_vessel_base/lib/chibios/os/hal/src/hal_usb.o (symbol from plugin)
                                                  .build/obj_vessel_base/lib/chibios/os/rt/src/chevents.o (symbol from plugin)
                                                  .build/obj_vessel_base/lib/chibios/os/rt/src/chmtx.o (symbol from plugin)
                                                  .build/obj_vessel_base/lib/chibios/os/rt/src/chsem.o (symbol from plugin)
                                                  .build/obj_vessel_base/lib/chibios/os/rt/src/chthreads.o (symbol from plugin)
                                                  .build/obj_vessel_base/lib/chibios/os/rt/src/chsys.o (symbol from plugin)
                                                  .build/obj_vessel_base/protocol/chibios/usb_driver.o (symbol from plugin)
chSchSelectFirst                                  .build/obj_vessel_base/lib/chibios/os/rt/src/chschd.o (symbol from plugin)
chSchWakeupS                                      .build/obj_vessel_base/lib/chibios/os/rt/src/chschd.o (symbol from plugin)
                                                  .build/obj_vessel_base/lib/chibios/os/rt/src/chsem.o (symbol from plugin)
                                                  .build/obj_vessel_base/lib/chibios/os/rt/src/chthreads.o (symbol from plugin)
chSemAddCounterI                                  .build/obj_vessel_base/lib/chibios/os/rt/src/chsem.o (symbol from plugin)
chSemObjectInit                                   .build/obj_vessel_base/lib/chibios/os/rt/src/chsem.o (symbol from plugin)
chSemResetWithMessage                             .build/obj_vessel_base/lib/chibios/os/rt/src/chsem.o (symbol from plugin)
chSemResetWithMessageI                            .build/obj_vessel_base/lib/chibios/os/rt/src/chsem.o (symbol from plugin)
chSemSignal                                       .build/obj_vessel_base/lib/chibios/os/rt/src/chsem.o (symbol from plugin)
chSemSignalI                                      .build/obj_vessel_base/lib/chibios/os/rt/src/chsem.o (symbol from plugin)
chSemSignalWait                                   .build/obj_vessel_base/lib/chibios/os/rt/src/chsem.o (symbol from plugin)
chSemWait                                         .build/obj_vessel_base/lib/chibios/os/rt/src/chsem.o (symbol from plugin)
chSemWaitS                                        .build/obj_vessel_base/lib/chibios/os/rt/src/chsem.o (symbol from plugin)
chSemWaitTimeout                                  .build/obj_vessel_base/lib/chibios/os/rt/src/chsem.o (symbol from plugin)
chSemWaitTimeoutS                                 .build/obj_vessel_base/lib/chibios/os/rt/src/chsem.o (symbol from plugin)
chSysGetIdleThreadX                               .build/obj_vessel_base/lib/chibios/os/rt/src/chsys.o (symbol from plugin)
chSysGetStatusAndLockX                            .build/obj_vessel_base/lib/chibios/os/rt/src/chsys.o (symbol from plugin)
chSysHalt                                         .build/obj_vessel_base/lib/chibios/os/rt/src/chsys.o (symbol from plugin)
                                                  .build/obj_vessel_base/lib/chibios/os/various/syscalls.o (symbol from plugin)
                                                  .build/obj_vessel_base/lib/chibios/os/hal/ports/STM32/LLD/I2Cv1/hal_i2c_lld.o (symbol from plugin)
chSysInit                                         .build/obj_vessel_base/lib/chibios/os/rt/src/chsys.o (symbol from plugin)
                                                  .build/obj_vessel_base/platforms/chibios/platform.o (symbol from plugin)
chSysIntegrityCheckI                              .build/obj_vessel_base/lib/chibios/os/rt/src/chsys.o (symbol from plugin)
chSysIsCounterWithinX                             .build/obj_vessel_base/lib/chibios/os/rt/src/chsys.o (symbol from plugin)
chSysPolledDelayX                                 .build/obj_vessel_base/lib/chibios/os/rt/src/chsys.o (symbol from plugin)
                                                  .build/obj_vessel_base/lib/chibios/os/hal/ports/STM32/LLD/OTGv1/hal_usb_lld.o (symbol from plugin)
                                                  .build/obj_vessel_base/encoder_quadrature.o (symbol from plugin)
                                                  .build/obj_vessel_base/quantum/matrix_common.o (symbol from plugin)
chSysRestoreStatusX                               .build/obj_vessel_base/lib/chibios/os/rt/src/chsys.o (symbol from plugin)
chSysTimerHandlerI                                .build/obj_vessel_base/lib/chibios/os/rt/src/chsys.o (symbol from plugin)
                                                  .build/obj_vessel_base/lib/chibios/os/hal/ports/STM32/LLD/SYSTICKv1/hal_st_lld.o (symbol from plugin)
chSysWaitSystemState                              .build/obj_vessel_base/lib/chibios/os/rt/src/chsys.o (symbol from plugin)
chThdCreate                                       .build/obj_vessel_base/lib/chibios/os/rt/src/chthreads.o (symbol from plugin)
chThdCreateI                                      .build/obj_vessel_base/lib/chibios/os/rt/src/chthreads.o (symbol from plugin)
                                                  .build/obj_vessel_base/lib/chibios/os/rt/src/chinstances.o (symbol from plugin)
chThdCreateStatic                                 .build/obj_vessel_base/lib/chibios/os/rt/src/chthreads.o (symbol from plugin)
chThdCreateSuspended                              .build/obj_vessel_base/lib/chibios/os/rt/src/chthreads.o (symbol from plugin)
chThdCreateSuspendedI                             .build/obj_vessel_base/lib/chibios/os/rt/src/chthreads.o (symbol from plugin)
chThdDequeueAllI                                  .build/obj_vessel_base/lib/chibios/os/rt/src/chthreads.o (symbol from plugin)
                                                  .build/obj_vessel_base/lib/chibios/os/hal/src/hal_queues.o (symbol from plugin)
                                                  .build/obj_vessel_base/lib/chibios/os/hal/src/hal_buffers.o (symbol from plugin)
                                                  .build/obj_vessel_base/protocol/chibios/usb_driver.o (symbol from plugin)
chThdDequeueNextI                                 .build/obj_vessel_base/lib/chibios/os/rt/src/chthreads.o (symbol from plugin)
                                                  .build/obj_vessel_base/lib/chibios/os/hal/src/hal_queues.o (symbol from plugin)
                                                  .build/obj_vessel_base/lib/chibios/os/hal/src/hal_buffers.o (symbol from plugin)
chThdEnqueueTimeoutS                              .build/obj_vessel_base/lib/chibios/os/rt/src/chthreads.o (symbol from plugin)
                                                  .build/obj_vessel_base/lib/chibios/os/hal/src/hal_queues.o (symbol from plugin)
                                                  .build/obj_vessel_base/lib/chibios/os/hal/src/hal_buffers.o (symbol from plugin)
chThdExit                                         C:\QMK_MSYS\tmp\ccs2W3Vd.ltrans0.ltrans.o
                                                  .build/obj_vessel_base/lib/chibios/os/rt/src/chthreads.o (symbol from plugin)
                                                  .build/obj_vessel_base/./lib/chibios/os/common/ports/ARMv7-M/compilers/GCC/chcoreasm.o
chThdExitS                                        .build/obj_vessel_base/lib/chibios/os/rt/src/chthreads.o (symbol from plugin)
chThdResume                                       .build/obj_vessel_base/lib/chibios/os/rt/src/chthreads.o (symbol from plugin)
chThdResumeI                                      .build/obj_vessel_base/lib/chibios/os/rt/src/chthreads.o (symbol from plugin)
                                                  .build/obj_vessel_base/lib/chibios/os/hal/ports/STM32/LLD/OTGv1/hal_usb_lld.o (symbol from plugin)
                                                  .build/obj_vessel_base/lib/chibios/os/hal/ports/STM32/LLD/I2Cv1/hal_i2c_lld.o (symbol from plugin)
                                                  .build/obj_vessel_base/lib/chibios/os/hal/src/hal_usb.o (symbol from plugin)
chThdResumeS                                      .build/obj_vessel_base/lib/chibios/os/rt/src/chthreads.o (symbol from plugin)
chThdSetPriority                                  .build/obj_vessel_base/lib/chibios/os/rt/src/chthreads.o (symbol from plugin)
chThdSleep                                        C:\QMK_MSYS\tmp\ccs2W3Vd.ltrans0.ltrans.o
                                                  .build/obj_vessel_base/lib/chibios/os/rt/src/chthreads.o (symbol from plugin)
                                                  .build/obj_vessel_base/lib/chibios/os/hal/src/hal_usb.o (symbol from plugin)
                                                  .build/obj_vessel_base/lib/chibios/os/hal/src/hal_flash.o (symbol from plugin)
                                                  .build/obj_vessel_base/protocol/chibios/chibios.o (symbol from plugin)
                                                  .build/obj_vessel_base/protocol/chibios/usb_main.o (symbol from plugin)
                                                  .build/obj_vessel_base/i2c_master.a(i2c_master.o)
                                                  .build/obj_vessel_base/platforms/chibios/suspend.o (symbol from plugin)
                                                  .build/obj_vessel_base/quantum/process_keycode/process_tap_dance.o (symbol from plugin)
                                                  .build/obj_vessel_base/quantum/send_string/send_string.o (symbol from plugin)
                                                  .build/obj_vessel_base/quantum/bootmagic/bootmagic.o (symbol from plugin)
                                                  .build/obj_vessel_base/quantum/action.o (symbol from plugin)
                                                  .build/obj_vessel_base/quantum/quantum.o (symbol from plugin)
                                                  .build/obj_vessel_base/quantum/keymap_introspection.o (symbol from plugin)
chThdSleepUntil                                   .build/obj_vessel_base/lib/chibios/os/rt/src/chthreads.o (symbol from plugin)
chThdSleepUntilWindowed                           .build/obj_vessel_base/lib/chibios/os/rt/src/chthreads.o (symbol from plugin)
chThdStart                                        .build/obj_vessel_base/lib/chibios/os/rt/src/chthreads.o (symbol from plugin)
chThdSuspendS                                     .build/obj_vessel_base/lib/chibios/os/rt/src/chthreads.o (symbol from plugin)
chThdSuspendTimeoutS                              .build/obj_vessel_base/lib/chibios/os/rt/src/chthreads.o (symbol from plugin)
                                                  .build/obj_vessel_base/lib/chibios/os/hal/ports/STM32/LLD/I2Cv1/hal_i2c_lld.o (symbol from plugin)
                                                  .build/obj_vessel_base/lib/chibios/os/hal/src/hal_usb.o (symbol from plugin)
chThdTerminate                                    .build/obj_vessel_base/lib/chibios/os/rt/src/chthreads.o (symbol from plugin)
chThdYield                                        .build/obj_vessel_base/lib/chibios/os/rt/src/chthreads.o (symbol from plugin)
chVTDoResetI                                      .build/obj_vessel_base/lib/chibios/os/rt/src/chvt.o (symbol from plugin)
                                                  .build/obj_vessel_base/lib/chibios/os/rt/src/chschd.o (symbol from plugin)
chVTDoSetContinuousI                              .build/obj_vessel_base/lib/chibios/os/rt/src/chvt.o (symbol from plugin)
chVTDoSetI                                        .build/obj_vessel_base/lib/chibios/os/rt/src/chvt.o (symbol from plugin)
                                                  .build/obj_vessel_base/lib/chibios/os/rt/src/chschd.o (symbol from plugin)
chVTDoTickI                                       .build/obj_vessel_base/lib/chibios/os/rt/src/chvt.o (symbol from plugin)
                                                  .build/obj_vessel_base/lib/chibios/os/rt/src/chsys.o (symbol from plugin)
chVTGetRemainingIntervalI                         .build/obj_vessel_base/lib/chibios/os/rt/src/chvt.o (symbol from plugin)
chVTGetTimeStampI                                 .build/obj_vessel_base/lib/chibios/os/rt/src/chvt.o (symbol from plugin)
chVTResetTimeStampI                               .build/obj_vessel_base/lib/chibios/os/rt/src/chvt.o (symbol from plugin)
ch_core0_cfg                                      .build/obj_vessel_base/lib/chibios/os/rt/src/chsys.o (symbol from plugin)
ch_memcore                                        .build/obj_vessel_base/lib/chibios/os/oslib/src/chmemcore.o (symbol from plugin)
ch_system                                         .build/obj_vessel_base/lib/chibios/os/rt/src/chsys.o (symbol from plugin)
                                                  .build/obj_vessel_base/lib/chibios/os/rt/src/chinstances.o (symbol from plugin)
chcond.c.1dc1614e                                 C:\QMK_MSYS\tmp\ccSpVPAW.debug.temp.o
chcore.c.23158ca4                                 C:\QMK_MSYS\tmp\ccUajHNZ.debug.temp.o
                                                  C:\QMK_MSYS\tmp\ccs2W3Vd.ltrans0.ltrans.o
chdebug.c.ab0d03df                                C:\QMK_MSYS\tmp\ccWgJ1Ve.debug.temp.o
chdelegates.c.567e3aa5                            C:\QMK_MSYS\tmp\ccgIQMB5.debug.temp.o
chdynamic.c.7bcec58f                              C:\QMK_MSYS\tmp\ccmkp5Xt.debug.temp.o
chevents.c.0dd4d6c9                               C:\QMK_MSYS\tmp\cc8uREns.debug.temp.o
chfactory.c.9a02d76c                              C:\QMK_MSYS\tmp\cckJppSA.debug.temp.o
chibios.c.daf7b35a                                C:\QMK_MSYS\tmp\ccGbXBy6.debug.temp.o
                                                  C:\QMK_MSYS\tmp\ccs2W3Vd.ltrans0.ltrans.o
chibios_driver                                    .build/obj_vessel_base/protocol/chibios/chibios.o (symbol from plugin)
chinstances.c.5fac7a3d                            C:\QMK_MSYS\tmp\ccyqoOug.debug.temp.o
                                                  C:\QMK_MSYS\tmp\ccs2W3Vd.ltrans0.ltrans.o
chmboxes.c.c7487276                               C:\QMK_MSYS\tmp\ccSJE1S1.debug.temp.o
chmemcore.c.453a1d8b                              C:\QMK_MSYS\tmp\ccCSIbRx.debug.temp.o
                                                  C:\QMK_MSYS\tmp\ccs2W3Vd.ltrans0.ltrans.o
chmemheaps.c.d95306e6                             C:\QMK_MSYS\tmp\ccOjPTY3.debug.temp.o
chmempools.c.4b6c7742                             C:\QMK_MSYS\tmp\ccgBye6z.debug.temp.o
chmsg.c.3ea98449                                  C:\QMK_MSYS\tmp\ccASVY1X.debug.temp.o
chmtx.c.8293b9af                                  C:\QMK_MSYS\tmp\cckT9yUp.debug.temp.o
                                                  C:\QMK_MSYS\tmp\ccs2W3Vd.ltrans0.ltrans.o
chobjcaches.c.564b4edb                            C:\QMK_MSYS\tmp\ccUD89jA.debug.temp.o
chpipes.c.ecc4b523                                C:\QMK_MSYS\tmp\ccQ2IDf5.debug.temp.o
chprintf                                          .build/obj_vessel_base/lib/chibios/os/hal/lib/streams/chprintf.o (symbol from plugin)
chprintf.c.e59851c0                               C:\QMK_MSYS\tmp\cciM41qR.debug.temp.o
chregistry.c.d2c03611                             C:\QMK_MSYS\tmp\ccWUVnCm.debug.temp.o
chrfcu.c.e1049246                                 C:\QMK_MSYS\tmp\ccW11CeM.debug.temp.o
                                                  C:\QMK_MSYS\tmp\ccs2W3Vd.ltrans0.ltrans.o
chscanf                                           .build/obj_vessel_base/lib/chibios/os/hal/lib/streams/chscanf.o (symbol from plugin)
chscanf.c.530a89f8                                C:\QMK_MSYS\tmp\ccA4oqxs.debug.temp.o
chschd.c.f46e1c0e                                 C:\QMK_MSYS\tmp\ccMcYjfK.debug.temp.o
                                                  C:\QMK_MSYS\tmp\ccs2W3Vd.ltrans0.ltrans.o
chsem.c.83911d07                                  C:\QMK_MSYS\tmp\cc2MnlaT.debug.temp.o
chsnprintf                                        .build/obj_vessel_base/lib/chibios/os/hal/lib/streams/chprintf.o (symbol from plugin)
chsnscanf                                         .build/obj_vessel_base/lib/chibios/os/hal/lib/streams/chscanf.o (symbol from plugin)
chstats.c.6e1609ea                                C:\QMK_MSYS\tmp\ccC3P92P.debug.temp.o
chsys.c.62aeba52                                  C:\QMK_MSYS\tmp\ccOcGXKj.debug.temp.o
                                                  C:\QMK_MSYS\tmp\ccs2W3Vd.ltrans0.ltrans.o
chthreads.c.47c1cb20                              C:\QMK_MSYS\tmp\cccqrNWM.debug.temp.o
                                                  C:\QMK_MSYS\tmp\ccs2W3Vd.ltrans0.ltrans.o
chtm.c.644c3b55                                   C:\QMK_MSYS\tmp\cccTphoj.debug.temp.o
chtrace.c.cd23ffd8                                C:\QMK_MSYS\tmp\cc8hi3yH.debug.temp.o
chvprintf                                         .build/obj_vessel_base/lib/chibios/os/hal/lib/streams/chprintf.o (symbol from plugin)
chvscanf                                          .build/obj_vessel_base/lib/chibios/os/hal/lib/streams/chscanf.o (symbol from plugin)
chvsnprintf                                       .build/obj_vessel_base/lib/chibios/os/hal/lib/streams/chprintf.o (symbol from plugin)
chvsnscanf                                        .build/obj_vessel_base/lib/chibios/os/hal/lib/streams/chscanf.o (symbol from plugin)
chvt.c.f6462411                                   C:\QMK_MSYS\tmp\ccS8sjUd.debug.temp.o
                                                  C:\QMK_MSYS\tmp\ccs2W3Vd.ltrans0.ltrans.o
clamp_length                                      .build/obj_vessel_base/eeprom_transient.o (symbol from plugin)
clear_keyboard                                    .build/obj_vessel_base/quantum/action.o (symbol from plugin)
                                                  .build/obj_vessel_base/quantum/process_keycode/process_magic.o (symbol from plugin)
                                                  .build/obj_vessel_base/quantum/action_tapping.o (symbol from plugin)
                                                  .build/obj_vessel_base/quantum/quantum.o (symbol from plugin)
clear_keyboard_but_mods                           .build/obj_vessel_base/quantum/action.o (symbol from plugin)
clear_keyboard_but_mods_and_keys                  .build/obj_vessel_base/quantum/action.o (symbol from plugin)
clear_keys                                        .build/obj_vessel_base/quantum/action_util.o (symbol from plugin)
clear_keys_from_report                            .build/obj_vessel_base/protocol/report.o (symbol from plugin)
                                                  .build/obj_vessel_base/platforms/chibios/suspend.o (symbol from plugin)
                                                  .build/obj_vessel_base/quantum/action_util.o (symbol from plugin)
                                                  .build/obj_vessel_base/quantum/action.o (symbol from plugin)
clear_mods                                        .build/obj_vessel_base/quantum/action_util.o (symbol from plugin)
                                                  .build/obj_vessel_base/platforms/chibios/suspend.o (symbol from plugin)
                                                  .build/obj_vessel_base/quantum/action.o (symbol from plugin)
clear_weak_mods                                   .build/obj_vessel_base/quantum/action_util.o (symbol from plugin)
                                                  .build/obj_vessel_base/platforms/chibios/suspend.o (symbol from plugin)
                                                  .build/obj_vessel_base/quantum/process_keycode/process_tap_dance.o (symbol from plugin)
                                                  .build/obj_vessel_base/quantum/action.o (symbol from plugin)
color.c.9849b175                                  C:\QMK_MSYS\tmp\ccCAUx2w.debug.temp.o
                                                  C:\QMK_MSYS\tmp\ccs2W3Vd.ltrans0.ltrans.o
crot                                              .build/obj_vessel_base/oled_driver.o (symbol from plugin)
crt1.c.d4fce6c2                                   C:\QMK_MSYS\tmp\ccU2tOfR.debug.temp.o
                                                  C:\QMK_MSYS\tmp\ccs2W3Vd.ltrans0.ltrans.o
current_frame                                     .build/obj_vessel_base/quantum/keymap_introspection.o (symbol from plugin)
debounce                                          .build/obj_vessel_base/quantum/debounce/sym_eager_pk.o (symbol from plugin)
                                                  .build/obj_vessel_base/quantum/matrix.o (symbol from plugin)
                                                  .build/obj_vessel_base/quantum/matrix_common.o (symbol from plugin)
debounce_free                                     .build/obj_vessel_base/quantum/debounce/sym_eager_pk.o (symbol from plugin)
debounce_init                                     .build/obj_vessel_base/quantum/debounce/sym_eager_pk.o (symbol from plugin)
                                                  .build/obj_vessel_base/quantum/matrix.o (symbol from plugin)
                                                  .build/obj_vessel_base/quantum/matrix_common.o (symbol from plugin)
debug.c.792acadb                                  C:\QMK_MSYS\tmp\ccaulbyh.debug.temp.o
                                                  C:\QMK_MSYS\tmp\ccs2W3Vd.ltrans0.ltrans.o
debug_action                                      .build/obj_vessel_base/quantum/action.o (symbol from plugin)
debug_config                                      .build/obj_vessel_base/quantum/logging/debug.o (symbol from plugin)
                                                  .build/obj_vessel_base/quantum/keyboard.o (symbol from plugin)
debug_event                                       .build/obj_vessel_base/quantum/action.o (symbol from plugin)
                                                  .build/obj_vessel_base/quantum/action_tapping.o (symbol from plugin)
debug_record                                      .build/obj_vessel_base/quantum/action.o (symbol from plugin)
                                                  .build/obj_vessel_base/quantum/action_tapping.o (symbol from plugin)
default_keyboard.c.e5ff7532                       C:\QMK_MSYS\tmp\ccsjiLQb.debug.temp.o
default_layer_and                                 .build/obj_vessel_base/quantum/action_layer.o (symbol from plugin)
                                                  .build/obj_vessel_base/quantum/action.o (symbol from plugin)
default_layer_debug                               .build/obj_vessel_base/quantum/action_layer.o (symbol from plugin)
                                                  .build/obj_vessel_base/quantum/action.o (symbol from plugin)
default_layer_or                                  .build/obj_vessel_base/quantum/action_layer.o (symbol from plugin)
                                                  .build/obj_vessel_base/quantum/action.o (symbol from plugin)
default_layer_set                                 .build/obj_vessel_base/quantum/action_layer.o (symbol from plugin)
                                                  .build/obj_vessel_base/quantum/keyboard.o (symbol from plugin)
                                                  .build/obj_vessel_base/quantum/action.o (symbol from plugin)
                                                  .build/obj_vessel_base/quantum/quantum.o (symbol from plugin)
default_layer_state                               .build/obj_vessel_base/quantum/action_layer.o (symbol from plugin)
                                                  .build/obj_vessel_base/quantum/eeconfig.o (symbol from plugin)
default_layer_state_set_kb                        .build/obj_vessel_base/quantum/action_layer.o (symbol from plugin)
default_layer_state_set_user                      .build/obj_vessel_base/quantum/action_layer.o (symbol from plugin)
default_layer_xor                                 .build/obj_vessel_base/quantum/action_layer.o (symbol from plugin)
                                                  .build/obj_vessel_base/quantum/action.o (symbol from plugin)
del_key                                           .build/obj_vessel_base/quantum/action_util.o (symbol from plugin)
del_key_bit                                       .build/obj_vessel_base/protocol/report.o (symbol from plugin)
del_key_byte                                      .build/obj_vessel_base/protocol/report.o (symbol from plugin)
del_key_from_report                               .build/obj_vessel_base/protocol/report.o (symbol from plugin)
                                                  .build/obj_vessel_base/quantum/process_keycode/process_grave_esc.o (symbol from plugin)
                                                  .build/obj_vessel_base/quantum/action_util.o (symbol from plugin)
                                                  .build/obj_vessel_base/quantum/action.o (symbol from plugin)
del_mods                                          .build/obj_vessel_base/quantum/action_util.o (symbol from plugin)
                                                  .build/obj_vessel_base/quantum/action.o (symbol from plugin)
del_weak_mods                                     .build/obj_vessel_base/quantum/action_util.o (symbol from plugin)
                                                  .build/obj_vessel_base/quantum/process_keycode/process_tap_dance.o (symbol from plugin)
                                                  .build/obj_vessel_base/quantum/action.o (symbol from plugin)
disable_action_cache                              .build/obj_vessel_base/quantum/action.o (symbol from plugin)
                                                  .build/obj_vessel_base/quantum/action_layer.o (symbol from plugin)
                                                  .build/obj_vessel_base/quantum/quantum.o (symbol from plugin)
dmaInit                                           .build/obj_vessel_base/lib/chibios/os/hal/ports/STM32/LLD/DMAv2/stm32_dma.o (symbol from plugin)
                                                  .build/obj_vessel_base/lib/chibios/os/hal/ports/STM32/STM32F4xx/hal_lld.o (symbol from plugin)
dmaStreamAlloc                                    .build/obj_vessel_base/lib/chibios/os/hal/ports/STM32/LLD/DMAv2/stm32_dma.o (symbol from plugin)
dmaStreamAllocI                                   .build/obj_vessel_base/lib/chibios/os/hal/ports/STM32/LLD/DMAv2/stm32_dma.o (symbol from plugin)
                                                  .build/obj_vessel_base/lib/chibios/os/hal/ports/STM32/LLD/I2Cv1/hal_i2c_lld.o (symbol from plugin)
dmaStreamFree                                     .build/obj_vessel_base/lib/chibios/os/hal/ports/STM32/LLD/DMAv2/stm32_dma.o (symbol from plugin)
dmaStreamFreeI                                    .build/obj_vessel_base/lib/chibios/os/hal/ports/STM32/LLD/DMAv2/stm32_dma.o (symbol from plugin)
                                                  .build/obj_vessel_base/lib/chibios/os/hal/ports/STM32/LLD/I2Cv1/hal_i2c_lld.o (symbol from plugin)
do_code16                                         .build/obj_vessel_base/quantum/quantum.o (symbol from plugin)
early_hardware_init_post                          .build/obj_vessel_base/protocol/chibios/chibios.o (symbol from plugin)
early_hardware_init_pre                           .build/obj_vessel_base/protocol/chibios/chibios.o (symbol from plugin)
eeconfig.c.449cb773                               C:\QMK_MSYS\tmp\cc0pCGa9.debug.temp.o
                                                  C:\QMK_MSYS\tmp\ccs2W3Vd.ltrans0.ltrans.o
eeconfig_check_valid_rgb_matrix                   .build/obj_vessel_base/quantum/rgb_matrix/rgb_matrix.o (symbol from plugin)
eeconfig_debug_rgb_matrix                         .build/obj_vessel_base/quantum/rgb_matrix/rgb_matrix.o (symbol from plugin)
eeconfig_disable                                  .build/obj_vessel_base/quantum/eeconfig.o (symbol from plugin)
                                                  .build/obj_vessel_base/quantum/bootmagic/bootmagic.o (symbol from plugin)
                                                  .build/obj_vessel_base/quantum/quantum.o (symbol from plugin)
eeconfig_enable                                   .build/obj_vessel_base/quantum/eeconfig.o (symbol from plugin)
eeconfig_init                                     .build/obj_vessel_base/quantum/eeconfig.o (symbol from plugin)
                                                  .build/obj_vessel_base/quantum/keyboard.o (symbol from plugin)
eeconfig_init_kb                                  .build/obj_vessel_base/quantum/eeconfig.o (symbol from plugin)
eeconfig_init_quantum                             .build/obj_vessel_base/quantum/eeconfig.o (symbol from plugin)
eeconfig_init_user                                .build/obj_vessel_base/quantum/eeconfig.o (symbol from plugin)
eeconfig_is_disabled                              .build/obj_vessel_base/quantum/eeconfig.o (symbol from plugin)
eeconfig_is_enabled                               .build/obj_vessel_base/quantum/eeconfig.o (symbol from plugin)
                                                  .build/obj_vessel_base/quantum/keyboard.o (symbol from plugin)
eeconfig_post_flush_rgb_matrix                    .build/obj_vessel_base/quantum/rgb_matrix/rgb_matrix.o (symbol from plugin)
eeconfig_read_audio                               .build/obj_vessel_base/quantum/eeconfig.o (symbol from plugin)
eeconfig_read_debug                               .build/obj_vessel_base/quantum/eeconfig.o (symbol from plugin)
                                                  .build/obj_vessel_base/quantum/keyboard.o (symbol from plugin)
eeconfig_read_default_layer                       .build/obj_vessel_base/quantum/eeconfig.o (symbol from plugin)
                                                  .build/obj_vessel_base/quantum/keyboard.o (symbol from plugin)
eeconfig_read_handedness                          .build/obj_vessel_base/quantum/eeconfig.o (symbol from plugin)
eeconfig_read_haptic                              .build/obj_vessel_base/quantum/eeconfig.o (symbol from plugin)
eeconfig_read_kb                                  .build/obj_vessel_base/quantum/eeconfig.o (symbol from plugin)
eeconfig_read_keymap                              .build/obj_vessel_base/quantum/eeconfig.o (symbol from plugin)
                                                  .build/obj_vessel_base/quantum/process_keycode/process_magic.o (symbol from plugin)
                                                  .build/obj_vessel_base/quantum/keyboard.o (symbol from plugin)
eeconfig_read_user                                .build/obj_vessel_base/quantum/eeconfig.o (symbol from plugin)
eeconfig_update_audio                             .build/obj_vessel_base/quantum/eeconfig.o (symbol from plugin)
eeconfig_update_debug                             .build/obj_vessel_base/quantum/eeconfig.o (symbol from plugin)
eeconfig_update_default_layer                     .build/obj_vessel_base/quantum/eeconfig.o (symbol from plugin)
                                                  .build/obj_vessel_base/quantum/quantum.o (symbol from plugin)
eeconfig_update_handedness                        .build/obj_vessel_base/quantum/eeconfig.o (symbol from plugin)
                                                  .build/obj_vessel_base/quantum/process_keycode/process_magic.o (symbol from plugin)
eeconfig_update_haptic                            .build/obj_vessel_base/quantum/eeconfig.o (symbol from plugin)
eeconfig_update_kb                                .build/obj_vessel_base/quantum/eeconfig.o (symbol from plugin)
eeconfig_update_keymap                            .build/obj_vessel_base/quantum/eeconfig.o (symbol from plugin)
                                                  .build/obj_vessel_base/quantum/process_keycode/process_magic.o (symbol from plugin)
eeconfig_update_rgb_matrix                        .build/obj_vessel_base/quantum/rgb_matrix/rgb_matrix.o (symbol from plugin)
eeconfig_update_rgb_matrix_default                .build/obj_vessel_base/quantum/rgb_matrix/rgb_matrix.o (symbol from plugin)
eeconfig_update_user                              .build/obj_vessel_base/quantum/eeconfig.o (symbol from plugin)
eeprom_driver.c.332fdc64                          C:\QMK_MSYS\tmp\ccWqp82G.debug.temp.o
                                                  C:\QMK_MSYS\tmp\ccs2W3Vd.ltrans0.ltrans.o
eeprom_driver_erase                               .build/obj_vessel_base/eeprom_transient.o (symbol from plugin)
                                                  .build/obj_vessel_base/quantum/eeconfig.o (symbol from plugin)
eeprom_driver_init                                .build/obj_vessel_base/eeprom_transient.o (symbol from plugin)
                                                  .build/obj_vessel_base/quantum/keyboard.o (symbol from plugin)
eeprom_read_block                                 .build/obj_vessel_base/eeprom_transient.o (symbol from plugin)
                                                  .build/obj_vessel_base/quantum/rgb_matrix/rgb_matrix.o (symbol from plugin)
                                                  .build/obj_vessel_base/eeprom_driver.o (symbol from plugin)
eeprom_read_byte                                  .build/obj_vessel_base/eeprom_driver.o (symbol from plugin)
                                                  .build/obj_vessel_base/quantum/eeconfig.o (symbol from plugin)
eeprom_read_dword                                 .build/obj_vessel_base/eeprom_driver.o (symbol from plugin)
                                                  .build/obj_vessel_base/quantum/eeconfig.o (symbol from plugin)
eeprom_read_word                                  .build/obj_vessel_base/eeprom_driver.o (symbol from plugin)
                                                  .build/obj_vessel_base/quantum/eeconfig.o (symbol from plugin)
eeprom_transient.c.9005f06d                       C:\QMK_MSYS\tmp\cc2KLL36.debug.temp.o
                                                  C:\QMK_MSYS\tmp\ccs2W3Vd.ltrans0.ltrans.o
eeprom_update_block                               .build/obj_vessel_base/eeprom_driver.o (symbol from plugin)
                                                  .build/obj_vessel_base/quantum/rgb_matrix/rgb_matrix.o (symbol from plugin)
                                                  .build/obj_vessel_base/quantum/eeconfig.o (symbol from plugin)
eeprom_update_byte                                .build/obj_vessel_base/eeprom_driver.o (symbol from plugin)
                                                  .build/obj_vessel_base/quantum/eeconfig.o (symbol from plugin)
eeprom_update_dword                               .build/obj_vessel_base/eeprom_driver.o (symbol from plugin)
                                                  .build/obj_vessel_base/quantum/eeconfig.o (symbol from plugin)
eeprom_update_word                                .build/obj_vessel_base/eeprom_driver.o (symbol from plugin)
                                                  .build/obj_vessel_base/quantum/eeconfig.o (symbol from plugin)
eeprom_write_block                                .build/obj_vessel_base/eeprom_transient.o (symbol from plugin)
                                                  .build/obj_vessel_base/eeprom_driver.o (symbol from plugin)
eeprom_write_byte                                 .build/obj_vessel_base/eeprom_driver.o (symbol from plugin)
eeprom_write_dword                                .build/obj_vessel_base/eeprom_driver.o (symbol from plugin)
eeprom_write_word                                 .build/obj_vessel_base/eeprom_driver.o (symbol from plugin)
effect_runner_bloom                               .build/obj_vessel_base/quantum/rgb_matrix/rgb_matrix.o (symbol from plugin)
effect_runner_dx_dy                               .build/obj_vessel_base/quantum/rgb_matrix/rgb_matrix.o (symbol from plugin)
effect_runner_dx_dy_dist                          .build/obj_vessel_base/quantum/rgb_matrix/rgb_matrix.o (symbol from plugin)
effect_runner_i                                   .build/obj_vessel_base/quantum/rgb_matrix/rgb_matrix.o (symbol from plugin)
effect_runner_reactive                            .build/obj_vessel_base/quantum/rgb_matrix/rgb_matrix.o (symbol from plugin)
effect_runner_reactive_splash                     .build/obj_vessel_base/quantum/rgb_matrix/rgb_matrix.o (symbol from plugin)
effect_runner_sin_cos_i                           .build/obj_vessel_base/quantum/rgb_matrix/rgb_matrix.o (symbol from plugin)
encoder.c.224c3f34                                C:\QMK_MSYS\tmp\ccGvlT2F.debug.temp.o
                                                  C:\QMK_MSYS\tmp\ccs2W3Vd.ltrans0.ltrans.o
encoder_dequeue_event                             .build/obj_vessel_base/quantum/encoder.o (symbol from plugin)
encoder_dequeue_event_advanced                    .build/obj_vessel_base/quantum/encoder.o (symbol from plugin)
encoder_driver_init                               .build/obj_vessel_base/encoder_quadrature.o (symbol from plugin)
                                                  .build/obj_vessel_base/quantum/encoder.o (symbol from plugin)
encoder_driver_task                               .build/obj_vessel_base/encoder_quadrature.o (symbol from plugin)
                                                  .build/obj_vessel_base/quantum/encoder.o (symbol from plugin)
encoder_init                                      .build/obj_vessel_base/quantum/encoder.o (symbol from plugin)
                                                  .build/obj_vessel_base/quantum/keyboard.o (symbol from plugin)
encoder_map                                       .build/obj_vessel_base/quantum/keymap_introspection.o (symbol from plugin)
encoder_quadrature.c.d74c7185                     C:\QMK_MSYS\tmp\cc4I5Saa.debug.temp.o
                                                  C:\QMK_MSYS\tmp\ccs2W3Vd.ltrans0.ltrans.o
encoder_quadrature_handle_read                    .build/obj_vessel_base/encoder_quadrature.o (symbol from plugin)
encoder_quadrature_init_pin                       .build/obj_vessel_base/encoder_quadrature.o (symbol from plugin)
encoder_quadrature_post_init                      .build/obj_vessel_base/encoder_quadrature.o (symbol from plugin)
encoder_quadrature_post_init_kb                   .build/obj_vessel_base/encoder_quadrature.o (symbol from plugin)
encoder_quadrature_read_pin                       .build/obj_vessel_base/encoder_quadrature.o (symbol from plugin)
encoder_queue_empty                               .build/obj_vessel_base/quantum/encoder.o (symbol from plugin)
encoder_queue_empty_advanced                      .build/obj_vessel_base/quantum/encoder.o (symbol from plugin)
encoder_queue_event                               .build/obj_vessel_base/quantum/encoder.o (symbol from plugin)
                                                  .build/obj_vessel_base/encoder_quadrature.o (symbol from plugin)
encoder_queue_event_advanced                      .build/obj_vessel_base/quantum/encoder.o (symbol from plugin)
encoder_queue_full                                .build/obj_vessel_base/quantum/encoder.o (symbol from plugin)
encoder_queue_full_advanced                       .build/obj_vessel_base/quantum/encoder.o (symbol from plugin)
encoder_retrieve_events                           .build/obj_vessel_base/quantum/encoder.o (symbol from plugin)
encoder_signal_queue_drain                        .build/obj_vessel_base/quantum/encoder.o (symbol from plugin)
encoder_source_layers_cache                       .build/obj_vessel_base/quantum/action_layer.o (symbol from plugin)
encoder_task                                      .build/obj_vessel_base/quantum/encoder.o (symbol from plugin)
                                                  .build/obj_vessel_base/quantum/keyboard.o (symbol from plugin)
encoder_update_kb                                 .build/obj_vessel_base/quantum/encoder.o (symbol from plugin)
encoder_update_user                               .build/obj_vessel_base/quantum/encoder.o (symbol from plugin)
encoder_wait_pullup_charge                        .build/obj_vessel_base/encoder_quadrature.o (symbol from plugin)
encodermap_layer_count                            .build/obj_vessel_base/quantum/keymap_introspection.o (symbol from plugin)
encodermap_layer_count_raw                        .build/obj_vessel_base/quantum/keymap_introspection.o (symbol from plugin)
enter_bootloader_mode_if_requested                .build/obj_vessel_base/platforms/chibios/bootloaders/stm32_dfu.o (symbol from plugin)
                                                  .build/obj_vessel_base/protocol/chibios/chibios.o (symbol from plugin)
errno                                             C:/QMK_MSYS/mingw64/bin/../lib/gcc/arm-none-eabi/13.3.0/../../../../arm-none-eabi/lib/thumb/v7e-m+fp/hard\libg_nano.a(libc_a-reent.o)
                                                  C:/QMK_MSYS/mingw64/bin/../lib/gcc/arm-none-eabi/13.3.0/../../../../arm-none-eabi/lib/thumb/v7e-m+fp/hard\libg_nano.a(libc_a-signalr.o)
event_queue                                       .build/obj_vessel_base/protocol/chibios/usb_main.o (symbol from plugin)
event_queue_head                                  .build/obj_vessel_base/protocol/chibios/usb_main.o (symbol from plugin)
event_queue_tail                                  .build/obj_vessel_base/protocol/chibios/usb_main.o (symbol from plugin)
extract_mod_bits                                  .build/obj_vessel_base/quantum/quantum.o (symbol from plugin)
fctprintf                                         .build/obj_vessel_base/printf.o (symbol from plugin)
fflush                                            C:/QMK_MSYS/mingw64/bin/../lib/gcc/arm-none-eabi/13.3.0/../../../../arm-none-eabi/lib/thumb/v7e-m+fp/hard\libg_nano.a(libc_a-fflush.o)
fiprintf                                          C:/QMK_MSYS/mingw64/bin/../lib/gcc/arm-none-eabi/13.3.0/../../../../arm-none-eabi/lib/thumb/v7e-m+fp/hard\libg_nano.a(libc_a-fprintf.o)
                                                  C:/QMK_MSYS/mingw64/bin/../lib/gcc/arm-none-eabi/13.3.0/../../../../arm-none-eabi/lib/thumb/v7e-m+fp/hard\libg_nano.a(libc_a-assert.o)
flashGetAddressOffset                             .build/obj_vessel_base/lib/chibios/os/hal/src/hal_flash.o (symbol from plugin)
flashGetOffsetAddress                             .build/obj_vessel_base/lib/chibios/os/hal/src/hal_flash.o (symbol from plugin)
flashGetOffsetSector                              .build/obj_vessel_base/lib/chibios/os/hal/src/hal_flash.o (symbol from plugin)
flashGetSectorOffset                              .build/obj_vessel_base/lib/chibios/os/hal/src/hal_flash.o (symbol from plugin)
flashGetSectorSize                                .build/obj_vessel_base/lib/chibios/os/hal/src/hal_flash.o (symbol from plugin)
flashWaitErase                                    .build/obj_vessel_base/lib/chibios/os/hal/src/hal_flash.o (symbol from plugin)
fprintf                                           C:/QMK_MSYS/mingw64/bin/../lib/gcc/arm-none-eabi/13.3.0/../../../../arm-none-eabi/lib/thumb/v7e-m+fp/hard\libg_nano.a(libc_a-fprintf.o)
free                                              C:/QMK_MSYS/mingw64/bin/../lib/gcc/arm-none-eabi/13.3.0/../../../../arm-none-eabi/lib/thumb/v7e-m+fp/hard\libg_nano.a(libc_a-malloc.o)
g_last_hit_tracker                                .build/obj_vessel_base/quantum/rgb_matrix/rgb_matrix.o (symbol from plugin)
g_led_config                                      .build/obj_vessel_base/keyboards/vessel/vessel.o (symbol from plugin)
                                                  .build/obj_vessel_base/quantum/rgb_matrix/rgb_matrix.o (symbol from plugin)
g_rgb_timer                                       .build/obj_vessel_base/quantum/rgb_matrix/rgb_matrix.o (symbol from plugin)
get_event_keycode                                 .build/obj_vessel_base/quantum/quantum.o (symbol from plugin)
get_first_key                                     .build/obj_vessel_base/protocol/report.o (symbol from plugin)
get_hardware_id                                   .build/obj_vessel_base/platforms/chibios/hardware_id.o (symbol from plugin)
get_mods                                          .build/obj_vessel_base/quantum/action_util.o (symbol from plugin)
                                                  .build/obj_vessel_base/quantum/process_keycode/process_tap_dance.o (symbol from plugin)
                                                  .build/obj_vessel_base/quantum/process_keycode/process_grave_esc.o (symbol from plugin)
                                                  .build/obj_vessel_base/quantum/process_keycode/process_rgb.o (symbol from plugin)
                                                  .build/obj_vessel_base/quantum/keymap_introspection.o (symbol from plugin)
get_numeric_str                                   .build/obj_vessel_base/quantum/quantum.o (symbol from plugin)
get_record_keycode                                .build/obj_vessel_base/quantum/quantum.o (symbol from plugin)
get_u16_str                                       .build/obj_vessel_base/quantum/quantum.o (symbol from plugin)
get_u8_str                                        .build/obj_vessel_base/quantum/quantum.o (symbol from plugin)
get_usb_descriptor                                .build/obj_vessel_base/usb_descriptor.o (symbol from plugin)
                                                  .build/obj_vessel_base/protocol/chibios/usb_main.o (symbol from plugin)
get_weak_mods                                     .build/obj_vessel_base/quantum/action_util.o (symbol from plugin)
                                                  .build/obj_vessel_base/quantum/process_keycode/process_tap_dance.o (symbol from plugin)
hal.c.93194310                                    C:\QMK_MSYS\tmp\ccgwBwl6.debug.temp.o
                                                  C:\QMK_MSYS\tmp\ccs2W3Vd.ltrans0.ltrans.o
halInit                                           .build/obj_vessel_base/lib/chibios/os/hal/src/hal.o (symbol from plugin)
                                                  .build/obj_vessel_base/platforms/chibios/platform.o (symbol from plugin)
hal_adc.c.1caa4d29                                C:\QMK_MSYS\tmp\ccS98Pq7.debug.temp.o
hal_adc_lld.c.c1a06748                            C:\QMK_MSYS\tmp\ccE8HPke.debug.temp.o
hal_buffers.c.25589c53                            C:\QMK_MSYS\tmp\cca7GX86.debug.temp.o
                                                  C:\QMK_MSYS\tmp\ccs2W3Vd.ltrans0.ltrans.o
hal_can.c.1004e8b6                                C:\QMK_MSYS\tmp\ccUxYSVB.debug.temp.o
hal_can_lld.c.f293c081                            C:\QMK_MSYS\tmp\ccERGbML.debug.temp.o
hal_crypto.c.d667935c                             C:\QMK_MSYS\tmp\ccKhEVE6.debug.temp.o
hal_crypto_lld.c.d36fc76d                         C:\QMK_MSYS\tmp\cc8F4mcj.debug.temp.o
hal_dac.c.a9ecf521                                C:\QMK_MSYS\tmp\ccAjfVhB.debug.temp.o
hal_dac_lld.c.d2e4aaed                            C:\QMK_MSYS\tmp\cciuX9OQ.debug.temp.o
hal_efl.c.6348bf7d                                C:\QMK_MSYS\tmp\ccOXdic6.debug.temp.o
hal_efl_lld.c.46797d04                            C:\QMK_MSYS\tmp\ccENNfOG.debug.temp.o
hal_flash.c.c57f0b82                              C:\QMK_MSYS\tmp\ccibcQi8.debug.temp.o
hal_gpt.c.9994a5c7                                C:\QMK_MSYS\tmp\ccmYul1A.debug.temp.o
hal_gpt_lld.c.f4daad51                            C:\QMK_MSYS\tmp\ccCpVhqR.debug.temp.o
hal_i2c.c.b66627b0                                C:\QMK_MSYS\tmp\ccEe4n45.debug.temp.o
                                                  C:\QMK_MSYS\tmp\ccs2W3Vd.ltrans0.ltrans.o
hal_i2c_lld.c.d9b36ab0                            C:\QMK_MSYS\tmp\ccQpYuI1.debug.temp.o
                                                  C:\QMK_MSYS\tmp\ccs2W3Vd.ltrans0.ltrans.o
hal_i2s.c.d1ad48f7                                C:\QMK_MSYS\tmp\ccycgk1A.debug.temp.o
hal_i2s_lld.c.7095d594                            C:\QMK_MSYS\tmp\ccQqembJ.debug.temp.o
hal_icu.c.c56d4515                                C:\QMK_MSYS\tmp\ccWl0UX5.debug.temp.o
hal_icu_lld.c.ae0ef24e                            C:\QMK_MSYS\tmp\ccCu9lzo.debug.temp.o
hal_lld.c.5440b01a                                C:\QMK_MSYS\tmp\cco0Ypj8.debug.temp.o
                                                  C:\QMK_MSYS\tmp\ccs2W3Vd.ltrans0.ltrans.o
hal_lld_init                                      .build/obj_vessel_base/lib/chibios/os/hal/ports/STM32/STM32F4xx/hal_lld.o (symbol from plugin)
                                                  .build/obj_vessel_base/lib/chibios/os/hal/src/hal.o (symbol from plugin)
hal_mac.c.02d9539e                                C:\QMK_MSYS\tmp\ccaMPMCE.debug.temp.o
hal_mac_lld.c.13b6c4da                            C:\QMK_MSYS\tmp\ccggOBDz.debug.temp.o
hal_mmc_spi.c.1c516053                            C:\QMK_MSYS\tmp\cc0vXvcd.debug.temp.o
hal_mmcsd.c.32a14f29                              C:\QMK_MSYS\tmp\cc8w1jUC.debug.temp.o
hal_pal.c.4357f13c                                C:\QMK_MSYS\tmp\ccGwgp3L.debug.temp.o
hal_pal_lld.c.2299cf12                            C:\QMK_MSYS\tmp\ccAQkt0t.debug.temp.o
                                                  C:\QMK_MSYS\tmp\ccs2W3Vd.ltrans0.ltrans.o
hal_pwm.c.b5603194                                C:\QMK_MSYS\tmp\ccq3emPk.debug.temp.o
hal_pwm_lld.c.4276ab89                            C:\QMK_MSYS\tmp\ccwohVUV.debug.temp.o
hal_queues.c.a1471b37                             C:\QMK_MSYS\tmp\ccOkJsJC.debug.temp.o
hal_rtc.c.2344749a                                C:\QMK_MSYS\tmp\cc8oKcAT.debug.temp.o
hal_rtc_lld.c.1b244a20                            C:\QMK_MSYS\tmp\ccoFbhjc.debug.temp.o
hal_sdc.c.ba668bdf                                C:\QMK_MSYS\tmp\cc0nJTws.debug.temp.o
hal_sdc_lld.c.d1d8bcde                            C:\QMK_MSYS\tmp\ccgkDAhN.debug.temp.o
hal_serial.c.56a444f2                             C:\QMK_MSYS\tmp\cckjHAr1.debug.temp.o
hal_serial_lld.c.371b8892                         C:\QMK_MSYS\tmp\cc69Vcft.debug.temp.o
hal_serial_usb.c.e4f43e24                         C:\QMK_MSYS\tmp\cckELplA.debug.temp.o
hal_sio.c.a431bfdb                                C:\QMK_MSYS\tmp\ccwPPss9.debug.temp.o
hal_spi.c.ca32e4ce                                C:\QMK_MSYS\tmp\ccQA4iuI.debug.temp.o
hal_spi_v2_lld.c.16bdd27a                         C:\QMK_MSYS\tmp\cciMFUgg.debug.temp.o
hal_st.c.7d31f0ca                                 C:\QMK_MSYS\tmp\ccKS4vMB.debug.temp.o
                                                  C:\QMK_MSYS\tmp\ccs2W3Vd.ltrans0.ltrans.o
hal_st_lld.c.f609d332                             C:\QMK_MSYS\tmp\cc6xi9gk.debug.temp.o
                                                  C:\QMK_MSYS\tmp\ccs2W3Vd.ltrans0.ltrans.o
hal_trng.c.a2ee5fe2                               C:\QMK_MSYS\tmp\ccAvNFyg.debug.temp.o
hal_uart.c.6d150cb5                               C:\QMK_MSYS\tmp\ccUyB3AO.debug.temp.o
hal_uart_lld.c.c42f1af6                           C:\QMK_MSYS\tmp\ccc8i2g4.debug.temp.o
hal_usb.c.e02d3b75                                C:\QMK_MSYS\tmp\ccKK5gCm.debug.temp.o
                                                  C:\QMK_MSYS\tmp\ccs2W3Vd.ltrans0.ltrans.o
hal_usb_lld.c.9bc2aa4c                            C:\QMK_MSYS\tmp\ccu6aUw7.debug.temp.o
                                                  C:\QMK_MSYS\tmp\ccs2W3Vd.ltrans0.ltrans.o
hal_wdg.c.d5cc1ab6                                C:\QMK_MSYS\tmp\ccOPQIQU.debug.temp.o
hal_wdg_lld.c.020167f2                            C:\QMK_MSYS\tmp\ccE57uiF.debug.temp.o
hal_wspi.c.c056c445                               C:\QMK_MSYS\tmp\ccSeAoZs.debug.temp.o
hal_wspi_lld.c.ddf8e6b9                           C:\QMK_MSYS\tmp\ccU82opF.debug.temp.o
hardware_id.c.db1072e0                            C:\QMK_MSYS\tmp\ccSNksgi.debug.temp.o
has_anykey                                        .build/obj_vessel_base/protocol/report.o (symbol from plugin)
has_anymod                                        .build/obj_vessel_base/quantum/action_util.o (symbol from plugin)
host.c.99cc40e8                                   C:\QMK_MSYS\tmp\ccW8nlXY.debug.temp.o
                                                  C:\QMK_MSYS\tmp\ccs2W3Vd.ltrans0.ltrans.o
host_consumer_send                                .build/obj_vessel_base/protocol/host.o (symbol from plugin)
                                                  .build/obj_vessel_base/platforms/chibios/suspend.o (symbol from plugin)
                                                  .build/obj_vessel_base/quantum/action.o (symbol from plugin)
host_get_driver                                   .build/obj_vessel_base/protocol/host.o (symbol from plugin)
host_keyboard_led_state                           .build/obj_vessel_base/protocol/host.o (symbol from plugin)
                                                  .build/obj_vessel_base/quantum/keymap_introspection.o (symbol from plugin)
host_keyboard_leds                                .build/obj_vessel_base/protocol/host.o (symbol from plugin)
                                                  .build/obj_vessel_base/quantum/action.o (symbol from plugin)
                                                  .build/obj_vessel_base/quantum/led.o (symbol from plugin)
host_keyboard_send                                .build/obj_vessel_base/protocol/host.o (symbol from plugin)
                                                  .build/obj_vessel_base/quantum/action_util.o (symbol from plugin)
host_last_consumer_usage                          .build/obj_vessel_base/protocol/host.o (symbol from plugin)
host_last_system_usage                            .build/obj_vessel_base/protocol/host.o (symbol from plugin)
host_mouse_send                                   .build/obj_vessel_base/protocol/host.o (symbol from plugin)
host_nkro_send                                    .build/obj_vessel_base/protocol/host.o (symbol from plugin)
                                                  .build/obj_vessel_base/quantum/action_util.o (symbol from plugin)
host_programmable_button_send                     .build/obj_vessel_base/protocol/host.o (symbol from plugin)
                                                  .build/obj_vessel_base/quantum/programmable_button.o (symbol from plugin)
host_set_driver                                   .build/obj_vessel_base/protocol/host.o (symbol from plugin)
                                                  .build/obj_vessel_base/protocol/chibios/chibios.o (symbol from plugin)
host_system_send                                  .build/obj_vessel_base/protocol/host.o (symbol from plugin)
                                                  .build/obj_vessel_base/platforms/chibios/suspend.o (symbol from plugin)
                                                  .build/obj_vessel_base/quantum/action.o (symbol from plugin)
housekeeping_task                                 .build/obj_vessel_base/quantum/keyboard.o (symbol from plugin)
                                                  .build/obj_vessel_base/quantum/main.o (symbol from plugin)
housekeeping_task_kb                              .build/obj_vessel_base/quantum/keyboard.o (symbol from plugin)
housekeeping_task_user                            .build/obj_vessel_base/quantum/keyboard.o (symbol from plugin)
hsv_to_rgb                                        .build/obj_vessel_base/quantum/color.o (symbol from plugin)
                                                  .build/obj_vessel_base/quantum/rgb_matrix/rgb_matrix.o (symbol from plugin)
hsv_to_rgb_impl                                   .build/obj_vessel_base/quantum/color.o (symbol from plugin)
hsv_to_rgb_nocie                                  .build/obj_vessel_base/quantum/color.o (symbol from plugin)
i2cAcquireBus                                     .build/obj_vessel_base/lib/chibios/os/hal/src/hal_i2c.o (symbol from plugin)
i2cGetErrors                                      .build/obj_vessel_base/lib/chibios/os/hal/src/hal_i2c.o (symbol from plugin)
i2cInit                                           .build/obj_vessel_base/lib/chibios/os/hal/src/hal_i2c.o (symbol from plugin)
                                                  .build/obj_vessel_base/lib/chibios/os/hal/src/hal.o (symbol from plugin)
i2cMasterReceiveTimeout                           C:\QMK_MSYS\tmp\ccs2W3Vd.ltrans0.ltrans.o
                                                  .build/obj_vessel_base/lib/chibios/os/hal/src/hal_i2c.o (symbol from plugin)
                                                  .build/obj_vessel_base/i2c_master.a(i2c_master.o)
i2cMasterTransmitTimeout                          C:\QMK_MSYS\tmp\ccs2W3Vd.ltrans0.ltrans.o
                                                  .build/obj_vessel_base/lib/chibios/os/hal/src/hal_i2c.o (symbol from plugin)
                                                  .build/obj_vessel_base/i2c_master.a(i2c_master.o)
i2cObjectInit                                     .build/obj_vessel_base/lib/chibios/os/hal/src/hal_i2c.o (symbol from plugin)
                                                  .build/obj_vessel_base/lib/chibios/os/hal/ports/STM32/LLD/I2Cv1/hal_i2c_lld.o (symbol from plugin)
i2cReleaseBus                                     .build/obj_vessel_base/lib/chibios/os/hal/src/hal_i2c.o (symbol from plugin)
i2cStart                                          C:\QMK_MSYS\tmp\ccs2W3Vd.ltrans0.ltrans.o
                                                  .build/obj_vessel_base/lib/chibios/os/hal/src/hal_i2c.o (symbol from plugin)
                                                  .build/obj_vessel_base/i2c_master.a(i2c_master.o)
i2cStop                                           C:\QMK_MSYS\tmp\ccs2W3Vd.ltrans0.ltrans.o
                                                  .build/obj_vessel_base/lib/chibios/os/hal/src/hal_i2c.o (symbol from plugin)
                                                  .build/obj_vessel_base/i2c_master.a(i2c_master.o)
i2c_init                                          .build/obj_vessel_base/i2c_master.a(i2c_master.o)
                                                  C:\QMK_MSYS\tmp\ccs2W3Vd.ltrans0.ltrans.o
                                                  .build/obj_vessel_base/oled_driver.o (symbol from plugin)
i2c_lld_init                                      .build/obj_vessel_base/lib/chibios/os/hal/ports/STM32/LLD/I2Cv1/hal_i2c_lld.o (symbol from plugin)
                                                  .build/obj_vessel_base/lib/chibios/os/hal/src/hal_i2c.o (symbol from plugin)
i2c_lld_master_receive_timeout                    .build/obj_vessel_base/lib/chibios/os/hal/ports/STM32/LLD/I2Cv1/hal_i2c_lld.o (symbol from plugin)
                                                  .build/obj_vessel_base/lib/chibios/os/hal/src/hal_i2c.o (symbol from plugin)
i2c_lld_master_transmit_timeout                   .build/obj_vessel_base/lib/chibios/os/hal/ports/STM32/LLD/I2Cv1/hal_i2c_lld.o (symbol from plugin)
                                                  .build/obj_vessel_base/lib/chibios/os/hal/src/hal_i2c.o (symbol from plugin)
i2c_lld_start                                     .build/obj_vessel_base/lib/chibios/os/hal/ports/STM32/LLD/I2Cv1/hal_i2c_lld.o (symbol from plugin)
                                                  .build/obj_vessel_base/lib/chibios/os/hal/src/hal_i2c.o (symbol from plugin)
i2c_lld_stop                                      .build/obj_vessel_base/lib/chibios/os/hal/ports/STM32/LLD/I2Cv1/hal_i2c_lld.o (symbol from plugin)
                                                  .build/obj_vessel_base/lib/chibios/os/hal/src/hal_i2c.o (symbol from plugin)
i2c_ping_address                                  .build/obj_vessel_base/i2c_master.a(i2c_master.o)
i2c_read_register                                 .build/obj_vessel_base/i2c_master.a(i2c_master.o)
i2c_read_register16                               .build/obj_vessel_base/i2c_master.a(i2c_master.o)
i2c_receive                                       .build/obj_vessel_base/i2c_master.a(i2c_master.o)
i2c_transmit                                      .build/obj_vessel_base/i2c_master.a(i2c_master.o)
                                                  C:\QMK_MSYS\tmp\ccs2W3Vd.ltrans0.ltrans.o
                                                  .build/obj_vessel_base/oled_driver.o (symbol from plugin)
i2c_write_register                                .build/obj_vessel_base/i2c_master.a(i2c_master.o)
                                                  C:\QMK_MSYS\tmp\ccs2W3Vd.ltrans0.ltrans.o
                                                  .build/obj_vessel_base/oled_driver.o (symbol from plugin)
i2c_write_register16                              .build/obj_vessel_base/i2c_master.a(i2c_master.o)
ibqGetEmptyBufferI                                .build/obj_vessel_base/lib/chibios/os/hal/src/hal_buffers.o (symbol from plugin)
                                                  .build/obj_vessel_base/protocol/chibios/usb_driver.o (symbol from plugin)
ibqGetFullBufferTimeout                           .build/obj_vessel_base/lib/chibios/os/hal/src/hal_buffers.o (symbol from plugin)
ibqGetFullBufferTimeoutS                          .build/obj_vessel_base/lib/chibios/os/hal/src/hal_buffers.o (symbol from plugin)
ibqGetTimeout                                     .build/obj_vessel_base/lib/chibios/os/hal/src/hal_buffers.o (symbol from plugin)
ibqObjectInit                                     .build/obj_vessel_base/lib/chibios/os/hal/src/hal_buffers.o (symbol from plugin)
                                                  .build/obj_vessel_base/protocol/chibios/usb_driver.o (symbol from plugin)
ibqPostFullBufferI                                .build/obj_vessel_base/lib/chibios/os/hal/src/hal_buffers.o (symbol from plugin)
                                                  .build/obj_vessel_base/protocol/chibios/usb_driver.o (symbol from plugin)
ibqReadTimeout                                    .build/obj_vessel_base/lib/chibios/os/hal/src/hal_buffers.o (symbol from plugin)
                                                  .build/obj_vessel_base/protocol/chibios/usb_driver.o (symbol from plugin)
ibqReleaseEmptyBuffer                             .build/obj_vessel_base/lib/chibios/os/hal/src/hal_buffers.o (symbol from plugin)
ibqReleaseEmptyBufferS                            .build/obj_vessel_base/lib/chibios/os/hal/src/hal_buffers.o (symbol from plugin)
ibqResetI                                         .build/obj_vessel_base/lib/chibios/os/hal/src/hal_buffers.o (symbol from plugin)
                                                  .build/obj_vessel_base/protocol/chibios/usb_driver.o (symbol from plugin)
init_usb_driver                                   .build/obj_vessel_base/protocol/chibios/usb_main.o (symbol from plugin)
                                                  .build/obj_vessel_base/protocol/chibios/chibios.o (symbol from plugin)
interrupt_handlers.c.93e9a42d                     C:\QMK_MSYS\tmp\cc8rsQjf.debug.temp.o
iqGetI                                            .build/obj_vessel_base/lib/chibios/os/hal/src/hal_queues.o (symbol from plugin)
iqGetTimeout                                      .build/obj_vessel_base/lib/chibios/os/hal/src/hal_queues.o (symbol from plugin)
iqObjectInit                                      .build/obj_vessel_base/lib/chibios/os/hal/src/hal_queues.o (symbol from plugin)
iqPutI                                            .build/obj_vessel_base/lib/chibios/os/hal/src/hal_queues.o (symbol from plugin)
iqReadI                                           .build/obj_vessel_base/lib/chibios/os/hal/src/hal_queues.o (symbol from plugin)
iqReadTimeout                                     .build/obj_vessel_base/lib/chibios/os/hal/src/hal_queues.o (symbol from plugin)
iqResetI                                          .build/obj_vessel_base/lib/chibios/os/hal/src/hal_queues.o (symbol from plugin)
irqDeinit                                         .build/obj_vessel_base/lib/chibios/os/hal/ports/STM32/STM32F4xx/stm32_isr.o (symbol from plugin)
irqInit                                           .build/obj_vessel_base/lib/chibios/os/hal/ports/STM32/STM32F4xx/stm32_isr.o (symbol from plugin)
                                                  .build/obj_vessel_base/lib/chibios/os/hal/ports/STM32/STM32F4xx/hal_lld.o (symbol from plugin)
is_key_pressed                                    .build/obj_vessel_base/protocol/report.o (symbol from plugin)
                                                  .build/obj_vessel_base/quantum/action.o (symbol from plugin)
is_keyboard_left                                  .build/obj_vessel_base/quantum/keyboard.o (symbol from plugin)
is_keyboard_master                                .build/obj_vessel_base/quantum/keyboard.o (symbol from plugin)
                                                  .build/obj_vessel_base/quantum/encoder.o (symbol from plugin)
                                                  .build/obj_vessel_base/quantum/rgb_matrix/rgb_matrix.o (symbol from plugin)
is_oled_on                                        .build/obj_vessel_base/oled_driver.o (symbol from plugin)
                                                  .build/obj_vessel_base/quantum/keymap_introspection.o (symbol from plugin)
is_oled_scrolling                                 .build/obj_vessel_base/oled_driver.o (symbol from plugin)
is_tap_action                                     .build/obj_vessel_base/quantum/action.o (symbol from plugin)
is_tap_record                                     .build/obj_vessel_base/quantum/action.o (symbol from plugin)
                                                  .build/obj_vessel_base/quantum/action_tapping.o (symbol from plugin)
k_rgb_matrix_center                               .build/obj_vessel_base/quantum/rgb_matrix/rgb_matrix.o (symbol from plugin)
keyboard.c.efa4f88c                               C:\QMK_MSYS\tmp\ccwjgFEz.debug.temp.o
                                                  C:\QMK_MSYS\tmp\ccs2W3Vd.ltrans0.ltrans.o
keyboard_idle                                     .build/obj_vessel_base/protocol/chibios/usb_main.o (symbol from plugin)
keyboard_init                                     .build/obj_vessel_base/quantum/keyboard.o (symbol from plugin)
                                                  .build/obj_vessel_base/quantum/main.o (symbol from plugin)
keyboard_led_state                                .build/obj_vessel_base/protocol/chibios/usb_main.o (symbol from plugin)
keyboard_leds                                     .build/obj_vessel_base/protocol/chibios/usb_main.o (symbol from plugin)
                                                  .build/obj_vessel_base/protocol/chibios/chibios.o (symbol from plugin)
keyboard_post_init_kb                             .build/obj_vessel_base/quantum/keyboard.o (symbol from plugin)
keyboard_post_init_user                           .build/obj_vessel_base/quantum/keymap_introspection.o (symbol from plugin)
keyboard_pre_init_kb                              .build/obj_vessel_base/quantum/keyboard.o (symbol from plugin)
keyboard_pre_init_user                            .build/obj_vessel_base/keyboards/vessel/vessel.o (symbol from plugin)
keyboard_protocol                                 .build/obj_vessel_base/protocol/chibios/usb_main.o (symbol from plugin)
                                                  .build/obj_vessel_base/protocol/report.o (symbol from plugin)
                                                  .build/obj_vessel_base/quantum/action_util.o (symbol from plugin)
keyboard_report                                   .build/obj_vessel_base/quantum/action_util.o (symbol from plugin)
                                                  .build/obj_vessel_base/protocol/report.o (symbol from plugin)
keyboard_setup                                    .build/obj_vessel_base/quantum/keyboard.o (symbol from plugin)
                                                  .build/obj_vessel_base/quantum/main.o (symbol from plugin)
keyboard_task                                     .build/obj_vessel_base/quantum/keyboard.o (symbol from plugin)
                                                  .build/obj_vessel_base/quantum/main.o (symbol from plugin)
keycode_at_encodermap_location                    .build/obj_vessel_base/quantum/keymap_introspection.o (symbol from plugin)
                                                  .build/obj_vessel_base/quantum/keymap_common.o (symbol from plugin)
keycode_at_encodermap_location_raw                .build/obj_vessel_base/quantum/keymap_introspection.o (symbol from plugin)
keycode_at_keymap_location                        .build/obj_vessel_base/quantum/keymap_introspection.o (symbol from plugin)
                                                  .build/obj_vessel_base/quantum/keymap_common.o (symbol from plugin)
keycode_at_keymap_location_raw                    .build/obj_vessel_base/quantum/keymap_introspection.o (symbol from plugin)
keycode_config                                    .build/obj_vessel_base/quantum/keycode_config.o (symbol from plugin)
                                                  .build/obj_vessel_base/quantum/keymap_common.o (symbol from plugin)
keycode_config.c.8da296ee                         C:\QMK_MSYS\tmp\cci23xsq.debug.temp.o
                                                  C:\QMK_MSYS\tmp\ccs2W3Vd.ltrans0.ltrans.o
keymap_common.c.89c0dbc7                          C:\QMK_MSYS\tmp\ccunYi4Z.debug.temp.o
                                                  C:\QMK_MSYS\tmp\ccs2W3Vd.ltrans0.ltrans.o
keymap_config                                     .build/obj_vessel_base/quantum/keycode_config.o (symbol from plugin)
                                                  .build/obj_vessel_base/protocol/report.o (symbol from plugin)
                                                  .build/obj_vessel_base/quantum/process_keycode/process_magic.o (symbol from plugin)
                                                  .build/obj_vessel_base/quantum/keyboard.o (symbol from plugin)
                                                  .build/obj_vessel_base/quantum/action_util.o (symbol from plugin)
                                                  .build/obj_vessel_base/quantum/keymap_introspection.o (symbol from plugin)
keymap_introspection.c.406518f8                   C:\QMK_MSYS\tmp\cc8jr1VC.debug.temp.o
                                                  C:\QMK_MSYS\tmp\ccs2W3Vd.ltrans0.ltrans.o
keymap_key_to_keycode                             .build/obj_vessel_base/quantum/keymap_common.o (symbol from plugin)
                                                  .build/obj_vessel_base/quantum/quantum.o (symbol from plugin)
keymap_layer_count                                .build/obj_vessel_base/quantum/keymap_introspection.o (symbol from plugin)
keymap_layer_count_raw                            .build/obj_vessel_base/quantum/keymap_introspection.o (symbol from plugin)
keymaps                                           .build/obj_vessel_base/quantum/keymap_introspection.o (symbol from plugin)
last_encoder_activity_elapsed                     .build/obj_vessel_base/quantum/keyboard.o (symbol from plugin)
last_encoder_activity_time                        .build/obj_vessel_base/quantum/keyboard.o (symbol from plugin)
last_encoder_activity_trigger                     .build/obj_vessel_base/quantum/keyboard.o (symbol from plugin)
last_input_activity_elapsed                       .build/obj_vessel_base/quantum/keyboard.o (symbol from plugin)
last_input_activity_time                          .build/obj_vessel_base/quantum/keyboard.o (symbol from plugin)
last_led_activity_elapsed                         .build/obj_vessel_base/quantum/led.o (symbol from plugin)
last_led_activity_time                            .build/obj_vessel_base/quantum/led.o (symbol from plugin)
last_matrix_activity_elapsed                      .build/obj_vessel_base/quantum/keyboard.o (symbol from plugin)
last_matrix_activity_time                         .build/obj_vessel_base/quantum/keyboard.o (symbol from plugin)
last_matrix_activity_trigger                      .build/obj_vessel_base/quantum/keyboard.o (symbol from plugin)
last_pointing_device_activity_elapsed             .build/obj_vessel_base/quantum/keyboard.o (symbol from plugin)
last_pointing_device_activity_time                .build/obj_vessel_base/quantum/keyboard.o (symbol from plugin)
last_pointing_device_activity_trigger             .build/obj_vessel_base/quantum/keyboard.o (symbol from plugin)
last_suspend_state                                .build/obj_vessel_base/protocol/chibios/usb_main.o (symbol from plugin)
layer_and                                         .build/obj_vessel_base/quantum/action_layer.o (symbol from plugin)
                                                  .build/obj_vessel_base/quantum/action.o (symbol from plugin)
layer_clear                                       .build/obj_vessel_base/quantum/action_layer.o (symbol from plugin)
                                                  .build/obj_vessel_base/quantum/action.o (symbol from plugin)
layer_debug                                       .build/obj_vessel_base/quantum/action_layer.o (symbol from plugin)
                                                  .build/obj_vessel_base/quantum/action.o (symbol from plugin)
layer_invert                                      .build/obj_vessel_base/quantum/action_layer.o (symbol from plugin)
                                                  .build/obj_vessel_base/quantum/action.o (symbol from plugin)
layer_move                                        .build/obj_vessel_base/quantum/action_layer.o (symbol from plugin)
                                                  .build/obj_vessel_base/quantum/process_keycode/process_tap_dance.o (symbol from plugin)
                                                  .build/obj_vessel_base/quantum/action.o (symbol from plugin)
layer_off                                         .build/obj_vessel_base/quantum/action_layer.o (symbol from plugin)
                                                  .build/obj_vessel_base/quantum/action.o (symbol from plugin)
layer_on                                          .build/obj_vessel_base/quantum/action_layer.o (symbol from plugin)
                                                  .build/obj_vessel_base/quantum/action.o (symbol from plugin)
layer_or                                          .build/obj_vessel_base/quantum/action_layer.o (symbol from plugin)
                                                  .build/obj_vessel_base/quantum/action.o (symbol from plugin)
layer_state                                       .build/obj_vessel_base/quantum/action_layer.o (symbol from plugin)
                                                  .build/obj_vessel_base/quantum/keyboard.o (symbol from plugin)
layer_state_cmp                                   .build/obj_vessel_base/quantum/action_layer.o (symbol from plugin)
layer_state_is                                    .build/obj_vessel_base/quantum/action_layer.o (symbol from plugin)
layer_state_set                                   .build/obj_vessel_base/quantum/action_layer.o (symbol from plugin)
                                                  .build/obj_vessel_base/quantum/action.o (symbol from plugin)
layer_state_set_kb                                .build/obj_vessel_base/quantum/action_layer.o (symbol from plugin)
                                                  .build/obj_vessel_base/quantum/keyboard.o (symbol from plugin)
layer_state_set_user                              .build/obj_vessel_base/quantum/action_layer.o (symbol from plugin)
layer_switch_get_action                           .build/obj_vessel_base/quantum/action_layer.o (symbol from plugin)
                                                  .build/obj_vessel_base/quantum/action_tapping.o (symbol from plugin)
                                                  .build/obj_vessel_base/quantum/action.o (symbol from plugin)
layer_switch_get_layer                            .build/obj_vessel_base/quantum/action_layer.o (symbol from plugin)
                                                  .build/obj_vessel_base/quantum/quantum.o (symbol from plugin)
layer_xor                                         .build/obj_vessel_base/quantum/action_layer.o (symbol from plugin)
                                                  .build/obj_vessel_base/quantum/action.o (symbol from plugin)
led.c.5d11b9d2                                    C:\QMK_MSYS\tmp\ccU9JcqW.debug.temp.o
                                                  C:\QMK_MSYS\tmp\ccs2W3Vd.ltrans0.ltrans.o
led_init_ports                                    .build/obj_vessel_base/quantum/led.o (symbol from plugin)
                                                  .build/obj_vessel_base/quantum/keyboard.o (symbol from plugin)
led_set                                           .build/obj_vessel_base/quantum/led.o (symbol from plugin)
                                                  .build/obj_vessel_base/quantum/action.o (symbol from plugin)
led_set_user                                      .build/obj_vessel_base/quantum/led.o (symbol from plugin)
led_suspend                                       .build/obj_vessel_base/quantum/led.o (symbol from plugin)
                                                  .build/obj_vessel_base/quantum/quantum.o (symbol from plugin)
led_tables.c.a9da1920                             C:\QMK_MSYS\tmp\cckRVoYd.debug.temp.o
                                                  C:\QMK_MSYS\tmp\ccs2W3Vd.ltrans0.ltrans.o
led_task                                          .build/obj_vessel_base/quantum/led.o (symbol from plugin)
                                                  .build/obj_vessel_base/quantum/keyboard.o (symbol from plugin)
led_update_kb                                     .build/obj_vessel_base/quantum/led.o (symbol from plugin)
led_update_ports                                  .build/obj_vessel_base/quantum/led.o (symbol from plugin)
led_update_user                                   .build/obj_vessel_base/quantum/led.o (symbol from plugin)
led_wakeup                                        .build/obj_vessel_base/quantum/led.o (symbol from plugin)
                                                  .build/obj_vessel_base/quantum/quantum.o (symbol from plugin)
lib8tion.c.04f38c89                               C:\QMK_MSYS\tmp\ccqbgfYH.debug.temp.o
                                                  C:\QMK_MSYS\tmp\ccs2W3Vd.ltrans0.ltrans.o
main                                              C:\QMK_MSYS\tmp\ccs2W3Vd.ltrans0.ltrans.o
                                                  .build/obj_vessel_base/quantum/main.o (symbol from plugin)
                                                  .build/obj_vessel_base/./lib/chibios/os/common/startup/ARMCMx/compilers/GCC/crt0_v7m.o
main.c.8f645a0d                                   C:\QMK_MSYS\tmp\ccsbw1pR.debug.temp.o
                                                  C:\QMK_MSYS\tmp\ccs2W3Vd.ltrans0.ltrans.o
malloc                                            C:/QMK_MSYS/mingw64/bin/../lib/gcc/arm-none-eabi/13.3.0/../../../../arm-none-eabi/lib/thumb/v7e-m+fp/hard\libg_nano.a(libc_a-malloc.o)
                                                  C:\QMK_MSYS\tmp\ccs2W3Vd.ltrans0.ltrans.o
                                                  C:/QMK_MSYS/mingw64/bin/../lib/gcc/arm-none-eabi/13.3.0/../../../../arm-none-eabi/lib/thumb/v7e-m+fp/hard\libg_nano.a(libc_a-rand.o)
matrix                                            .build/obj_vessel_base/quantum/matrix_common.o (symbol from plugin)
                                                  .build/obj_vessel_base/quantum/matrix.o (symbol from plugin)
matrix.c.5d9143b2                                 C:\QMK_MSYS\tmp\ccmAD3C0.debug.temp.o
                                                  C:\QMK_MSYS\tmp\ccs2W3Vd.ltrans0.ltrans.o
matrix_can_read                                   .build/obj_vessel_base/quantum/keyboard.o (symbol from plugin)
matrix_cols                                       .build/obj_vessel_base/quantum/matrix_common.o (symbol from plugin)
matrix_common.c.ce4aeaaf                          C:\QMK_MSYS\tmp\cco2DIJz.debug.temp.o
                                                  C:\QMK_MSYS\tmp\ccs2W3Vd.ltrans0.ltrans.o
matrix_get_row                                    .build/obj_vessel_base/quantum/matrix_common.o (symbol from plugin)
                                                  .build/obj_vessel_base/platforms/suspend.o (symbol from plugin)
                                                  .build/obj_vessel_base/quantum/bootmagic/bootmagic.o (symbol from plugin)
                                                  .build/obj_vessel_base/quantum/keyboard.o (symbol from plugin)
matrix_init                                       .build/obj_vessel_base/quantum/matrix.o (symbol from plugin)
                                                  .build/obj_vessel_base/quantum/matrix_common.o (symbol from plugin)
                                                  .build/obj_vessel_base/quantum/keyboard.o (symbol from plugin)
matrix_init_custom                                .build/obj_vessel_base/quantum/matrix_common.o (symbol from plugin)
matrix_init_kb                                    .build/obj_vessel_base/quantum/matrix_common.o (symbol from plugin)
                                                  .build/obj_vessel_base/quantum/matrix.o (symbol from plugin)
matrix_init_pins                                  .build/obj_vessel_base/quantum/matrix.o (symbol from plugin)
matrix_init_user                                  .build/obj_vessel_base/quantum/matrix_common.o (symbol from plugin)
matrix_io_delay                                   .build/obj_vessel_base/quantum/matrix_common.o (symbol from plugin)
matrix_is_on                                      .build/obj_vessel_base/quantum/matrix_common.o (symbol from plugin)
matrix_output_select_delay                        .build/obj_vessel_base/quantum/matrix_common.o (symbol from plugin)
                                                  .build/obj_vessel_base/quantum/matrix.o (symbol from plugin)
matrix_output_unselect_delay                      .build/obj_vessel_base/quantum/matrix_common.o (symbol from plugin)
                                                  .build/obj_vessel_base/quantum/matrix.o (symbol from plugin)
matrix_power_down                                 .build/obj_vessel_base/platforms/suspend.o (symbol from plugin)
matrix_power_up                                   .build/obj_vessel_base/platforms/suspend.o (symbol from plugin)
matrix_print                                      .build/obj_vessel_base/quantum/matrix_common.o (symbol from plugin)
                                                  .build/obj_vessel_base/quantum/keyboard.o (symbol from plugin)
matrix_read_cols_on_row                           .build/obj_vessel_base/quantum/matrix.o (symbol from plugin)
matrix_rows                                       .build/obj_vessel_base/quantum/matrix_common.o (symbol from plugin)
matrix_scan                                       .build/obj_vessel_base/quantum/matrix.o (symbol from plugin)
                                                  .build/obj_vessel_base/quantum/matrix_common.o (symbol from plugin)
                                                  .build/obj_vessel_base/platforms/suspend.o (symbol from plugin)
                                                  .build/obj_vessel_base/quantum/bootmagic/bootmagic.o (symbol from plugin)
                                                  .build/obj_vessel_base/quantum/keyboard.o (symbol from plugin)
matrix_scan_custom                                .build/obj_vessel_base/quantum/matrix_common.o (symbol from plugin)
matrix_scan_kb                                    .build/obj_vessel_base/quantum/matrix_common.o (symbol from plugin)
                                                  .build/obj_vessel_base/quantum/matrix.o (symbol from plugin)
matrix_scan_user                                  .build/obj_vessel_base/quantum/keymap_introspection.o (symbol from plugin)
matrix_setup                                      .build/obj_vessel_base/quantum/keyboard.o (symbol from plugin)
mcu_reset                                         .build/obj_vessel_base/platforms/chibios/bootloaders/stm32_dfu.o (symbol from plugin)
                                                  .build/obj_vessel_base/quantum/quantum.o (symbol from plugin)
memchr                                            C:/QMK_MSYS/mingw64/bin/../lib/gcc/arm-none-eabi/13.3.0/../../../../arm-none-eabi/lib/thumb/v7e-m+fp/hard\libg_nano.a(libc_a-memchr.o)
                                                  C:/QMK_MSYS/mingw64/bin/../lib/gcc/arm-none-eabi/13.3.0/../../../../arm-none-eabi/lib/thumb/v7e-m+fp/hard\libg_nano.a(libc_a-fvwrite.o)
                                                  C:/QMK_MSYS/mingw64/bin/../lib/gcc/arm-none-eabi/13.3.0/../../../../arm-none-eabi/lib/thumb/v7e-m+fp/hard\libg_nano.a(libc_a-nano-vfprintf_i.o)
                                                  C:/QMK_MSYS/mingw64/bin/../lib/gcc/arm-none-eabi/13.3.0/../../../../arm-none-eabi/lib/thumb/v7e-m+fp/hard\libg_nano.a(libc_a-nano-vfprintf.o)
memcmp                                            C:/QMK_MSYS/mingw64/bin/../lib/gcc/arm-none-eabi/13.3.0/../../../../arm-none-eabi/lib/thumb/v7e-m+fp/hard\libg_nano.a(libc_a-memcmp.o)
                                                  C:\QMK_MSYS\tmp\ccs2W3Vd.ltrans0.ltrans.o
memcpy                                            C:/QMK_MSYS/mingw64/bin/../lib/gcc/arm-none-eabi/13.3.0/../../../../arm-none-eabi/lib/thumb/v7e-m+fp/hard\libg_nano.a(libc_a-memcpy.o)
                                                  C:\QMK_MSYS\tmp\ccs2W3Vd.ltrans0.ltrans.o
                                                  C:/QMK_MSYS/mingw64/bin/../lib/gcc/arm-none-eabi/13.3.0/../../../../arm-none-eabi/lib/thumb/v7e-m+fp/hard\libg_nano.a(libc_a-reallocr.o)
                                                  C:/QMK_MSYS/mingw64/bin/../lib/gcc/arm-none-eabi/13.3.0/../../../../arm-none-eabi/lib/thumb/v7e-m+fp/hard\libg_nano.a(libc_a-fvwrite.o)
memmove                                           C:/QMK_MSYS/mingw64/bin/../lib/gcc/arm-none-eabi/13.3.0/../../../../arm-none-eabi/lib/thumb/v7e-m+fp/hard\libg_nano.a(libc_a-memmove.o)
                                                  C:\QMK_MSYS\tmp\ccs2W3Vd.ltrans0.ltrans.o
                                                  C:/QMK_MSYS/mingw64/bin/../lib/gcc/arm-none-eabi/13.3.0/../../../../arm-none-eabi/lib/thumb/v7e-m+fp/hard\libg_nano.a(libc_a-fvwrite.o)
memset                                            C:/QMK_MSYS/mingw64/bin/../lib/gcc/arm-none-eabi/13.3.0/../../../../arm-none-eabi/lib/thumb/v7e-m+fp/hard\libg_nano.a(libc_a-memset.o)
                                                  C:\QMK_MSYS\tmp\ccs2W3Vd.ltrans0.ltrans.o
                                                  C:/QMK_MSYS/mingw64/bin/../lib/gcc/arm-none-eabi/13.3.0/../../../../arm-none-eabi/lib/thumb/v7e-m+fp/hard\libg_nano.a(libc_a-findfp.o)
memstreams.c.f23c5d46                             C:\QMK_MSYS\tmp\ccms8DC3.debug.temp.o
mod_config                                        .build/obj_vessel_base/quantum/keycode_config.o (symbol from plugin)
                                                  .build/obj_vessel_base/quantum/keymap_common.o (symbol from plugin)
msObjectInit                                      .build/obj_vessel_base/lib/chibios/os/hal/lib/streams/memstreams.o (symbol from plugin)
                                                  .build/obj_vessel_base/lib/chibios/os/hal/lib/streams/chscanf.o (symbol from plugin)
                                                  .build/obj_vessel_base/lib/chibios/os/hal/lib/streams/chprintf.o (symbol from plugin)
nkro_report                                       .build/obj_vessel_base/quantum/action_util.o (symbol from plugin)
                                                  .build/obj_vessel_base/protocol/report.o (symbol from plugin)
notify_usb_device_state_change_kb                 .build/obj_vessel_base/protocol/usb_device_state.o (symbol from plugin)
notify_usb_device_state_change_user               .build/obj_vessel_base/protocol/usb_device_state.o (symbol from plugin)
nullObjectInit                                    .build/obj_vessel_base/lib/chibios/os/hal/lib/streams/nullstreams.o (symbol from plugin)
nullstreams.c.0142d9ef                            C:\QMK_MSYS\tmp\cce1vWUE.debug.temp.o
nvic.c.1f062d86                                   C:\QMK_MSYS\tmp\ccCHaup1.debug.temp.o
                                                  C:\QMK_MSYS\tmp\ccs2W3Vd.ltrans0.ltrans.o
nvicClearPending                                  .build/obj_vessel_base/lib/chibios/os/hal/ports/common/ARMCMx/nvic.o (symbol from plugin)
nvicDisableVector                                 .build/obj_vessel_base/lib/chibios/os/hal/ports/common/ARMCMx/nvic.o (symbol from plugin)
                                                  .build/obj_vessel_base/lib/chibios/os/hal/ports/STM32/LLD/OTGv1/hal_usb_lld.o (symbol from plugin)
                                                  .build/obj_vessel_base/lib/chibios/os/hal/ports/STM32/LLD/I2Cv1/hal_i2c_lld.o (symbol from plugin)
                                                  .build/obj_vessel_base/lib/chibios/os/hal/ports/STM32/LLD/DMAv2/stm32_dma.o (symbol from plugin)
                                                  .build/obj_vessel_base/lib/chibios/os/hal/ports/STM32/STM32F4xx/stm32_isr.o (symbol from plugin)
nvicEnableVector                                  .build/obj_vessel_base/lib/chibios/os/hal/ports/common/ARMCMx/nvic.o (symbol from plugin)
                                                  .build/obj_vessel_base/lib/chibios/os/hal/ports/STM32/LLD/OTGv1/hal_usb_lld.o (symbol from plugin)
                                                  .build/obj_vessel_base/lib/chibios/os/hal/ports/STM32/LLD/I2Cv1/hal_i2c_lld.o (symbol from plugin)
                                                  .build/obj_vessel_base/lib/chibios/os/hal/ports/STM32/LLD/DMAv2/stm32_dma.o (symbol from plugin)
                                                  .build/obj_vessel_base/lib/chibios/os/hal/ports/STM32/STM32F4xx/stm32_isr.o (symbol from plugin)
nvicInit                                          .build/obj_vessel_base/lib/chibios/os/hal/ports/common/ARMCMx/nvic.o (symbol from plugin)
nvicSetPending                                    .build/obj_vessel_base/lib/chibios/os/hal/ports/common/ARMCMx/nvic.o (symbol from plugin)
nvicSetSystemHandlerPriority                      .build/obj_vessel_base/lib/chibios/os/hal/ports/common/ARMCMx/nvic.o (symbol from plugin)
obqFlush                                          .build/obj_vessel_base/lib/chibios/os/hal/src/hal_buffers.o (symbol from plugin)
                                                  .build/obj_vessel_base/protocol/chibios/usb_driver.o (symbol from plugin)
obqGetEmptyBufferTimeout                          .build/obj_vessel_base/lib/chibios/os/hal/src/hal_buffers.o (symbol from plugin)
obqGetEmptyBufferTimeoutS                         .build/obj_vessel_base/lib/chibios/os/hal/src/hal_buffers.o (symbol from plugin)
obqGetFullBufferI                                 .build/obj_vessel_base/lib/chibios/os/hal/src/hal_buffers.o (symbol from plugin)
                                                  .build/obj_vessel_base/protocol/chibios/usb_driver.o (symbol from plugin)
obqObjectInit                                     .build/obj_vessel_base/lib/chibios/os/hal/src/hal_buffers.o (symbol from plugin)
                                                  .build/obj_vessel_base/protocol/chibios/usb_driver.o (symbol from plugin)
obqPostFullBuffer                                 .build/obj_vessel_base/lib/chibios/os/hal/src/hal_buffers.o (symbol from plugin)
obqPostFullBufferS                                .build/obj_vessel_base/lib/chibios/os/hal/src/hal_buffers.o (symbol from plugin)
obqPutTimeout                                     .build/obj_vessel_base/lib/chibios/os/hal/src/hal_buffers.o (symbol from plugin)
                                                  .build/obj_vessel_base/protocol/chibios/usb_driver.o (symbol from plugin)
obqReleaseEmptyBufferI                            .build/obj_vessel_base/lib/chibios/os/hal/src/hal_buffers.o (symbol from plugin)
                                                  .build/obj_vessel_base/protocol/chibios/usb_driver.o (symbol from plugin)
obqResetI                                         .build/obj_vessel_base/lib/chibios/os/hal/src/hal_buffers.o (symbol from plugin)
                                                  .build/obj_vessel_base/protocol/chibios/usb_driver.o (symbol from plugin)
obqTryFlushI                                      .build/obj_vessel_base/lib/chibios/os/hal/src/hal_buffers.o (symbol from plugin)
obqWriteTimeout                                   .build/obj_vessel_base/lib/chibios/os/hal/src/hal_buffers.o (symbol from plugin)
                                                  .build/obj_vessel_base/protocol/chibios/usb_driver.o (symbol from plugin)
oled_active                                       .build/obj_vessel_base/oled_driver.o (symbol from plugin)
oled_advance_char                                 .build/obj_vessel_base/oled_driver.o (symbol from plugin)
oled_advance_page                                 .build/obj_vessel_base/oled_driver.o (symbol from plugin)
oled_brightness                                   .build/obj_vessel_base/oled_driver.o (symbol from plugin)
oled_buffer                                       .build/obj_vessel_base/oled_driver.o (symbol from plugin)
oled_clear                                        .build/obj_vessel_base/oled_driver.o (symbol from plugin)
                                                  .build/obj_vessel_base/quantum/keymap_introspection.o (symbol from plugin)
oled_cursor                                       .build/obj_vessel_base/oled_driver.o (symbol from plugin)
oled_dirty                                        .build/obj_vessel_base/oled_driver.o (symbol from plugin)
oled_driver.c.5c67909b                            C:\QMK_MSYS\tmp\cciESETb.debug.temp.o
                                                  C:\QMK_MSYS\tmp\ccs2W3Vd.ltrans0.ltrans.o
oled_driver_init                                  .build/obj_vessel_base/oled_driver.o (symbol from plugin)
oled_get_brightness                               .build/obj_vessel_base/oled_driver.o (symbol from plugin)
oled_init                                         .build/obj_vessel_base/oled_driver.o (symbol from plugin)
                                                  .build/obj_vessel_base/quantum/keyboard.o (symbol from plugin)
                                                  .build/obj_vessel_base/quantum/keymap_introspection.o (symbol from plugin)
oled_init_kb                                      .build/obj_vessel_base/oled_driver.o (symbol from plugin)
oled_init_user                                    .build/obj_vessel_base/oled_driver.o (symbol from plugin)
oled_initialized                                  .build/obj_vessel_base/oled_driver.o (symbol from plugin)
oled_invert                                       .build/obj_vessel_base/oled_driver.o (symbol from plugin)
oled_inverted                                     .build/obj_vessel_base/oled_driver.o (symbol from plugin)
oled_max_chars                                    .build/obj_vessel_base/oled_driver.o (symbol from plugin)
oled_max_lines                                    .build/obj_vessel_base/oled_driver.o (symbol from plugin)
oled_off                                          .build/obj_vessel_base/oled_driver.o (symbol from plugin)
                                                  .build/obj_vessel_base/quantum/quantum.o (symbol from plugin)
                                                  .build/obj_vessel_base/quantum/keymap_introspection.o (symbol from plugin)
oled_on                                           .build/obj_vessel_base/oled_driver.o (symbol from plugin)
                                                  .build/obj_vessel_base/quantum/keyboard.o (symbol from plugin)
                                                  .build/obj_vessel_base/quantum/keymap_introspection.o (symbol from plugin)
oled_pan                                          .build/obj_vessel_base/oled_driver.o (symbol from plugin)
oled_read_raw                                     .build/obj_vessel_base/oled_driver.o (symbol from plugin)
oled_render_dirty                                 .build/obj_vessel_base/oled_driver.o (symbol from plugin)
oled_rotation                                     .build/obj_vessel_base/oled_driver.o (symbol from plugin)
oled_rotation_width                               .build/obj_vessel_base/oled_driver.o (symbol from plugin)
oled_scroll_end                                   .build/obj_vessel_base/oled_driver.o (symbol from plugin)
oled_scroll_left                                  .build/obj_vessel_base/oled_driver.o (symbol from plugin)
oled_scroll_off                                   .build/obj_vessel_base/oled_driver.o (symbol from plugin)
oled_scroll_right                                 .build/obj_vessel_base/oled_driver.o (symbol from plugin)
oled_scroll_set_area                              .build/obj_vessel_base/oled_driver.o (symbol from plugin)
oled_scroll_set_speed                             .build/obj_vessel_base/oled_driver.o (symbol from plugin)
oled_scroll_speed                                 .build/obj_vessel_base/oled_driver.o (symbol from plugin)
oled_scroll_start                                 .build/obj_vessel_base/oled_driver.o (symbol from plugin)
oled_scrolling                                    .build/obj_vessel_base/oled_driver.o (symbol from plugin)
oled_send_cmd                                     .build/obj_vessel_base/oled_driver.o (symbol from plugin)
oled_send_cmd_P                                   .build/obj_vessel_base/oled_driver.o (symbol from plugin)
oled_send_data                                    .build/obj_vessel_base/oled_driver.o (symbol from plugin)
oled_set_brightness                               .build/obj_vessel_base/oled_driver.o (symbol from plugin)
oled_set_cursor                                   .build/obj_vessel_base/oled_driver.o (symbol from plugin)
oled_task                                         .build/obj_vessel_base/oled_driver.o (symbol from plugin)
                                                  .build/obj_vessel_base/quantum/keyboard.o (symbol from plugin)
oled_task_kb                                      .build/obj_vessel_base/oled_driver.o (symbol from plugin)
oled_task_user                                    .build/obj_vessel_base/quantum/keymap_introspection.o (symbol from plugin)
oled_timeout                                      .build/obj_vessel_base/oled_driver.o (symbol from plugin)
oled_write                                        .build/obj_vessel_base/oled_driver.o (symbol from plugin)
oled_write_char                                   .build/obj_vessel_base/oled_driver.o (symbol from plugin)
oled_write_ln                                     .build/obj_vessel_base/oled_driver.o (symbol from plugin)
oled_write_pixel                                  .build/obj_vessel_base/oled_driver.o (symbol from plugin)
oled_write_raw                                    .build/obj_vessel_base/oled_driver.o (symbol from plugin)
                                                  .build/obj_vessel_base/quantum/keymap_introspection.o (symbol from plugin)
oled_write_raw_byte                               .build/obj_vessel_base/oled_driver.o (symbol from plugin)
oneshot_layer_changed_kb                          .build/obj_vessel_base/quantum/action_util.o (symbol from plugin)
oneshot_layer_changed_user                        .build/obj_vessel_base/quantum/action_util.o (symbol from plugin)
oneshot_locked_mods_changed_kb                    .build/obj_vessel_base/quantum/action_util.o (symbol from plugin)
oneshot_locked_mods_changed_user                  .build/obj_vessel_base/quantum/action_util.o (symbol from plugin)
oneshot_mods_changed_kb                           .build/obj_vessel_base/quantum/action_util.o (symbol from plugin)
oneshot_mods_changed_user                         .build/obj_vessel_base/quantum/action_util.o (symbol from plugin)
oqGetI                                            .build/obj_vessel_base/lib/chibios/os/hal/src/hal_queues.o (symbol from plugin)
oqObjectInit                                      .build/obj_vessel_base/lib/chibios/os/hal/src/hal_queues.o (symbol from plugin)
oqPutI                                            .build/obj_vessel_base/lib/chibios/os/hal/src/hal_queues.o (symbol from plugin)
oqPutTimeout                                      .build/obj_vessel_base/lib/chibios/os/hal/src/hal_queues.o (symbol from plugin)
oqResetI                                          .build/obj_vessel_base/lib/chibios/os/hal/src/hal_queues.o (symbol from plugin)
oqWriteI                                          .build/obj_vessel_base/lib/chibios/os/hal/src/hal_queues.o (symbol from plugin)
oqWriteTimeout                                    .build/obj_vessel_base/lib/chibios/os/hal/src/hal_queues.o (symbol from plugin)
osal.c.c613c9b1                                   C:\QMK_MSYS\tmp\ccGWwOQv.debug.temp.o
palReadBus                                        .build/obj_vessel_base/lib/chibios/os/hal/src/hal_pal.o (symbol from plugin)
palSetBusMode                                     .build/obj_vessel_base/lib/chibios/os/hal/src/hal_pal.o (symbol from plugin)
palWriteBus                                       .build/obj_vessel_base/lib/chibios/os/hal/src/hal_pal.o (symbol from plugin)
peek_matrix                                       .build/obj_vessel_base/quantum/matrix_common.o (symbol from plugin)
perform_space_cadet                               .build/obj_vessel_base/quantum/process_keycode/process_space_cadet.o (symbol from plugin)
platform.c.0b00a6f7                               C:\QMK_MSYS\tmp\ccwnQKdL.debug.temp.o
                                                  C:\QMK_MSYS\tmp\ccs2W3Vd.ltrans0.ltrans.o
platform_setup                                    .build/obj_vessel_base/platforms/chibios/platform.o (symbol from plugin)
                                                  .build/obj_vessel_base/quantum/main.o (symbol from plugin)
port_init                                         .build/obj_vessel_base/lib/chibios/os/common/ports/ARMv7-M/chcore.o (symbol from plugin)
                                                  .build/obj_vessel_base/lib/chibios/os/rt/src/chinstances.o (symbol from plugin)
post_process_record_kb                            .build/obj_vessel_base/quantum/quantum.o (symbol from plugin)
post_process_record_quantum                       .build/obj_vessel_base/quantum/quantum.o (symbol from plugin)
post_process_record_user                          .build/obj_vessel_base/quantum/quantum.o (symbol from plugin)
pre_process_record_kb                             .build/obj_vessel_base/quantum/quantum.o (symbol from plugin)
pre_process_record_quantum                        .build/obj_vessel_base/quantum/quantum.o (symbol from plugin)
                                                  .build/obj_vessel_base/quantum/action.o (symbol from plugin)
pre_process_record_user                           .build/obj_vessel_base/quantum/quantum.o (symbol from plugin)
preprocess_tap_dance                              .build/obj_vessel_base/quantum/process_keycode/process_tap_dance.o (symbol from plugin)
                                                  .build/obj_vessel_base/quantum/quantum.o (symbol from plugin)
print.c.21c740f7                                  C:\QMK_MSYS\tmp\ccWeMX28.debug.temp.o
                                                  C:\QMK_MSYS\tmp\ccs2W3Vd.ltrans0.ltrans.o
print_set_sendchar                                .build/obj_vessel_base/quantum/logging/print.o (symbol from plugin)
                                                  .build/obj_vessel_base/quantum/keyboard.o (symbol from plugin)
printf                                            .build/obj_vessel_base/printf.o (symbol from plugin)
printf.c.c100e2c5                                 C:\QMK_MSYS\tmp\cc6u1jfh.debug.temp.o
                                                  C:\QMK_MSYS\tmp\ccs2W3Vd.ltrans0.ltrans.o
process_action                                    .build/obj_vessel_base/quantum/action.o (symbol from plugin)
process_action_kb                                 .build/obj_vessel_base/quantum/quantum.o (symbol from plugin)
process_grave_esc                                 .build/obj_vessel_base/quantum/process_keycode/process_grave_esc.o (symbol from plugin)
                                                  .build/obj_vessel_base/quantum/quantum.o (symbol from plugin)
process_grave_esc.c.b704f588                      C:\QMK_MSYS\tmp\ccoCtGLC.debug.temp.o
                                                  C:\QMK_MSYS\tmp\ccs2W3Vd.ltrans0.ltrans.o
process_magic                                     .build/obj_vessel_base/quantum/process_keycode/process_magic.o (symbol from plugin)
                                                  .build/obj_vessel_base/quantum/quantum.o (symbol from plugin)
process_magic.c.50a679e7                          C:\QMK_MSYS\tmp\ccQpxRe7.debug.temp.o
                                                  C:\QMK_MSYS\tmp\ccs2W3Vd.ltrans0.ltrans.o
process_programmable_button                       .build/obj_vessel_base/quantum/process_keycode/process_programmable_button.o (symbol from plugin)
                                                  .build/obj_vessel_base/quantum/quantum.o (symbol from plugin)
process_programmable_button.c.9742247a            C:\QMK_MSYS\tmp\ccMU9izB.debug.temp.o
                                                  C:\QMK_MSYS\tmp\ccs2W3Vd.ltrans0.ltrans.o
process_record                                    .build/obj_vessel_base/quantum/action.o (symbol from plugin)
                                                  .build/obj_vessel_base/quantum/action_tapping.o (symbol from plugin)
process_record_handler                            .build/obj_vessel_base/quantum/action.o (symbol from plugin)
process_record_kb                                 .build/obj_vessel_base/quantum/quantum.o (symbol from plugin)
process_record_nocache                            .build/obj_vessel_base/quantum/action.o (symbol from plugin)
process_record_quantum                            .build/obj_vessel_base/quantum/quantum.o (symbol from plugin)
process_record_tap_hint                           .build/obj_vessel_base/quantum/action.o (symbol from plugin)
                                                  .build/obj_vessel_base/quantum/action_tapping.o (symbol from plugin)
process_record_user                               .build/obj_vessel_base/quantum/keymap_introspection.o (symbol from plugin)
process_rgb                                       .build/obj_vessel_base/quantum/process_keycode/process_rgb.o (symbol from plugin)
                                                  .build/obj_vessel_base/quantum/quantum.o (symbol from plugin)
process_rgb.c.7a0f7a72                            C:\QMK_MSYS\tmp\cce79oHN.debug.temp.o
                                                  C:\QMK_MSYS\tmp\ccs2W3Vd.ltrans0.ltrans.o
process_space_cadet                               .build/obj_vessel_base/quantum/process_keycode/process_space_cadet.o (symbol from plugin)
                                                  .build/obj_vessel_base/quantum/quantum.o (symbol from plugin)
process_space_cadet.c.8168e018                    C:\QMK_MSYS\tmp\ccgPjOV1.debug.temp.o
                                                  C:\QMK_MSYS\tmp\ccs2W3Vd.ltrans0.ltrans.o
process_tap_dance                                 .build/obj_vessel_base/quantum/process_keycode/process_tap_dance.o (symbol from plugin)
                                                  .build/obj_vessel_base/quantum/quantum.o (symbol from plugin)
process_tap_dance.c.aae89122                      C:\QMK_MSYS\tmp\ccwAvutv.debug.temp.o
                                                  C:\QMK_MSYS\tmp\ccs2W3Vd.ltrans0.ltrans.o
programmable_button.c.c63705d9                    C:\QMK_MSYS\tmp\ccO4Lu04.debug.temp.o
                                                  C:\QMK_MSYS\tmp\ccs2W3Vd.ltrans0.ltrans.o
programmable_button_add                           .build/obj_vessel_base/quantum/programmable_button.o (symbol from plugin)
programmable_button_clear                         .build/obj_vessel_base/quantum/programmable_button.o (symbol from plugin)
                                                  .build/obj_vessel_base/platforms/chibios/suspend.o (symbol from plugin)
                                                  .build/obj_vessel_base/quantum/action.o (symbol from plugin)
programmable_button_flush                         .build/obj_vessel_base/quantum/programmable_button.o (symbol from plugin)
programmable_button_get_report                    .build/obj_vessel_base/quantum/programmable_button.o (symbol from plugin)
programmable_button_is_on                         .build/obj_vessel_base/quantum/programmable_button.o (symbol from plugin)
programmable_button_register                      .build/obj_vessel_base/quantum/programmable_button.o (symbol from plugin)
                                                  .build/obj_vessel_base/quantum/process_keycode/process_programmable_button.o (symbol from plugin)
programmable_button_remove                        .build/obj_vessel_base/quantum/programmable_button.o (symbol from plugin)
programmable_button_set_report                    .build/obj_vessel_base/quantum/programmable_button.o (symbol from plugin)
programmable_button_unregister                    .build/obj_vessel_base/quantum/programmable_button.o (symbol from plugin)
                                                  .build/obj_vessel_base/quantum/process_keycode/process_programmable_button.o (symbol from plugin)
protocol_keyboard_task                            .build/obj_vessel_base/quantum/main.o (symbol from plugin)
protocol_post_init                                .build/obj_vessel_base/protocol/chibios/chibios.o (symbol from plugin)
                                                  .build/obj_vessel_base/quantum/main.o (symbol from plugin)
protocol_post_task                                .build/obj_vessel_base/protocol/chibios/chibios.o (symbol from plugin)
                                                  .build/obj_vessel_base/quantum/main.o (symbol from plugin)
protocol_pre_init                                 .build/obj_vessel_base/protocol/chibios/chibios.o (symbol from plugin)
                                                  .build/obj_vessel_base/quantum/main.o (symbol from plugin)
protocol_pre_task                                 .build/obj_vessel_base/protocol/chibios/chibios.o (symbol from plugin)
                                                  .build/obj_vessel_base/quantum/main.o (symbol from plugin)
protocol_setup                                    .build/obj_vessel_base/protocol/chibios/chibios.o (symbol from plugin)
                                                  .build/obj_vessel_base/quantum/main.o (symbol from plugin)
putchar_                                          .build/obj_vessel_base/quantum/logging/print.o (symbol from plugin)
                                                  .build/obj_vessel_base/printf.o (symbol from plugin)
quantum.c.dc0d713f                                C:\QMK_MSYS\tmp\ccO4b5Y3.debug.temp.o
                                                  C:\QMK_MSYS\tmp\ccs2W3Vd.ltrans0.ltrans.o
quantum_init                                      .build/obj_vessel_base/quantum/keyboard.o (symbol from plugin)
quantum_task                                      .build/obj_vessel_base/quantum/keyboard.o (symbol from plugin)
raise                                             C:/QMK_MSYS/mingw64/bin/../lib/gcc/arm-none-eabi/13.3.0/../../../../arm-none-eabi/lib/thumb/v7e-m+fp/hard\libg_nano.a(libc_a-signal.o)
                                                  C:/QMK_MSYS/mingw64/bin/../lib/gcc/arm-none-eabi/13.3.0/../../../../arm-none-eabi/lib/thumb/v7e-m+fp/hard\libg_nano.a(libc_a-abort.o)
rand                                              C:/QMK_MSYS/mingw64/bin/../lib/gcc/arm-none-eabi/13.3.0/../../../../arm-none-eabi/lib/thumb/v7e-m+fp/hard\libg_nano.a(libc_a-rand.o)
                                                  C:\QMK_MSYS\tmp\ccs2W3Vd.ltrans0.ltrans.o
                                                  .build/obj_vessel_base/quantum/send_string/send_string.o (symbol from plugin)
                                                  .build/obj_vessel_base/quantum/rgb_matrix/rgb_matrix.o (symbol from plugin)
rand16seed                                        .build/obj_vessel_base/lib/lib8tion/lib8tion.o (symbol from plugin)
                                                  .build/obj_vessel_base/quantum/rgb_matrix/rgb_matrix.o (symbol from plugin)
raw_matrix                                        .build/obj_vessel_base/quantum/matrix_common.o (symbol from plugin)
                                                  .build/obj_vessel_base/quantum/matrix.o (symbol from plugin)
read_source_layers_cache                          .build/obj_vessel_base/quantum/action_layer.o (symbol from plugin)
                                                  .build/obj_vessel_base/quantum/quantum.o (symbol from plugin)
read_source_layers_cache_impl                     .build/obj_vessel_base/quantum/action_layer.o (symbol from plugin)
register_code                                     .build/obj_vessel_base/quantum/action.o (symbol from plugin)
                                                  .build/obj_vessel_base/quantum/send_string/send_string.o (symbol from plugin)
                                                  .build/obj_vessel_base/quantum/quantum.o (symbol from plugin)
                                                  .build/obj_vessel_base/quantum/keymap_introspection.o (symbol from plugin)
register_code16                                   .build/obj_vessel_base/quantum/quantum.o (symbol from plugin)
                                                  .build/obj_vessel_base/quantum/process_keycode/process_tap_dance.o (symbol from plugin)
register_mods                                     .build/obj_vessel_base/quantum/action.o (symbol from plugin)
                                                  .build/obj_vessel_base/quantum/process_keycode/process_space_cadet.o (symbol from plugin)
                                                  .build/obj_vessel_base/quantum/quantum.o (symbol from plugin)
register_mouse                                    .build/obj_vessel_base/quantum/action.o (symbol from plugin)
register_weak_mods                                .build/obj_vessel_base/quantum/action.o (symbol from plugin)
                                                  .build/obj_vessel_base/quantum/quantum.o (symbol from plugin)
report.c.03494e62                                 C:\QMK_MSYS\tmp\cccktRCs.debug.temp.o
                                                  C:\QMK_MSYS\tmp\ccs2W3Vd.ltrans0.ltrans.o
reset_keyboard                                    .build/obj_vessel_base/quantum/quantum.o (symbol from plugin)
reset_space_cadet                                 .build/obj_vessel_base/quantum/process_keycode/process_space_cadet.o (symbol from plugin)
reset_tap_dance                                   .build/obj_vessel_base/quantum/process_keycode/process_tap_dance.o (symbol from plugin)
restart_usb_driver                                .build/obj_vessel_base/protocol/chibios/usb_main.o (symbol from plugin)
rgb_matrix.c.05b2d028                             C:\QMK_MSYS\tmp\ccavKcfX.debug.temp.o
                                                  C:\QMK_MSYS\tmp\ccs2W3Vd.ltrans0.ltrans.o
rgb_matrix_config                                 .build/obj_vessel_base/quantum/rgb_matrix/rgb_matrix.o (symbol from plugin)
rgb_matrix_decrease_hue                           .build/obj_vessel_base/quantum/rgb_matrix/rgb_matrix.o (symbol from plugin)
                                                  .build/obj_vessel_base/quantum/process_keycode/process_rgb.o (symbol from plugin)
                                                  .build/obj_vessel_base/quantum/keymap_introspection.o (symbol from plugin)
rgb_matrix_decrease_hue_helper                    .build/obj_vessel_base/quantum/rgb_matrix/rgb_matrix.o (symbol from plugin)
rgb_matrix_decrease_hue_noeeprom                  .build/obj_vessel_base/quantum/rgb_matrix/rgb_matrix.o (symbol from plugin)
rgb_matrix_decrease_sat                           .build/obj_vessel_base/quantum/rgb_matrix/rgb_matrix.o (symbol from plugin)
                                                  .build/obj_vessel_base/quantum/process_keycode/process_rgb.o (symbol from plugin)
                                                  .build/obj_vessel_base/quantum/keymap_introspection.o (symbol from plugin)
rgb_matrix_decrease_sat_helper                    .build/obj_vessel_base/quantum/rgb_matrix/rgb_matrix.o (symbol from plugin)
rgb_matrix_decrease_sat_noeeprom                  .build/obj_vessel_base/quantum/rgb_matrix/rgb_matrix.o (symbol from plugin)
rgb_matrix_decrease_speed                         .build/obj_vessel_base/quantum/rgb_matrix/rgb_matrix.o (symbol from plugin)
                                                  .build/obj_vessel_base/quantum/process_keycode/process_rgb.o (symbol from plugin)
rgb_matrix_decrease_speed_helper                  .build/obj_vessel_base/quantum/rgb_matrix/rgb_matrix.o (symbol from plugin)
rgb_matrix_decrease_speed_noeeprom                .build/obj_vessel_base/quantum/rgb_matrix/rgb_matrix.o (symbol from plugin)
rgb_matrix_decrease_val                           .build/obj_vessel_base/quantum/rgb_matrix/rgb_matrix.o (symbol from plugin)
                                                  .build/obj_vessel_base/quantum/process_keycode/process_rgb.o (symbol from plugin)
rgb_matrix_decrease_val_helper                    .build/obj_vessel_base/quantum/rgb_matrix/rgb_matrix.o (symbol from plugin)
rgb_matrix_decrease_val_noeeprom                  .build/obj_vessel_base/quantum/rgb_matrix/rgb_matrix.o (symbol from plugin)
rgb_matrix_disable                                .build/obj_vessel_base/quantum/rgb_matrix/rgb_matrix.o (symbol from plugin)
                                                  .build/obj_vessel_base/quantum/keymap_introspection.o (symbol from plugin)
rgb_matrix_disable_noeeprom                       .build/obj_vessel_base/quantum/rgb_matrix/rgb_matrix.o (symbol from plugin)
rgb_matrix_driver                                 .build/obj_vessel_base/quantum/rgb_matrix/rgb_matrix_drivers.o (symbol from plugin)
                                                  .build/obj_vessel_base/quantum/rgb_matrix/rgb_matrix.o (symbol from plugin)
rgb_matrix_drivers.c.cb659b07                     C:\QMK_MSYS\tmp\ccGKnDmn.debug.temp.o
                                                  C:\QMK_MSYS\tmp\ccs2W3Vd.ltrans0.ltrans.o
rgb_matrix_enable                                 .build/obj_vessel_base/quantum/rgb_matrix/rgb_matrix.o (symbol from plugin)
                                                  .build/obj_vessel_base/quantum/keymap_introspection.o (symbol from plugin)
rgb_matrix_enable_noeeprom                        .build/obj_vessel_base/quantum/rgb_matrix/rgb_matrix.o (symbol from plugin)
rgb_matrix_get_flags                              .build/obj_vessel_base/quantum/rgb_matrix/rgb_matrix.o (symbol from plugin)
rgb_matrix_get_hsv                                .build/obj_vessel_base/quantum/rgb_matrix/rgb_matrix.o (symbol from plugin)
rgb_matrix_get_hue                                .build/obj_vessel_base/quantum/rgb_matrix/rgb_matrix.o (symbol from plugin)
rgb_matrix_get_limits                             .build/obj_vessel_base/quantum/rgb_matrix/rgb_matrix.o (symbol from plugin)
rgb_matrix_get_mode                               .build/obj_vessel_base/quantum/rgb_matrix/rgb_matrix.o (symbol from plugin)
rgb_matrix_get_sat                                .build/obj_vessel_base/quantum/rgb_matrix/rgb_matrix.o (symbol from plugin)
rgb_matrix_get_speed                              .build/obj_vessel_base/quantum/rgb_matrix/rgb_matrix.o (symbol from plugin)
rgb_matrix_get_suspend_state                      .build/obj_vessel_base/quantum/rgb_matrix/rgb_matrix.o (symbol from plugin)
rgb_matrix_get_val                                .build/obj_vessel_base/quantum/rgb_matrix/rgb_matrix.o (symbol from plugin)
rgb_matrix_handle_key_event                       .build/obj_vessel_base/quantum/rgb_matrix/rgb_matrix.o (symbol from plugin)
                                                  .build/obj_vessel_base/quantum/keyboard.o (symbol from plugin)
rgb_matrix_hsv_to_rgb                             .build/obj_vessel_base/quantum/rgb_matrix/rgb_matrix.o (symbol from plugin)
rgb_matrix_increase_hue                           .build/obj_vessel_base/quantum/rgb_matrix/rgb_matrix.o (symbol from plugin)
                                                  .build/obj_vessel_base/quantum/process_keycode/process_rgb.o (symbol from plugin)
                                                  .build/obj_vessel_base/quantum/keymap_introspection.o (symbol from plugin)
rgb_matrix_increase_hue_helper                    .build/obj_vessel_base/quantum/rgb_matrix/rgb_matrix.o (symbol from plugin)
rgb_matrix_increase_hue_noeeprom                  .build/obj_vessel_base/quantum/rgb_matrix/rgb_matrix.o (symbol from plugin)
rgb_matrix_increase_sat                           .build/obj_vessel_base/quantum/rgb_matrix/rgb_matrix.o (symbol from plugin)
                                                  .build/obj_vessel_base/quantum/process_keycode/process_rgb.o (symbol from plugin)
                                                  .build/obj_vessel_base/quantum/keymap_introspection.o (symbol from plugin)
rgb_matrix_increase_sat_helper                    .build/obj_vessel_base/quantum/rgb_matrix/rgb_matrix.o (symbol from plugin)
rgb_matrix_increase_sat_noeeprom                  .build/obj_vessel_base/quantum/rgb_matrix/rgb_matrix.o (symbol from plugin)
rgb_matrix_increase_speed                         .build/obj_vessel_base/quantum/rgb_matrix/rgb_matrix.o (symbol from plugin)
                                                  .build/obj_vessel_base/quantum/process_keycode/process_rgb.o (symbol from plugin)
rgb_matrix_increase_speed_helper                  .build/obj_vessel_base/quantum/rgb_matrix/rgb_matrix.o (symbol from plugin)
rgb_matrix_increase_speed_noeeprom                .build/obj_vessel_base/quantum/rgb_matrix/rgb_matrix.o (symbol from plugin)
rgb_matrix_increase_val                           .build/obj_vessel_base/quantum/rgb_matrix/rgb_matrix.o (symbol from plugin)
                                                  .build/obj_vessel_base/quantum/process_keycode/process_rgb.o (symbol from plugin)
rgb_matrix_increase_val_helper                    .build/obj_vessel_base/quantum/rgb_matrix/rgb_matrix.o (symbol from plugin)
rgb_matrix_increase_val_noeeprom                  .build/obj_vessel_base/quantum/rgb_matrix/rgb_matrix.o (symbol from plugin)
rgb_matrix_indicators                             .build/obj_vessel_base/quantum/rgb_matrix/rgb_matrix.o (symbol from plugin)
rgb_matrix_indicators_advanced                    .build/obj_vessel_base/quantum/rgb_matrix/rgb_matrix.o (symbol from plugin)
rgb_matrix_indicators_advanced_kb                 .build/obj_vessel_base/quantum/rgb_matrix/rgb_matrix.o (symbol from plugin)
rgb_matrix_indicators_advanced_user               .build/obj_vessel_base/quantum/rgb_matrix/rgb_matrix.o (symbol from plugin)
rgb_matrix_indicators_kb                          .build/obj_vessel_base/quantum/rgb_matrix/rgb_matrix.o (symbol from plugin)
rgb_matrix_indicators_user                        .build/obj_vessel_base/quantum/rgb_matrix/rgb_matrix.o (symbol from plugin)
rgb_matrix_init                                   .build/obj_vessel_base/quantum/rgb_matrix/rgb_matrix.o (symbol from plugin)
                                                  .build/obj_vessel_base/quantum/keyboard.o (symbol from plugin)
rgb_matrix_is_enabled                             .build/obj_vessel_base/quantum/rgb_matrix/rgb_matrix.o (symbol from plugin)
                                                  .build/obj_vessel_base/quantum/keymap_introspection.o (symbol from plugin)
rgb_matrix_map_row_column_to_led                  .build/obj_vessel_base/quantum/rgb_matrix/rgb_matrix.o (symbol from plugin)
rgb_matrix_map_row_column_to_led_kb               .build/obj_vessel_base/quantum/rgb_matrix/rgb_matrix.o (symbol from plugin)
rgb_matrix_mode                                   .build/obj_vessel_base/quantum/rgb_matrix/rgb_matrix.o (symbol from plugin)
                                                  .build/obj_vessel_base/quantum/process_keycode/process_rgb.o (symbol from plugin)
rgb_matrix_mode_eeprom_helper                     .build/obj_vessel_base/quantum/rgb_matrix/rgb_matrix.o (symbol from plugin)
rgb_matrix_mode_noeeprom                          .build/obj_vessel_base/quantum/rgb_matrix/rgb_matrix.o (symbol from plugin)
rgb_matrix_reload_from_eeprom                     .build/obj_vessel_base/quantum/rgb_matrix/rgb_matrix.o (symbol from plugin)
rgb_matrix_set_color                              .build/obj_vessel_base/quantum/rgb_matrix/rgb_matrix.o (symbol from plugin)
rgb_matrix_set_color_all                          .build/obj_vessel_base/quantum/rgb_matrix/rgb_matrix.o (symbol from plugin)
rgb_matrix_set_flags                              .build/obj_vessel_base/quantum/rgb_matrix/rgb_matrix.o (symbol from plugin)
rgb_matrix_set_flags_eeprom_helper                .build/obj_vessel_base/quantum/rgb_matrix/rgb_matrix.o (symbol from plugin)
rgb_matrix_set_flags_noeeprom                     .build/obj_vessel_base/quantum/rgb_matrix/rgb_matrix.o (symbol from plugin)
rgb_matrix_set_speed                              .build/obj_vessel_base/quantum/rgb_matrix/rgb_matrix.o (symbol from plugin)
rgb_matrix_set_speed_eeprom_helper                .build/obj_vessel_base/quantum/rgb_matrix/rgb_matrix.o (symbol from plugin)
rgb_matrix_set_speed_noeeprom                     .build/obj_vessel_base/quantum/rgb_matrix/rgb_matrix.o (symbol from plugin)
rgb_matrix_set_suspend_state                      .build/obj_vessel_base/quantum/rgb_matrix/rgb_matrix.o (symbol from plugin)
                                                  .build/obj_vessel_base/quantum/quantum.o (symbol from plugin)
rgb_matrix_sethsv                                 .build/obj_vessel_base/quantum/rgb_matrix/rgb_matrix.o (symbol from plugin)
rgb_matrix_sethsv_eeprom_helper                   .build/obj_vessel_base/quantum/rgb_matrix/rgb_matrix.o (symbol from plugin)
rgb_matrix_sethsv_noeeprom                        .build/obj_vessel_base/quantum/rgb_matrix/rgb_matrix.o (symbol from plugin)
rgb_matrix_step                                   .build/obj_vessel_base/quantum/rgb_matrix/rgb_matrix.o (symbol from plugin)
                                                  .build/obj_vessel_base/quantum/process_keycode/process_rgb.o (symbol from plugin)
                                                  .build/obj_vessel_base/quantum/keymap_introspection.o (symbol from plugin)
rgb_matrix_step_helper                            .build/obj_vessel_base/quantum/rgb_matrix/rgb_matrix.o (symbol from plugin)
rgb_matrix_step_noeeprom                          .build/obj_vessel_base/quantum/rgb_matrix/rgb_matrix.o (symbol from plugin)
rgb_matrix_step_reverse                           .build/obj_vessel_base/quantum/rgb_matrix/rgb_matrix.o (symbol from plugin)
                                                  .build/obj_vessel_base/quantum/process_keycode/process_rgb.o (symbol from plugin)
rgb_matrix_step_reverse_helper                    .build/obj_vessel_base/quantum/rgb_matrix/rgb_matrix.o (symbol from plugin)
rgb_matrix_step_reverse_noeeprom                  .build/obj_vessel_base/quantum/rgb_matrix/rgb_matrix.o (symbol from plugin)
rgb_matrix_task                                   .build/obj_vessel_base/quantum/rgb_matrix/rgb_matrix.o (symbol from plugin)
                                                  .build/obj_vessel_base/quantum/keyboard.o (symbol from plugin)
                                                  .build/obj_vessel_base/quantum/quantum.o (symbol from plugin)
rgb_matrix_test                                   .build/obj_vessel_base/quantum/rgb_matrix/rgb_matrix.o (symbol from plugin)
rgb_matrix_toggle                                 .build/obj_vessel_base/quantum/rgb_matrix/rgb_matrix.o (symbol from plugin)
                                                  .build/obj_vessel_base/quantum/process_keycode/process_rgb.o (symbol from plugin)
rgb_matrix_toggle_eeprom_helper                   .build/obj_vessel_base/quantum/rgb_matrix/rgb_matrix.o (symbol from plugin)
rgb_matrix_toggle_noeeprom                        .build/obj_vessel_base/quantum/rgb_matrix/rgb_matrix.o (symbol from plugin)
rgb_matrix_update_pwm_buffers                     .build/obj_vessel_base/quantum/rgb_matrix/rgb_matrix.o (symbol from plugin)
rgb_matrix_ws2812_array                           .build/obj_vessel_base/quantum/rgb_matrix/rgb_matrix_drivers.o (symbol from plugin)
sendByte                                          .build/obj_vessel_base/ws2812_bitbang.o (symbol from plugin)
send_6kro_report                                  .build/obj_vessel_base/quantum/action_util.o (symbol from plugin)
send_byte                                         .build/obj_vessel_base/quantum/send_string/send_string.o (symbol from plugin)
send_char                                         .build/obj_vessel_base/quantum/send_string/send_string.o (symbol from plugin)
send_char_with_delay                              .build/obj_vessel_base/quantum/send_string/send_string.o (symbol from plugin)
send_digitizer                                    .build/obj_vessel_base/protocol/chibios/usb_main.o (symbol from plugin)
                                                  .build/obj_vessel_base/protocol/host.o (symbol from plugin)
send_dword                                        .build/obj_vessel_base/quantum/send_string/send_string.o (symbol from plugin)
send_extra                                        .build/obj_vessel_base/protocol/chibios/usb_main.o (symbol from plugin)
                                                  .build/obj_vessel_base/protocol/chibios/chibios.o (symbol from plugin)
send_joystick                                     .build/obj_vessel_base/protocol/chibios/usb_main.o (symbol from plugin)
                                                  .build/obj_vessel_base/protocol/host.o (symbol from plugin)
send_keyboard                                     .build/obj_vessel_base/protocol/chibios/usb_main.o (symbol from plugin)
                                                  .build/obj_vessel_base/protocol/chibios/chibios.o (symbol from plugin)
send_keyboard_report                              .build/obj_vessel_base/quantum/action_util.o (symbol from plugin)
                                                  .build/obj_vessel_base/quantum/process_keycode/process_tap_dance.o (symbol from plugin)
                                                  .build/obj_vessel_base/quantum/process_keycode/process_grave_esc.o (symbol from plugin)
                                                  .build/obj_vessel_base/quantum/action.o (symbol from plugin)
send_mouse                                        .build/obj_vessel_base/protocol/chibios/usb_main.o (symbol from plugin)
                                                  .build/obj_vessel_base/protocol/chibios/chibios.o (symbol from plugin)
send_nibble                                       .build/obj_vessel_base/quantum/send_string/send_string.o (symbol from plugin)
send_nkro                                         .build/obj_vessel_base/protocol/chibios/usb_main.o (symbol from plugin)
                                                  .build/obj_vessel_base/protocol/chibios/chibios.o (symbol from plugin)
send_nkro_report                                  .build/obj_vessel_base/quantum/action_util.o (symbol from plugin)
send_programmable_button                          .build/obj_vessel_base/protocol/chibios/usb_main.o (symbol from plugin)
                                                  .build/obj_vessel_base/protocol/host.o (symbol from plugin)
send_report                                       .build/obj_vessel_base/protocol/chibios/usb_main.o (symbol from plugin)
                                                  .build/obj_vessel_base/protocol/chibios/usb_report_handling.o (symbol from plugin)
send_string                                       .build/obj_vessel_base/quantum/send_string/send_string.o (symbol from plugin)
send_string.c.252fa15b                            C:\QMK_MSYS\tmp\ccMA0Zmy.debug.temp.o
send_string_with_delay                            .build/obj_vessel_base/quantum/send_string/send_string.o (symbol from plugin)
send_word                                         .build/obj_vessel_base/quantum/send_string/send_string.o (symbol from plugin)
sendchar                                          .build/obj_vessel_base/quantum/logging/sendchar.o (symbol from plugin)
                                                  .build/obj_vessel_base/quantum/keyboard.o (symbol from plugin)
sendchar.c.22e099d6                               C:\QMK_MSYS\tmp\ccEA8olI.debug.temp.o
                                                  C:\QMK_MSYS\tmp\ccs2W3Vd.ltrans0.ltrans.o
set_activity_timestamps                           .build/obj_vessel_base/quantum/keyboard.o (symbol from plugin)
set_mods                                          .build/obj_vessel_base/quantum/action_util.o (symbol from plugin)
set_single_persistent_default_layer               .build/obj_vessel_base/quantum/quantum.o (symbol from plugin)
set_starlight_color                               .build/obj_vessel_base/quantum/rgb_matrix/rgb_matrix.o (symbol from plugin)
set_starlight_dual_hue_color                      .build/obj_vessel_base/quantum/rgb_matrix/rgb_matrix.o (symbol from plugin)
set_starlight_dual_sat_color                      .build/obj_vessel_base/quantum/rgb_matrix/rgb_matrix.o (symbol from plugin)
set_weak_mods                                     .build/obj_vessel_base/quantum/action_util.o (symbol from plugin)
should_process_encoder                            .build/obj_vessel_base/quantum/encoder.o (symbol from plugin)
should_process_keypress                           .build/obj_vessel_base/quantum/keyboard.o (symbol from plugin)
shutdown_kb                                       .build/obj_vessel_base/quantum/quantum.o (symbol from plugin)
shutdown_quantum                                  .build/obj_vessel_base/quantum/quantum.o (symbol from plugin)
shutdown_user                                     .build/obj_vessel_base/quantum/quantum.o (symbol from plugin)
signal                                            C:/QMK_MSYS/mingw64/bin/../lib/gcc/arm-none-eabi/13.3.0/../../../../arm-none-eabi/lib/thumb/v7e-m+fp/hard\libg_nano.a(libc_a-signal.o)
snprintf                                          C:\QMK_MSYS\tmp\ccs2W3Vd.ltrans0.ltrans.o
                                                  .build/obj_vessel_base/printf.o (symbol from plugin)
soft_reset_keyboard                               .build/obj_vessel_base/quantum/quantum.o (symbol from plugin)
source_layers_cache                               .build/obj_vessel_base/quantum/action_layer.o (symbol from plugin)
sprintf                                           C:\QMK_MSYS\tmp\ccs2W3Vd.ltrans0.ltrans.o
                                                  .build/obj_vessel_base/printf.o (symbol from plugin)
srand                                             C:/QMK_MSYS/mingw64/bin/../lib/gcc/arm-none-eabi/13.3.0/../../../../arm-none-eabi/lib/thumb/v7e-m+fp/hard\libg_nano.a(libc_a-rand.o)
stGetAlarm                                        .build/obj_vessel_base/lib/chibios/os/hal/src/hal_st.o (symbol from plugin)
stGetCounter                                      .build/obj_vessel_base/lib/chibios/os/hal/src/hal_st.o (symbol from plugin)
                                                  .build/obj_vessel_base/lib/chibios/os/hal/ports/STM32/LLD/I2Cv1/hal_i2c_lld.o (symbol from plugin)
                                                  .build/obj_vessel_base/lib/chibios/os/rt/src/chthreads.o (symbol from plugin)
                                                  .build/obj_vessel_base/lib/chibios/os/rt/src/chinstances.o (symbol from plugin)
                                                  .build/obj_vessel_base/lib/chibios/os/rt/src/chvt.o (symbol from plugin)
                                                  .build/obj_vessel_base/protocol/chibios/usb_report_handling.o (symbol from plugin)
                                                  .build/obj_vessel_base/platforms/chibios/timer.o (symbol from plugin)
stInit                                            .build/obj_vessel_base/lib/chibios/os/hal/src/hal_st.o (symbol from plugin)
                                                  .build/obj_vessel_base/lib/chibios/os/hal/src/hal.o (symbol from plugin)
stIsAlarmActive                                   .build/obj_vessel_base/lib/chibios/os/hal/src/hal_st.o (symbol from plugin)
stSetAlarm                                        .build/obj_vessel_base/lib/chibios/os/hal/src/hal_st.o (symbol from plugin)
                                                  .build/obj_vessel_base/lib/chibios/os/rt/src/chvt.o (symbol from plugin)
stStartAlarm                                      .build/obj_vessel_base/lib/chibios/os/hal/src/hal_st.o (symbol from plugin)
                                                  .build/obj_vessel_base/lib/chibios/os/rt/src/chvt.o (symbol from plugin)
stStopAlarm                                       .build/obj_vessel_base/lib/chibios/os/hal/src/hal_st.o (symbol from plugin)
                                                  .build/obj_vessel_base/lib/chibios/os/rt/src/chvt.o (symbol from plugin)
st_lld_init                                       .build/obj_vessel_base/lib/chibios/os/hal/ports/STM32/LLD/SYSTICKv1/hal_st_lld.o (symbol from plugin)
                                                  .build/obj_vessel_base/lib/chibios/os/hal/src/hal_st.o (symbol from plugin)
st_lld_serve_interrupt                            .build/obj_vessel_base/lib/chibios/os/hal/ports/STM32/LLD/SYSTICKv1/hal_st_lld.o (symbol from plugin)
                                                  .build/obj_vessel_base/lib/chibios/os/hal/ports/STM32/STM32F4xx/stm32_isr.o (symbol from plugin)
stm32_clock_init                                  .build/obj_vessel_base/lib/chibios/os/hal/ports/STM32/STM32F4xx/hal_lld.o (symbol from plugin)
                                                  .build/obj_vessel_base/lib/chibios/os/hal/boards/ST_NUCLEO64_F446RE/board.o (symbol from plugin)
stm32_dfu.c.0373b997                              C:\QMK_MSYS\tmp\cckinsha.debug.temp.o
                                                  C:\QMK_MSYS\tmp\ccs2W3Vd.ltrans0.ltrans.o
stm32_dma.c.59c00a80                              C:\QMK_MSYS\tmp\cc4Drlro.debug.temp.o
                                                  C:\QMK_MSYS\tmp\ccs2W3Vd.ltrans0.ltrans.o
stm32_exti.c.ac482836                             C:\QMK_MSYS\tmp\ccOMtAgW.debug.temp.o
stm32_isr.c.0b04725d                              C:\QMK_MSYS\tmp\ccaMHsKz.debug.temp.o
                                                  C:\QMK_MSYS\tmp\ccs2W3Vd.ltrans0.ltrans.o
store_or_get_action                               .build/obj_vessel_base/quantum/action_layer.o (symbol from plugin)
                                                  .build/obj_vessel_base/quantum/action.o (symbol from plugin)
suspend.c.2b0bbf40                                C:\QMK_MSYS\tmp\ccOJie5d.debug.temp.o
                                                  C:\QMK_MSYS\tmp\ccs2W3Vd.ltrans0.ltrans.o
suspend.c.cf3726c5                                C:\QMK_MSYS\tmp\ccek32UT.debug.temp.o
                                                  C:\QMK_MSYS\tmp\ccs2W3Vd.ltrans0.ltrans.o
suspend_power_down                                .build/obj_vessel_base/platforms/chibios/suspend.o (symbol from plugin)
                                                  .build/obj_vessel_base/protocol/chibios/chibios.o (symbol from plugin)
suspend_power_down_kb                             .build/obj_vessel_base/platforms/suspend.o (symbol from plugin)
                                                  .build/obj_vessel_base/quantum/quantum.o (symbol from plugin)
suspend_power_down_quantum                        .build/obj_vessel_base/quantum/quantum.o (symbol from plugin)
                                                  .build/obj_vessel_base/platforms/chibios/suspend.o (symbol from plugin)
suspend_power_down_user                           .build/obj_vessel_base/quantum/keymap_introspection.o (symbol from plugin)
suspend_wakeup_condition                          .build/obj_vessel_base/platforms/suspend.o (symbol from plugin)
                                                  .build/obj_vessel_base/protocol/chibios/chibios.o (symbol from plugin)
suspend_wakeup_init                               .build/obj_vessel_base/platforms/chibios/suspend.o (symbol from plugin)
                                                  .build/obj_vessel_base/protocol/chibios/usb_main.o (symbol from plugin)
suspend_wakeup_init_kb                            .build/obj_vessel_base/platforms/suspend.o (symbol from plugin)
                                                  .build/obj_vessel_base/quantum/quantum.o (symbol from plugin)
suspend_wakeup_init_quantum                       .build/obj_vessel_base/quantum/quantum.o (symbol from plugin)
                                                  .build/obj_vessel_base/platforms/chibios/suspend.o (symbol from plugin)
suspend_wakeup_init_user                          .build/obj_vessel_base/quantum/keymap_introspection.o (symbol from plugin)
switch_events                                     .build/obj_vessel_base/quantum/keyboard.o (symbol from plugin)
sym_eager_pk.c.a644795f                           C:\QMK_MSYS\tmp\cc47Kovr.debug.temp.o
                                                  C:\QMK_MSYS\tmp\ccs2W3Vd.ltrans0.ltrans.o
sync_timer.c.6545c423                             C:\QMK_MSYS\tmp\ccqpLh1Q.debug.temp.o
synchronization_util.c.5ac7c54d                   C:\QMK_MSYS\tmp\cc4lWdLm.debug.temp.o
synchronization_util.c.614c544e                   C:\QMK_MSYS\tmp\ccQLn2UE.debug.temp.o
syscall_fallbacks.c.52060c08                      C:\QMK_MSYS\tmp\ccAjuQ4s.debug.temp.o
                                                  C:\QMK_MSYS\tmp\ccs2W3Vd.ltrans0.ltrans.o
syscalls.c.4bebdc15                               C:\QMK_MSYS\tmp\ccad69BR.debug.temp.o
                                                  C:\QMK_MSYS\tmp\ccs2W3Vd.ltrans0.ltrans.o
tap_code                                          .build/obj_vessel_base/quantum/action.o (symbol from plugin)
                                                  .build/obj_vessel_base/quantum/process_keycode/process_space_cadet.o (symbol from plugin)
                                                  .build/obj_vessel_base/quantum/send_string/send_string.o (symbol from plugin)
                                                  .build/obj_vessel_base/quantum/keymap_introspection.o (symbol from plugin)
tap_code16                                        .build/obj_vessel_base/quantum/quantum.o (symbol from plugin)
tap_code16_delay                                  .build/obj_vessel_base/quantum/quantum.o (symbol from plugin)
tap_code_delay                                    .build/obj_vessel_base/quantum/action.o (symbol from plugin)
                                                  .build/obj_vessel_base/quantum/send_string/send_string.o (symbol from plugin)
                                                  .build/obj_vessel_base/quantum/encoder.o (symbol from plugin)
tap_dance_actions                                 .build/obj_vessel_base/quantum/keymap_introspection.o (symbol from plugin)
                                                  .build/obj_vessel_base/quantum/process_keycode/process_tap_dance.o (symbol from plugin)
tap_dance_dual_role_finished                      .build/obj_vessel_base/quantum/process_keycode/process_tap_dance.o (symbol from plugin)
tap_dance_dual_role_on_each_tap                   .build/obj_vessel_base/quantum/process_keycode/process_tap_dance.o (symbol from plugin)
tap_dance_dual_role_reset                         .build/obj_vessel_base/quantum/process_keycode/process_tap_dance.o (symbol from plugin)
tap_dance_pair_finished                           .build/obj_vessel_base/quantum/process_keycode/process_tap_dance.o (symbol from plugin)
                                                  .build/obj_vessel_base/quantum/keymap_introspection.o (symbol from plugin)
tap_dance_pair_on_each_tap                        .build/obj_vessel_base/quantum/process_keycode/process_tap_dance.o (symbol from plugin)
                                                  .build/obj_vessel_base/quantum/keymap_introspection.o (symbol from plugin)
tap_dance_pair_reset                              .build/obj_vessel_base/quantum/process_keycode/process_tap_dance.o (symbol from plugin)
                                                  .build/obj_vessel_base/quantum/keymap_introspection.o (symbol from plugin)
tap_dance_task                                    .build/obj_vessel_base/quantum/process_keycode/process_tap_dance.o (symbol from plugin)
                                                  .build/obj_vessel_base/quantum/keyboard.o (symbol from plugin)
tap_random_base64                                 .build/obj_vessel_base/quantum/send_string/send_string.o (symbol from plugin)
timer                                             .build/obj_vessel_base/quantum/keymap_introspection.o (symbol from plugin)
timer.c.2989ef0d                                  C:\QMK_MSYS\tmp\ccK0Z0vP.debug.temp.o
timer.c.de30d109                                  C:\QMK_MSYS\tmp\ccG4SEeH.debug.temp.o
                                                  C:\QMK_MSYS\tmp\ccs2W3Vd.ltrans0.ltrans.o
timer_clear                                       .build/obj_vessel_base/platforms/chibios/timer.o (symbol from plugin)
timer_elapsed                                     .build/obj_vessel_base/platforms/chibios/timer.o (symbol from plugin)
                                                  .build/obj_vessel_base/quantum/process_keycode/process_tap_dance.o (symbol from plugin)
                                                  .build/obj_vessel_base/quantum/process_keycode/process_space_cadet.o (symbol from plugin)
                                                  .build/obj_vessel_base/quantum/keymap_introspection.o (symbol from plugin)
timer_elapsed32                                   .build/obj_vessel_base/platforms/chibios/timer.o (symbol from plugin)
                                                  .build/obj_vessel_base/platforms/timer.o (symbol from plugin)
                                                  .build/obj_vessel_base/quantum/rgb_matrix/rgb_matrix.o (symbol from plugin)
                                                  .build/obj_vessel_base/quantum/keyboard.o (symbol from plugin)
                                                  .build/obj_vessel_base/quantum/led.o (symbol from plugin)
                                                  .build/obj_vessel_base/quantum/keymap_introspection.o (symbol from plugin)
timer_elapsed_fast                                .build/obj_vessel_base/platforms/timer.o (symbol from plugin)
timer_init                                        .build/obj_vessel_base/platforms/chibios/timer.o (symbol from plugin)
                                                  .build/obj_vessel_base/quantum/keyboard.o (symbol from plugin)
timer_read                                        .build/obj_vessel_base/platforms/chibios/timer.o (symbol from plugin)
                                                  .build/obj_vessel_base/quantum/process_keycode/process_tap_dance.o (symbol from plugin)
                                                  .build/obj_vessel_base/quantum/process_keycode/process_space_cadet.o (symbol from plugin)
                                                  .build/obj_vessel_base/quantum/encoder.o (symbol from plugin)
                                                  .build/obj_vessel_base/quantum/keyboard.o (symbol from plugin)
                                                  .build/obj_vessel_base/quantum/keymap_introspection.o (symbol from plugin)
timer_read32                                      .build/obj_vessel_base/platforms/chibios/timer.o (symbol from plugin)
                                                  .build/obj_vessel_base/platforms/timer.o (symbol from plugin)
                                                  .build/obj_vessel_base/oled_driver.o (symbol from plugin)
                                                  .build/obj_vessel_base/quantum/rgb_matrix/rgb_matrix.o (symbol from plugin)
                                                  .build/obj_vessel_base/quantum/debounce/sym_eager_pk.o (symbol from plugin)
                                                  .build/obj_vessel_base/quantum/keyboard.o (symbol from plugin)
                                                  .build/obj_vessel_base/quantum/led.o (symbol from plugin)
                                                  .build/obj_vessel_base/quantum/keymap_introspection.o (symbol from plugin)
timer_read_fast                                   .build/obj_vessel_base/platforms/timer.o (symbol from plugin)
tp_buttons                                        .build/obj_vessel_base/quantum/action.o (symbol from plugin)
unregister_code                                   .build/obj_vessel_base/quantum/action.o (symbol from plugin)
                                                  .build/obj_vessel_base/quantum/send_string/send_string.o (symbol from plugin)
                                                  .build/obj_vessel_base/quantum/quantum.o (symbol from plugin)
                                                  .build/obj_vessel_base/quantum/keymap_introspection.o (symbol from plugin)
unregister_code16                                 .build/obj_vessel_base/quantum/quantum.o (symbol from plugin)
                                                  .build/obj_vessel_base/quantum/process_keycode/process_tap_dance.o (symbol from plugin)
unregister_mods                                   .build/obj_vessel_base/quantum/action.o (symbol from plugin)
                                                  .build/obj_vessel_base/quantum/process_keycode/process_space_cadet.o (symbol from plugin)
                                                  .build/obj_vessel_base/quantum/quantum.o (symbol from plugin)
unregister_weak_mods                              .build/obj_vessel_base/quantum/action.o (symbol from plugin)
                                                  .build/obj_vessel_base/quantum/quantum.o (symbol from plugin)
update_source_layers_cache                        .build/obj_vessel_base/quantum/action_layer.o (symbol from plugin)
                                                  .build/obj_vessel_base/quantum/quantum.o (symbol from plugin)
update_source_layers_cache_impl                   .build/obj_vessel_base/quantum/action_layer.o (symbol from plugin)
update_tri_layer                                  .build/obj_vessel_base/quantum/action_layer.o (symbol from plugin)
update_tri_layer_state                            .build/obj_vessel_base/quantum/action_layer.o (symbol from plugin)
usbDisableEndpointsI                              .build/obj_vessel_base/lib/chibios/os/hal/src/hal_usb.o (symbol from plugin)
usbInit                                           .build/obj_vessel_base/lib/chibios/os/hal/src/hal_usb.o (symbol from plugin)
                                                  .build/obj_vessel_base/lib/chibios/os/hal/src/hal.o (symbol from plugin)
usbInitEndpointI                                  .build/obj_vessel_base/lib/chibios/os/hal/src/hal_usb.o (symbol from plugin)
                                                  .build/obj_vessel_base/protocol/chibios/usb_driver.o (symbol from plugin)
usbObjectInit                                     .build/obj_vessel_base/lib/chibios/os/hal/src/hal_usb.o (symbol from plugin)
                                                  .build/obj_vessel_base/lib/chibios/os/hal/ports/STM32/LLD/OTGv1/hal_usb_lld.o (symbol from plugin)
usbReceive                                        .build/obj_vessel_base/lib/chibios/os/hal/src/hal_usb.o (symbol from plugin)
usbStallReceiveI                                  .build/obj_vessel_base/lib/chibios/os/hal/src/hal_usb.o (symbol from plugin)
usbStallTransmitI                                 .build/obj_vessel_base/lib/chibios/os/hal/src/hal_usb.o (symbol from plugin)
usbStart                                          .build/obj_vessel_base/lib/chibios/os/hal/src/hal_usb.o (symbol from plugin)
                                                  .build/obj_vessel_base/protocol/chibios/usb_main.o (symbol from plugin)
usbStartReceiveI                                  .build/obj_vessel_base/lib/chibios/os/hal/src/hal_usb.o (symbol from plugin)
                                                  .build/obj_vessel_base/protocol/chibios/usb_driver.o (symbol from plugin)
usbStartTransmitI                                 .build/obj_vessel_base/lib/chibios/os/hal/src/hal_usb.o (symbol from plugin)
                                                  .build/obj_vessel_base/protocol/chibios/usb_driver.o (symbol from plugin)
usbStop                                           .build/obj_vessel_base/lib/chibios/os/hal/src/hal_usb.o (symbol from plugin)
                                                  .build/obj_vessel_base/protocol/chibios/usb_util.o (symbol from plugin)
                                                  .build/obj_vessel_base/protocol/chibios/usb_main.o (symbol from plugin)
usbTransmit                                       .build/obj_vessel_base/lib/chibios/os/hal/src/hal_usb.o (symbol from plugin)
usbWakeupHost                                     .build/obj_vessel_base/lib/chibios/os/hal/src/hal_usb.o (symbol from plugin)
                                                  .build/obj_vessel_base/protocol/chibios/chibios.o (symbol from plugin)
usb_connected_state                               .build/obj_vessel_base/protocol/chibios/usb_util.o (symbol from plugin)
                                                  .build/obj_vessel_base/protocol/usb_util.o (symbol from plugin)
usb_descriptor.c.ea005d1d                         C:\QMK_MSYS\tmp\ccqU3HIz.debug.temp.o
                                                  C:\QMK_MSYS\tmp\ccs2W3Vd.ltrans0.ltrans.o
usb_device_state                                  .build/obj_vessel_base/protocol/usb_device_state.o (symbol from plugin)
usb_device_state.c.0f814731                       C:\QMK_MSYS\tmp\cc6pXUhW.debug.temp.o
                                                  C:\QMK_MSYS\tmp\ccs2W3Vd.ltrans0.ltrans.o
usb_device_state_init                             .build/obj_vessel_base/protocol/usb_device_state.o (symbol from plugin)
                                                  .build/obj_vessel_base/protocol/chibios/chibios.o (symbol from plugin)
usb_device_state_set_configuration                .build/obj_vessel_base/protocol/usb_device_state.o (symbol from plugin)
                                                  .build/obj_vessel_base/protocol/chibios/usb_main.o (symbol from plugin)
usb_device_state_set_reset                        .build/obj_vessel_base/protocol/usb_device_state.o (symbol from plugin)
                                                  .build/obj_vessel_base/protocol/chibios/usb_main.o (symbol from plugin)
usb_device_state_set_resume                       .build/obj_vessel_base/protocol/usb_device_state.o (symbol from plugin)
                                                  .build/obj_vessel_base/protocol/chibios/usb_main.o (symbol from plugin)
usb_device_state_set_suspend                      .build/obj_vessel_base/protocol/usb_device_state.o (symbol from plugin)
                                                  .build/obj_vessel_base/protocol/chibios/usb_main.o (symbol from plugin)
usb_disconnect                                    .build/obj_vessel_base/protocol/chibios/usb_util.o (symbol from plugin)
                                                  .build/obj_vessel_base/protocol/usb_util.o (symbol from plugin)
usb_driver.c.9882d7fa                             C:\QMK_MSYS\tmp\cccI8FZ1.debug.temp.o
                                                  C:\QMK_MSYS\tmp\ccs2W3Vd.ltrans0.ltrans.o
usb_endpoint_in_configure_cb                      .build/obj_vessel_base/protocol/chibios/usb_driver.o (symbol from plugin)
                                                  .build/obj_vessel_base/protocol/chibios/usb_main.o (symbol from plugin)
usb_endpoint_in_flush                             .build/obj_vessel_base/protocol/chibios/usb_driver.o (symbol from plugin)
usb_endpoint_in_init                              .build/obj_vessel_base/protocol/chibios/usb_driver.o (symbol from plugin)
                                                  .build/obj_vessel_base/protocol/chibios/usb_main.o (symbol from plugin)
usb_endpoint_in_is_inactive                       .build/obj_vessel_base/protocol/chibios/usb_driver.o (symbol from plugin)
                                                  .build/obj_vessel_base/protocol/chibios/usb_report_handling.o (symbol from plugin)
usb_endpoint_in_send                              .build/obj_vessel_base/protocol/chibios/usb_driver.o (symbol from plugin)
                                                  .build/obj_vessel_base/protocol/chibios/usb_main.o (symbol from plugin)
usb_endpoint_in_start                             .build/obj_vessel_base/protocol/chibios/usb_driver.o (symbol from plugin)
                                                  .build/obj_vessel_base/protocol/chibios/usb_main.o (symbol from plugin)
usb_endpoint_in_stop                              .build/obj_vessel_base/protocol/chibios/usb_driver.o (symbol from plugin)
                                                  .build/obj_vessel_base/protocol/chibios/usb_main.o (symbol from plugin)
usb_endpoint_in_suspend_cb                        .build/obj_vessel_base/protocol/chibios/usb_driver.o (symbol from plugin)
                                                  .build/obj_vessel_base/protocol/chibios/usb_main.o (symbol from plugin)
usb_endpoint_in_tx_complete_cb                    .build/obj_vessel_base/protocol/chibios/usb_driver.o (symbol from plugin)
                                                  .build/obj_vessel_base/protocol/chibios/usb_endpoints.o (symbol from plugin)
usb_endpoint_in_wakeup_cb                         .build/obj_vessel_base/protocol/chibios/usb_driver.o (symbol from plugin)
                                                  .build/obj_vessel_base/protocol/chibios/usb_main.o (symbol from plugin)
usb_endpoint_interface_lut                        .build/obj_vessel_base/protocol/chibios/usb_endpoints.o (symbol from plugin)
                                                  .build/obj_vessel_base/protocol/chibios/usb_util.o (symbol from plugin)
                                                  .build/obj_vessel_base/protocol/chibios/usb_report_handling.o (symbol from plugin)
                                                  .build/obj_vessel_base/protocol/chibios/chibios.o (symbol from plugin)
                                                  .build/obj_vessel_base/protocol/chibios/usb_main.o (symbol from plugin)
usb_endpoint_out_configure_cb                     .build/obj_vessel_base/protocol/chibios/usb_driver.o (symbol from plugin)
usb_endpoint_out_init                             .build/obj_vessel_base/protocol/chibios/usb_driver.o (symbol from plugin)
usb_endpoint_out_receive                          .build/obj_vessel_base/protocol/chibios/usb_driver.o (symbol from plugin)
usb_endpoint_out_rx_complete_cb                   .build/obj_vessel_base/protocol/chibios/usb_driver.o (symbol from plugin)
usb_endpoint_out_start                            .build/obj_vessel_base/protocol/chibios/usb_driver.o (symbol from plugin)
usb_endpoint_out_stop                             .build/obj_vessel_base/protocol/chibios/usb_driver.o (symbol from plugin)
usb_endpoint_out_suspend_cb                       .build/obj_vessel_base/protocol/chibios/usb_driver.o (symbol from plugin)
usb_endpoint_out_wakeup_cb                        .build/obj_vessel_base/protocol/chibios/usb_driver.o (symbol from plugin)
usb_endpoints.c.47bd8000                          C:\QMK_MSYS\tmp\ccuGGubu.debug.temp.o
                                                  C:\QMK_MSYS\tmp\ccs2W3Vd.ltrans0.ltrans.o
usb_endpoints_in                                  .build/obj_vessel_base/protocol/chibios/usb_endpoints.o (symbol from plugin)
                                                  .build/obj_vessel_base/protocol/chibios/usb_report_handling.o (symbol from plugin)
                                                  .build/obj_vessel_base/protocol/chibios/usb_main.o (symbol from plugin)
usb_endpoints_out                                 .build/obj_vessel_base/protocol/chibios/usb_endpoints.o (symbol from plugin)
usb_event_queue_init                              .build/obj_vessel_base/protocol/chibios/usb_main.o (symbol from plugin)
                                                  .build/obj_vessel_base/protocol/chibios/chibios.o (symbol from plugin)
usb_event_queue_task                              .build/obj_vessel_base/protocol/chibios/usb_main.o (symbol from plugin)
                                                  .build/obj_vessel_base/protocol/chibios/chibios.o (symbol from plugin)
usb_get_idle_cb                                   .build/obj_vessel_base/protocol/chibios/usb_report_handling.o (symbol from plugin)
                                                  .build/obj_vessel_base/protocol/chibios/usb_main.o (symbol from plugin)
usb_get_idle_rate                                 .build/obj_vessel_base/protocol/chibios/usb_report_handling.o (symbol from plugin)
                                                  .build/obj_vessel_base/protocol/chibios/usb_endpoints.o (symbol from plugin)
usb_get_report                                    .build/obj_vessel_base/protocol/chibios/usb_report_handling.o (symbol from plugin)
                                                  .build/obj_vessel_base/protocol/chibios/usb_endpoints.o (symbol from plugin)
usb_get_report_cb                                 .build/obj_vessel_base/protocol/chibios/usb_report_handling.o (symbol from plugin)
                                                  .build/obj_vessel_base/protocol/chibios/usb_main.o (symbol from plugin)
usb_idle_task                                     .build/obj_vessel_base/protocol/chibios/usb_report_handling.o (symbol from plugin)
                                                  .build/obj_vessel_base/protocol/chibios/chibios.o (symbol from plugin)
usb_idle_timer_elapsed                            .build/obj_vessel_base/protocol/chibios/usb_report_handling.o (symbol from plugin)
                                                  .build/obj_vessel_base/protocol/chibios/usb_endpoints.o (symbol from plugin)
usb_lld_clear_in                                  .build/obj_vessel_base/lib/chibios/os/hal/ports/STM32/LLD/OTGv1/hal_usb_lld.o (symbol from plugin)
                                                  .build/obj_vessel_base/lib/chibios/os/hal/src/hal_usb.o (symbol from plugin)
usb_lld_clear_out                                 .build/obj_vessel_base/lib/chibios/os/hal/ports/STM32/LLD/OTGv1/hal_usb_lld.o (symbol from plugin)
                                                  .build/obj_vessel_base/lib/chibios/os/hal/src/hal_usb.o (symbol from plugin)
usb_lld_disable_endpoints                         .build/obj_vessel_base/lib/chibios/os/hal/ports/STM32/LLD/OTGv1/hal_usb_lld.o (symbol from plugin)
                                                  .build/obj_vessel_base/lib/chibios/os/hal/src/hal_usb.o (symbol from plugin)
usb_lld_get_status_in                             .build/obj_vessel_base/lib/chibios/os/hal/ports/STM32/LLD/OTGv1/hal_usb_lld.o (symbol from plugin)
                                                  .build/obj_vessel_base/lib/chibios/os/hal/src/hal_usb.o (symbol from plugin)
usb_lld_get_status_out                            .build/obj_vessel_base/lib/chibios/os/hal/ports/STM32/LLD/OTGv1/hal_usb_lld.o (symbol from plugin)
                                                  .build/obj_vessel_base/lib/chibios/os/hal/src/hal_usb.o (symbol from plugin)
usb_lld_init                                      .build/obj_vessel_base/lib/chibios/os/hal/ports/STM32/LLD/OTGv1/hal_usb_lld.o (symbol from plugin)
                                                  .build/obj_vessel_base/lib/chibios/os/hal/src/hal_usb.o (symbol from plugin)
usb_lld_init_endpoint                             .build/obj_vessel_base/lib/chibios/os/hal/ports/STM32/LLD/OTGv1/hal_usb_lld.o (symbol from plugin)
                                                  .build/obj_vessel_base/lib/chibios/os/hal/src/hal_usb.o (symbol from plugin)
usb_lld_read_setup                                .build/obj_vessel_base/lib/chibios/os/hal/ports/STM32/LLD/OTGv1/hal_usb_lld.o (symbol from plugin)
                                                  .build/obj_vessel_base/lib/chibios/os/hal/src/hal_usb.o (symbol from plugin)
usb_lld_reset                                     .build/obj_vessel_base/lib/chibios/os/hal/ports/STM32/LLD/OTGv1/hal_usb_lld.o (symbol from plugin)
                                                  .build/obj_vessel_base/lib/chibios/os/hal/src/hal_usb.o (symbol from plugin)
usb_lld_set_address                               .build/obj_vessel_base/lib/chibios/os/hal/ports/STM32/LLD/OTGv1/hal_usb_lld.o (symbol from plugin)
                                                  .build/obj_vessel_base/lib/chibios/os/hal/src/hal_usb.o (symbol from plugin)
usb_lld_stall_in                                  .build/obj_vessel_base/lib/chibios/os/hal/ports/STM32/LLD/OTGv1/hal_usb_lld.o (symbol from plugin)
                                                  .build/obj_vessel_base/lib/chibios/os/hal/src/hal_usb.o (symbol from plugin)
usb_lld_stall_out                                 .build/obj_vessel_base/lib/chibios/os/hal/ports/STM32/LLD/OTGv1/hal_usb_lld.o (symbol from plugin)
                                                  .build/obj_vessel_base/lib/chibios/os/hal/src/hal_usb.o (symbol from plugin)
usb_lld_start                                     .build/obj_vessel_base/lib/chibios/os/hal/ports/STM32/LLD/OTGv1/hal_usb_lld.o (symbol from plugin)
                                                  .build/obj_vessel_base/lib/chibios/os/hal/src/hal_usb.o (symbol from plugin)
usb_lld_start_in                                  .build/obj_vessel_base/lib/chibios/os/hal/ports/STM32/LLD/OTGv1/hal_usb_lld.o (symbol from plugin)
                                                  .build/obj_vessel_base/lib/chibios/os/hal/src/hal_usb.o (symbol from plugin)
usb_lld_start_out                                 .build/obj_vessel_base/lib/chibios/os/hal/ports/STM32/LLD/OTGv1/hal_usb_lld.o (symbol from plugin)
                                                  .build/obj_vessel_base/lib/chibios/os/hal/src/hal_usb.o (symbol from plugin)
usb_lld_stop                                      .build/obj_vessel_base/lib/chibios/os/hal/ports/STM32/LLD/OTGv1/hal_usb_lld.o (symbol from plugin)
                                                  .build/obj_vessel_base/lib/chibios/os/hal/src/hal_usb.o (symbol from plugin)
usb_main.c.a096ad1e                               C:\QMK_MSYS\tmp\ccgRbtjD.debug.temp.o
                                                  C:\QMK_MSYS\tmp\ccs2W3Vd.ltrans0.ltrans.o
usb_report_handling.c.5ebf6a74                    C:\QMK_MSYS\tmp\ccwcIvzW.debug.temp.o
                                                  C:\QMK_MSYS\tmp\ccs2W3Vd.ltrans0.ltrans.o
usb_reset_report                                  .build/obj_vessel_base/protocol/chibios/usb_report_handling.o (symbol from plugin)
                                                  .build/obj_vessel_base/protocol/chibios/usb_endpoints.o (symbol from plugin)
usb_set_idle_cb                                   .build/obj_vessel_base/protocol/chibios/usb_report_handling.o (symbol from plugin)
                                                  .build/obj_vessel_base/protocol/chibios/usb_main.o (symbol from plugin)
usb_set_idle_rate                                 .build/obj_vessel_base/protocol/chibios/usb_report_handling.o (symbol from plugin)
                                                  .build/obj_vessel_base/protocol/chibios/usb_endpoints.o (symbol from plugin)
usb_set_report                                    .build/obj_vessel_base/protocol/chibios/usb_report_handling.o (symbol from plugin)
                                                  .build/obj_vessel_base/protocol/chibios/usb_endpoints.o (symbol from plugin)
usb_shared_get_idle_rate                          .build/obj_vessel_base/protocol/chibios/usb_report_handling.o (symbol from plugin)
                                                  .build/obj_vessel_base/protocol/chibios/usb_endpoints.o (symbol from plugin)
usb_shared_get_report                             .build/obj_vessel_base/protocol/chibios/usb_report_handling.o (symbol from plugin)
                                                  .build/obj_vessel_base/protocol/chibios/usb_endpoints.o (symbol from plugin)
usb_shared_idle_timer_elapsed                     .build/obj_vessel_base/protocol/chibios/usb_report_handling.o (symbol from plugin)
                                                  .build/obj_vessel_base/protocol/chibios/usb_endpoints.o (symbol from plugin)
usb_shared_reset_report                           .build/obj_vessel_base/protocol/chibios/usb_report_handling.o (symbol from plugin)
                                                  .build/obj_vessel_base/protocol/chibios/usb_endpoints.o (symbol from plugin)
usb_shared_set_idle_rate                          .build/obj_vessel_base/protocol/chibios/usb_report_handling.o (symbol from plugin)
                                                  .build/obj_vessel_base/protocol/chibios/usb_endpoints.o (symbol from plugin)
usb_shared_set_report                             .build/obj_vessel_base/protocol/chibios/usb_report_handling.o (symbol from plugin)
                                                  .build/obj_vessel_base/protocol/chibios/usb_endpoints.o (symbol from plugin)
usb_util.c.29bc8c71                               C:\QMK_MSYS\tmp\ccaCUkXo.debug.temp.o
usb_util.c.d2416b66                               C:\QMK_MSYS\tmp\cc2qiF8p.debug.temp.o
usb_vbus_state                                    .build/obj_vessel_base/protocol/usb_util.o (symbol from plugin)
vessel.c.14ed4ca5                                 C:\QMK_MSYS\tmp\ccYy8zNJ.debug.temp.o
                                                  C:\QMK_MSYS\tmp\ccs2W3Vd.ltrans0.ltrans.o
vfctprintf                                        .build/obj_vessel_base/printf.o (symbol from plugin)
vfiprintf                                         C:/QMK_MSYS/mingw64/bin/../lib/gcc/arm-none-eabi/13.3.0/../../../../arm-none-eabi/lib/thumb/v7e-m+fp/hard\libg_nano.a(libc_a-nano-vfprintf.o)
vfprintf                                          C:/QMK_MSYS/mingw64/bin/../lib/gcc/arm-none-eabi/13.3.0/../../../../arm-none-eabi/lib/thumb/v7e-m+fp/hard\libg_nano.a(libc_a-nano-vfprintf.o)
vprintf                                           C:\QMK_MSYS\tmp\ccs2W3Vd.ltrans0.ltrans.o
                                                  .build/obj_vessel_base/printf.o (symbol from plugin)
vsnprintf                                         C:\QMK_MSYS\tmp\ccs2W3Vd.ltrans0.ltrans.o
                                                  .build/obj_vessel_base/printf.o (symbol from plugin)
vsprintf                                          C:\QMK_MSYS\tmp\ccs2W3Vd.ltrans0.ltrans.o
                                                  .build/obj_vessel_base/printf.o (symbol from plugin)
wait.c.f9b05628                                   C:\QMK_MSYS\tmp\ccqnqOr4.debug.temp.o
ws2812_bitbang.c.f4ef726e                         C:\QMK_MSYS\tmp\ccSnR1cE.debug.temp.o
                                                  C:\QMK_MSYS\tmp\ccs2W3Vd.ltrans0.ltrans.o
ws2812_dirty                                      .build/obj_vessel_base/quantum/rgb_matrix/rgb_matrix_drivers.o (symbol from plugin)
ws2812_init                                       .build/obj_vessel_base/ws2812_bitbang.o (symbol from plugin)
                                                  .build/obj_vessel_base/quantum/rgb_matrix/rgb_matrix_drivers.o (symbol from plugin)
ws2812_setleds                                    .build/obj_vessel_base/ws2812_bitbang.o (symbol from plugin)
                                                  .build/obj_vessel_base/quantum/rgb_matrix/rgb_matrix_drivers.o (symbol from plugin)
