Archive member included to satisfy reference by file (symbol)

.build/obj_vessel_base/i2c_master.a(i2c_master.o)
                              .build/obj_vessel_base/oled_driver.o (symbol from plugin) (i2c_init)
c:/qmk_msys/mingw64/bin/../lib/gcc/arm-none-eabi/12.2.0/thumb/v7e-m+fp/hard\libgcc.a(_aeabi_ldivmod.o)
                              .build/obj_vessel_base/i2c_master.a(i2c_master.o) (__aeabi_ldivmod)
c:/qmk_msys/mingw64/bin/../lib/gcc/arm-none-eabi/12.2.0/thumb/v7e-m+fp/hard\libgcc.a(_aeabi_uldivmod.o)
                              .build/obj_vessel_base/i2c_master.a(i2c_master.o) (__aeabi_uldivmod)
c:/qmk_msys/mingw64/bin/../lib/gcc/arm-none-eabi/12.2.0/thumb/v7e-m+fp/hard\libgcc.a(_udivmoddi4.o)
                              c:/qmk_msys/mingw64/bin/../lib/gcc/arm-none-eabi/12.2.0/thumb/v7e-m+fp/hard\libgcc.a(_aeabi_ldivmod.o) (__udivmoddi4)
c:/qmk_msys/mingw64/bin/../lib/gcc/arm-none-eabi/12.2.0/thumb/v7e-m+fp/hard\libgcc.a(_dvmd_tls.o)
                              c:/qmk_msys/mingw64/bin/../lib/gcc/arm-none-eabi/12.2.0/thumb/v7e-m+fp/hard\libgcc.a(_aeabi_ldivmod.o) (__aeabi_ldiv0)
c:/qmk_msys/mingw64/bin/../lib/gcc/arm-none-eabi/12.2.0/../../../../arm-none-eabi/lib/thumb/v7e-m+fp/hard\libg_nano.a(libc_a-rand.o)
                              .build/obj_vessel_base/quantum/rgb_matrix/rgb_matrix.o (symbol from plugin) (rand)
c:/qmk_msys/mingw64/bin/../lib/gcc/arm-none-eabi/12.2.0/../../../../arm-none-eabi/lib/thumb/v7e-m+fp/hard\libg_nano.a(libc_a-ctype_.o)
                              .build/obj_vessel_base/quantum/send_string/send_string.o (symbol from plugin) (_ctype_)
c:/qmk_msys/mingw64/bin/../lib/gcc/arm-none-eabi/12.2.0/../../../../arm-none-eabi/lib/thumb/v7e-m+fp/hard\libg_nano.a(libc_a-impure.o)
                              c:/qmk_msys/mingw64/bin/../lib/gcc/arm-none-eabi/12.2.0/../../../../arm-none-eabi/lib/thumb/v7e-m+fp/hard\libg_nano.a(libc_a-rand.o) (_impure_ptr)
c:/qmk_msys/mingw64/bin/../lib/gcc/arm-none-eabi/12.2.0/../../../../arm-none-eabi/lib/thumb/v7e-m+fp/hard\libg_nano.a(libc_a-errno.o)
                              .build/obj_vessel_base/platforms/chibios/syscall-fallbacks.o (symbol from plugin) (__errno)
c:/qmk_msys/mingw64/bin/../lib/gcc/arm-none-eabi/12.2.0/../../../../arm-none-eabi/lib/thumb/v7e-m+fp/hard\libg_nano.a(libc_a-memcpy.o)
                              .build/obj_vessel_base/i2c_master.a(i2c_master.o) (memcpy)
c:/qmk_msys/mingw64/bin/../lib/gcc/arm-none-eabi/12.2.0/../../../../arm-none-eabi/lib/thumb/v7e-m+fp/hard\libg_nano.a(libc_a-assert.o)
                              c:/qmk_msys/mingw64/bin/../lib/gcc/arm-none-eabi/12.2.0/../../../../arm-none-eabi/lib/thumb/v7e-m+fp/hard\libg_nano.a(libc_a-rand.o) (__assert_func)
c:/qmk_msys/mingw64/bin/../lib/gcc/arm-none-eabi/12.2.0/../../../../arm-none-eabi/lib/thumb/v7e-m+fp/hard\libg_nano.a(libc_a-malloc.o)
                              c:/qmk_msys/mingw64/bin/../lib/gcc/arm-none-eabi/12.2.0/../../../../arm-none-eabi/lib/thumb/v7e-m+fp/hard\libg_nano.a(libc_a-rand.o) (malloc)
c:/qmk_msys/mingw64/bin/../lib/gcc/arm-none-eabi/12.2.0/../../../../arm-none-eabi/lib/thumb/v7e-m+fp/hard\libg_nano.a(libc_a-mallocr.o)
                              c:/qmk_msys/mingw64/bin/../lib/gcc/arm-none-eabi/12.2.0/../../../../arm-none-eabi/lib/thumb/v7e-m+fp/hard\libg_nano.a(libc_a-malloc.o) (_malloc_r)
c:/qmk_msys/mingw64/bin/../lib/gcc/arm-none-eabi/12.2.0/../../../../arm-none-eabi/lib/thumb/v7e-m+fp/hard\libg_nano.a(libc_a-mlock.o)
                              c:/qmk_msys/mingw64/bin/../lib/gcc/arm-none-eabi/12.2.0/../../../../arm-none-eabi/lib/thumb/v7e-m+fp/hard\libg_nano.a(libc_a-mallocr.o) (__malloc_lock)
c:/qmk_msys/mingw64/bin/../lib/gcc/arm-none-eabi/12.2.0/../../../../arm-none-eabi/lib/thumb/v7e-m+fp/hard\libg_nano.a(libc_a-fprintf.o)
                              c:/qmk_msys/mingw64/bin/../lib/gcc/arm-none-eabi/12.2.0/../../../../arm-none-eabi/lib/thumb/v7e-m+fp/hard\libg_nano.a(libc_a-assert.o) (fiprintf)
c:/qmk_msys/mingw64/bin/../lib/gcc/arm-none-eabi/12.2.0/../../../../arm-none-eabi/lib/thumb/v7e-m+fp/hard\libg_nano.a(libc_a-lock.o)
                              c:/qmk_msys/mingw64/bin/../lib/gcc/arm-none-eabi/12.2.0/../../../../arm-none-eabi/lib/thumb/v7e-m+fp/hard\libg_nano.a(libc_a-mlock.o) (__retarget_lock_acquire_recursive)
c:/qmk_msys/mingw64/bin/../lib/gcc/arm-none-eabi/12.2.0/../../../../arm-none-eabi/lib/thumb/v7e-m+fp/hard\libg_nano.a(libc_a-abort.o)
                              c:/qmk_msys/mingw64/bin/../lib/gcc/arm-none-eabi/12.2.0/../../../../arm-none-eabi/lib/thumb/v7e-m+fp/hard\libg_nano.a(libc_a-assert.o) (abort)
c:/qmk_msys/mingw64/bin/../lib/gcc/arm-none-eabi/12.2.0/../../../../arm-none-eabi/lib/thumb/v7e-m+fp/hard\libg_nano.a(libc_a-freer.o)
                              c:/qmk_msys/mingw64/bin/../lib/gcc/arm-none-eabi/12.2.0/../../../../arm-none-eabi/lib/thumb/v7e-m+fp/hard\libg_nano.a(libc_a-malloc.o) (_free_r)
c:/qmk_msys/mingw64/bin/../lib/gcc/arm-none-eabi/12.2.0/../../../../arm-none-eabi/lib/thumb/v7e-m+fp/hard\libg_nano.a(libc_a-nano-vfprintf.o)
                              c:/qmk_msys/mingw64/bin/../lib/gcc/arm-none-eabi/12.2.0/../../../../arm-none-eabi/lib/thumb/v7e-m+fp/hard\libg_nano.a(libc_a-fprintf.o) (_vfprintf_r)
c:/qmk_msys/mingw64/bin/../lib/gcc/arm-none-eabi/12.2.0/../../../../arm-none-eabi/lib/thumb/v7e-m+fp/hard\libg_nano.a(libc_a-nano-vfprintf_i.o)
                              c:/qmk_msys/mingw64/bin/../lib/gcc/arm-none-eabi/12.2.0/../../../../arm-none-eabi/lib/thumb/v7e-m+fp/hard\libg_nano.a(libc_a-nano-vfprintf.o) (_printf_i)
c:/qmk_msys/mingw64/bin/../lib/gcc/arm-none-eabi/12.2.0/../../../../arm-none-eabi/lib/thumb/v7e-m+fp/hard\libg_nano.a(libc_a-findfp.o)
                              c:/qmk_msys/mingw64/bin/../lib/gcc/arm-none-eabi/12.2.0/../../../../arm-none-eabi/lib/thumb/v7e-m+fp/hard\libg_nano.a(libc_a-nano-vfprintf.o) (__sinit)
c:/qmk_msys/mingw64/bin/../lib/gcc/arm-none-eabi/12.2.0/../../../../arm-none-eabi/lib/thumb/v7e-m+fp/hard\libg_nano.a(libc_a-fvwrite.o)
                              c:/qmk_msys/mingw64/bin/../lib/gcc/arm-none-eabi/12.2.0/../../../../arm-none-eabi/lib/thumb/v7e-m+fp/hard\libg_nano.a(libc_a-nano-vfprintf.o) (__sfvwrite_r)
c:/qmk_msys/mingw64/bin/../lib/gcc/arm-none-eabi/12.2.0/../../../../arm-none-eabi/lib/thumb/v7e-m+fp/hard\libg_nano.a(libc_a-fwalk.o)
                              c:/qmk_msys/mingw64/bin/../lib/gcc/arm-none-eabi/12.2.0/../../../../arm-none-eabi/lib/thumb/v7e-m+fp/hard\libg_nano.a(libc_a-findfp.o) (_fwalk_sglue)
c:/qmk_msys/mingw64/bin/../lib/gcc/arm-none-eabi/12.2.0/../../../../arm-none-eabi/lib/thumb/v7e-m+fp/hard\libg_nano.a(libc_a-stdio.o)
                              c:/qmk_msys/mingw64/bin/../lib/gcc/arm-none-eabi/12.2.0/../../../../arm-none-eabi/lib/thumb/v7e-m+fp/hard\libg_nano.a(libc_a-findfp.o) (__sread)
c:/qmk_msys/mingw64/bin/../lib/gcc/arm-none-eabi/12.2.0/../../../../arm-none-eabi/lib/thumb/v7e-m+fp/hard\libg_nano.a(libc_a-wbuf.o)
                              c:/qmk_msys/mingw64/bin/../lib/gcc/arm-none-eabi/12.2.0/../../../../arm-none-eabi/lib/thumb/v7e-m+fp/hard\libg_nano.a(libc_a-nano-vfprintf.o) (__swbuf_r)
c:/qmk_msys/mingw64/bin/../lib/gcc/arm-none-eabi/12.2.0/../../../../arm-none-eabi/lib/thumb/v7e-m+fp/hard\libg_nano.a(libc_a-wsetup.o)
                              c:/qmk_msys/mingw64/bin/../lib/gcc/arm-none-eabi/12.2.0/../../../../arm-none-eabi/lib/thumb/v7e-m+fp/hard\libg_nano.a(libc_a-nano-vfprintf.o) (__swsetup_r)
c:/qmk_msys/mingw64/bin/../lib/gcc/arm-none-eabi/12.2.0/../../../../arm-none-eabi/lib/thumb/v7e-m+fp/hard\libg_nano.a(libc_a-memmove.o)
                              c:/qmk_msys/mingw64/bin/../lib/gcc/arm-none-eabi/12.2.0/../../../../arm-none-eabi/lib/thumb/v7e-m+fp/hard\libg_nano.a(libc_a-fvwrite.o) (memmove)
c:/qmk_msys/mingw64/bin/../lib/gcc/arm-none-eabi/12.2.0/../../../../arm-none-eabi/lib/thumb/v7e-m+fp/hard\libg_nano.a(libc_a-memset.o)
                              c:/qmk_msys/mingw64/bin/../lib/gcc/arm-none-eabi/12.2.0/../../../../arm-none-eabi/lib/thumb/v7e-m+fp/hard\libg_nano.a(libc_a-findfp.o) (memset)
c:/qmk_msys/mingw64/bin/../lib/gcc/arm-none-eabi/12.2.0/../../../../arm-none-eabi/lib/thumb/v7e-m+fp/hard\libg_nano.a(libc_a-signal.o)
                              c:/qmk_msys/mingw64/bin/../lib/gcc/arm-none-eabi/12.2.0/../../../../arm-none-eabi/lib/thumb/v7e-m+fp/hard\libg_nano.a(libc_a-abort.o) (raise)
c:/qmk_msys/mingw64/bin/../lib/gcc/arm-none-eabi/12.2.0/../../../../arm-none-eabi/lib/thumb/v7e-m+fp/hard\libg_nano.a(libc_a-signalr.o)
                              c:/qmk_msys/mingw64/bin/../lib/gcc/arm-none-eabi/12.2.0/../../../../arm-none-eabi/lib/thumb/v7e-m+fp/hard\libg_nano.a(libc_a-signal.o) (_kill_r)
c:/qmk_msys/mingw64/bin/../lib/gcc/arm-none-eabi/12.2.0/../../../../arm-none-eabi/lib/thumb/v7e-m+fp/hard\libg_nano.a(libc_a-memchr.o)
                              c:/qmk_msys/mingw64/bin/../lib/gcc/arm-none-eabi/12.2.0/../../../../arm-none-eabi/lib/thumb/v7e-m+fp/hard\libg_nano.a(libc_a-nano-vfprintf.o) (memchr)
c:/qmk_msys/mingw64/bin/../lib/gcc/arm-none-eabi/12.2.0/../../../../arm-none-eabi/lib/thumb/v7e-m+fp/hard\libg_nano.a(libc_a-reallocr.o)
                              c:/qmk_msys/mingw64/bin/../lib/gcc/arm-none-eabi/12.2.0/../../../../arm-none-eabi/lib/thumb/v7e-m+fp/hard\libg_nano.a(libc_a-fvwrite.o) (_realloc_r)
c:/qmk_msys/mingw64/bin/../lib/gcc/arm-none-eabi/12.2.0/../../../../arm-none-eabi/lib/thumb/v7e-m+fp/hard\libg_nano.a(libc_a-fflush.o)
                              c:/qmk_msys/mingw64/bin/../lib/gcc/arm-none-eabi/12.2.0/../../../../arm-none-eabi/lib/thumb/v7e-m+fp/hard\libg_nano.a(libc_a-findfp.o) (_fflush_r)
c:/qmk_msys/mingw64/bin/../lib/gcc/arm-none-eabi/12.2.0/../../../../arm-none-eabi/lib/thumb/v7e-m+fp/hard\libg_nano.a(libc_a-makebuf.o)
                              c:/qmk_msys/mingw64/bin/../lib/gcc/arm-none-eabi/12.2.0/../../../../arm-none-eabi/lib/thumb/v7e-m+fp/hard\libg_nano.a(libc_a-wsetup.o) (__smakebuf_r)
c:/qmk_msys/mingw64/bin/../lib/gcc/arm-none-eabi/12.2.0/../../../../arm-none-eabi/lib/thumb/v7e-m+fp/hard\libg_nano.a(libc_a-reent.o)
                              c:/qmk_msys/mingw64/bin/../lib/gcc/arm-none-eabi/12.2.0/../../../../arm-none-eabi/lib/thumb/v7e-m+fp/hard\libg_nano.a(libc_a-signalr.o) (errno)
c:/qmk_msys/mingw64/bin/../lib/gcc/arm-none-eabi/12.2.0/../../../../arm-none-eabi/lib/thumb/v7e-m+fp/hard\libg_nano.a(libc_a-msizer.o)
                              c:/qmk_msys/mingw64/bin/../lib/gcc/arm-none-eabi/12.2.0/../../../../arm-none-eabi/lib/thumb/v7e-m+fp/hard\libg_nano.a(libc_a-reallocr.o) (_malloc_usable_size_r)
c:/qmk_msys/mingw64/bin/../lib/gcc/arm-none-eabi/12.2.0/../../../../arm-none-eabi/lib/thumb/v7e-m+fp/hard\libg_nano.a(libc_a-memcmp.o)
                              C:\QMK_MSYS\tmp\cchXQqT6.ltrans0.ltrans.o (memcmp)

Allocating common symbols
Common symbol       size              file

event_queue         0x10              .build/obj_vessel_base/protocol/chibios/usb_main.o (symbol from plugin)
rgb_matrix_config   0x8               .build/obj_vessel_base/quantum/rgb_matrix/rgb_matrix.o (symbol from plugin)
keymap_config       0x2               .build/obj_vessel_base/quantum/keycode_config.o (symbol from plugin)
event_queue_head    0x1               .build/obj_vessel_base/protocol/chibios/usb_main.o (symbol from plugin)
I2CD1               0x38              C:\QMK_MSYS\tmp\cchXQqT6.ltrans0.ltrans.o
oled_buffer         0x400             .build/obj_vessel_base/oled_driver.o (symbol from plugin)
g_rgb_timer         0x4               .build/obj_vessel_base/quantum/rgb_matrix/rgb_matrix.o (symbol from plugin)
raw_matrix          0x1c              .build/obj_vessel_base/quantum/matrix_common.o (symbol from plugin)
ch_system           0x8               .build/obj_vessel_base/lib/chibios/os/rt/src/chsys.o (symbol from plugin)
rgb_matrix_ws2812_array
                    0x132             .build/obj_vessel_base/quantum/rgb_matrix/rgb_matrix_drivers.o (symbol from plugin)
oled_timeout        0x4               .build/obj_vessel_base/oled_driver.o (symbol from plugin)
USBD1               0x78              .build/obj_vessel_base/lib/chibios/os/hal/ports/STM32/LLD/OTGv1/hal_usb_lld.o (symbol from plugin)
matrix              0x1c              .build/obj_vessel_base/quantum/matrix_common.o (symbol from plugin)
tp_buttons          0x4               .build/obj_vessel_base/quantum/action.o (symbol from plugin)
ch0                 0x60              .build/obj_vessel_base/lib/chibios/os/rt/src/chsys.o (symbol from plugin)
g_last_hit_tracker  0x29              .build/obj_vessel_base/quantum/rgb_matrix/rgb_matrix.o (symbol from plugin)
event_queue_tail    0x1               .build/obj_vessel_base/protocol/chibios/usb_main.o (symbol from plugin)
ch_memcore          0x8               .build/obj_vessel_base/lib/chibios/os/oslib/src/chmemcore.o (symbol from plugin)
oled_cursor         0x4               .build/obj_vessel_base/oled_driver.o (symbol from plugin)

Discarded input sections

 .text          0x00000000        0x0 C:\QMK_MSYS\tmp\cchXQqT6.ltrans0.ltrans.o
 .data          0x00000000        0x0 C:\QMK_MSYS\tmp\cchXQqT6.ltrans0.ltrans.o
 .bss           0x00000000        0x0 C:\QMK_MSYS\tmp\cchXQqT6.ltrans0.ltrans.o
 .text.putchar_via_gadget
                0x00000000       0x2a C:\QMK_MSYS\tmp\cchXQqT6.ltrans0.ltrans.o
 .text.putchar_wrapper
                0x00000000        0xc C:\QMK_MSYS\tmp\cchXQqT6.ltrans0.ltrans.o
 .text.out_rev_
                0x00000000       0x60 C:\QMK_MSYS\tmp\cchXQqT6.ltrans0.ltrans.o
 .text.print_integer
                0x00000000      0x256 C:\QMK_MSYS\tmp\cchXQqT6.ltrans0.ltrans.o
 .rodata.vsnprintf_impl.constprop.0.str1.1
                0x00000000        0xd C:\QMK_MSYS\tmp\cchXQqT6.ltrans0.ltrans.o
 .text.vsnprintf_impl.constprop.0
                0x00000000      0x384 C:\QMK_MSYS\tmp\cchXQqT6.ltrans0.ltrans.o
 .text.vprintf  0x00000000       0x28 C:\QMK_MSYS\tmp\cchXQqT6.ltrans0.ltrans.o
 .text.vsnprintf
                0x00000000       0x30 C:\QMK_MSYS\tmp\cchXQqT6.ltrans0.ltrans.o
 .text.vsprintf
                0x00000000        0xc C:\QMK_MSYS\tmp\cchXQqT6.ltrans0.ltrans.o
 .text.sprintf  0x00000000       0x1a C:\QMK_MSYS\tmp\cchXQqT6.ltrans0.ltrans.o
 .text.snprintf
                0x00000000       0x1a C:\QMK_MSYS\tmp\cchXQqT6.ltrans0.ltrans.o
 .text.i2cMasterReceiveTimeout
                0x00000000       0xdc C:\QMK_MSYS\tmp\cchXQqT6.ltrans0.ltrans.o
 .text._open_r  0x00000000        0xa C:\QMK_MSYS\tmp\cchXQqT6.ltrans0.ltrans.o
 .rodata.__cxa_pure_virtual.str1.1
                0x00000000        0xd C:\QMK_MSYS\tmp\cchXQqT6.ltrans0.ltrans.o
 .text.__cxa_pure_virtual
                0x00000000       0x14 C:\QMK_MSYS\tmp\cchXQqT6.ltrans0.ltrans.o
 .text._link_r  0x00000000        0xa C:\QMK_MSYS\tmp\cchXQqT6.ltrans0.ltrans.o
 .text._unlink_r
                0x00000000        0xa C:\QMK_MSYS\tmp\cchXQqT6.ltrans0.ltrans.o
 .text._times_r
                0x00000000        0xa C:\QMK_MSYS\tmp\cchXQqT6.ltrans0.ltrans.o
 .text._gettimeofday_r
                0x00000000        0xa C:\QMK_MSYS\tmp\cchXQqT6.ltrans0.ltrans.o
 .bss.__dso_handle
                0x00000000        0x4 C:\QMK_MSYS\tmp\cchXQqT6.ltrans0.ltrans.o
 .comment       0x00000000       0x13 C:\QMK_MSYS\tmp\ccMndiui.debug.temp.o
 .debug_info    0x00000000      0x272 C:\QMK_MSYS\tmp\cc0Fm2kx.debug.temp.o
 .debug_abbrev  0x00000000       0xde C:\QMK_MSYS\tmp\cc0Fm2kx.debug.temp.o
 .debug_line    0x00000000       0x71 C:\QMK_MSYS\tmp\cc0Fm2kx.debug.temp.o
 .debug_str     0x00000000      0x2d3 C:\QMK_MSYS\tmp\cc0Fm2kx.debug.temp.o
 .debug_line_str
                0x00000000      0x187 C:\QMK_MSYS\tmp\cc0Fm2kx.debug.temp.o
 .comment       0x00000000       0x13 C:\QMK_MSYS\tmp\cc0Fm2kx.debug.temp.o
 .comment       0x00000000       0x13 C:\QMK_MSYS\tmp\ccasmfpM.debug.temp.o
 .comment       0x00000000       0x13 C:\QMK_MSYS\tmp\cc4deco1.debug.temp.o
 .debug_info    0x00000000      0x1cd C:\QMK_MSYS\tmp\cckR7syg.debug.temp.o
 .debug_abbrev  0x00000000       0x7f C:\QMK_MSYS\tmp\cckR7syg.debug.temp.o
 .debug_line    0x00000000       0x4c C:\QMK_MSYS\tmp\cckR7syg.debug.temp.o
 .debug_str     0x00000000      0x25f C:\QMK_MSYS\tmp\cckR7syg.debug.temp.o
 .debug_line_str
                0x00000000       0xbe C:\QMK_MSYS\tmp\cckR7syg.debug.temp.o
 .comment       0x00000000       0x13 C:\QMK_MSYS\tmp\cckR7syg.debug.temp.o
 .comment       0x00000000       0x13 C:\QMK_MSYS\tmp\cccw8nFv.debug.temp.o
 .comment       0x00000000       0x13 C:\QMK_MSYS\tmp\ccOuT7LJ.debug.temp.o
 .comment       0x00000000       0x13 C:\QMK_MSYS\tmp\ccoa1H7X.debug.temp.o
 .comment       0x00000000       0x13 C:\QMK_MSYS\tmp\cce2Mpnc.debug.temp.o
 .comment       0x00000000       0x13 C:\QMK_MSYS\tmp\ccmx6ARq.debug.temp.o
 .comment       0x00000000       0x13 C:\QMK_MSYS\tmp\ccs1VMhF.debug.temp.o
 .comment       0x00000000       0x13 C:\QMK_MSYS\tmp\cccoT1TT.debug.temp.o
 .comment       0x00000000       0x13 C:\QMK_MSYS\tmp\ccYZ9Et8.debug.temp.o
 .comment       0x00000000       0x13 C:\QMK_MSYS\tmp\ccKJyyMq.debug.temp.o
 .debug_info    0x00000000       0x6c C:\QMK_MSYS\tmp\ccOqHm1I.debug.temp.o
 .debug_abbrev  0x00000000       0x26 C:\QMK_MSYS\tmp\ccOqHm1I.debug.temp.o
 .debug_line    0x00000000       0x31 C:\QMK_MSYS\tmp\ccOqHm1I.debug.temp.o
 .debug_str     0x00000000      0x1e1 C:\QMK_MSYS\tmp\ccOqHm1I.debug.temp.o
 .debug_line_str
                0x00000000       0x34 C:\QMK_MSYS\tmp\ccOqHm1I.debug.temp.o
 .comment       0x00000000       0x13 C:\QMK_MSYS\tmp\ccOqHm1I.debug.temp.o
 .comment       0x00000000       0x13 C:\QMK_MSYS\tmp\ccOpoZr1.debug.temp.o
 .comment       0x00000000       0x13 C:\QMK_MSYS\tmp\cccVh7Rj.debug.temp.o
 .comment       0x00000000       0x13 C:\QMK_MSYS\tmp\ccYOVncC.debug.temp.o
 .comment       0x00000000       0x13 C:\QMK_MSYS\tmp\ccK2PbMU.debug.temp.o
 .comment       0x00000000       0x13 C:\QMK_MSYS\tmp\ccQSqSid.debug.temp.o
 .comment       0x00000000       0x13 C:\QMK_MSYS\tmp\ccSOvWMv.debug.temp.o
 .comment       0x00000000       0x13 C:\QMK_MSYS\tmp\ccgeiitO.debug.temp.o
 .comment       0x00000000       0x13 C:\QMK_MSYS\tmp\cc8Mz186.debug.temp.o
 .comment       0x00000000       0x13 C:\QMK_MSYS\tmp\ccGPrLQo.debug.temp.o
 .comment       0x00000000       0x13 C:\QMK_MSYS\tmp\ccoBU7tG.debug.temp.o
 .comment       0x00000000       0x13 C:\QMK_MSYS\tmp\ccYssG5X.debug.temp.o
 .comment       0x00000000       0x13 C:\QMK_MSYS\tmp\cc84iN5f.debug.temp.o
 .comment       0x00000000       0x13 C:\QMK_MSYS\tmp\ccaR4n0x.debug.temp.o
 .comment       0x00000000       0x13 C:\QMK_MSYS\tmp\ccCUU38P.debug.temp.o
 .comment       0x00000000       0x13 C:\QMK_MSYS\tmp\ccmj5Wg8.debug.temp.o
 .comment       0x00000000       0x13 C:\QMK_MSYS\tmp\cc8wVEiq.debug.temp.o
 .comment       0x00000000       0x13 C:\QMK_MSYS\tmp\ccSLYenH.debug.temp.o
 .comment       0x00000000       0x13 C:\QMK_MSYS\tmp\cc29RKnY.debug.temp.o
 .comment       0x00000000       0x13 C:\QMK_MSYS\tmp\ccqxbkCf.debug.temp.o
 .comment       0x00000000       0x13 C:\QMK_MSYS\tmp\ccUrqJ2w.debug.temp.o
 .comment       0x00000000       0x13 C:\QMK_MSYS\tmp\ccG537mO.debug.temp.o
 .comment       0x00000000       0x13 C:\QMK_MSYS\tmp\cccZZvV5.debug.temp.o
 .comment       0x00000000       0x13 C:\QMK_MSYS\tmp\cc8PJrsn.debug.temp.o
 .comment       0x00000000       0x13 C:\QMK_MSYS\tmp\ccIZWGTE.debug.temp.o
 .comment       0x00000000       0x13 C:\QMK_MSYS\tmp\cc8nUmrV.debug.temp.o
 .debug_info    0x00000000     0x2643 C:\QMK_MSYS\tmp\cceiRJUb.debug.temp.o
 .debug_abbrev  0x00000000      0x181 C:\QMK_MSYS\tmp\cceiRJUb.debug.temp.o
 .debug_line    0x00000000       0x7b C:\QMK_MSYS\tmp\cceiRJUb.debug.temp.o
 .debug_str     0x00000000     0x438d C:\QMK_MSYS\tmp\cceiRJUb.debug.temp.o
 .debug_line_str
                0x00000000      0x172 C:\QMK_MSYS\tmp\cceiRJUb.debug.temp.o
 .comment       0x00000000       0x13 C:\QMK_MSYS\tmp\cceiRJUb.debug.temp.o
 .comment       0x00000000       0x13 C:\QMK_MSYS\tmp\ccw6TSBs.debug.temp.o
 .comment       0x00000000       0x13 C:\QMK_MSYS\tmp\ccsnFIeJ.debug.temp.o
 .comment       0x00000000       0x13 C:\QMK_MSYS\tmp\ccaPNr4Z.debug.temp.o
 .comment       0x00000000       0x13 C:\QMK_MSYS\tmp\cciuobZg.debug.temp.o
 .comment       0x00000000       0x13 C:\QMK_MSYS\tmp\ccsytQAB.debug.temp.o
 .debug_info    0x00000000       0x96 C:\QMK_MSYS\tmp\cc2fSi8V.debug.temp.o
 .debug_abbrev  0x00000000       0x4c C:\QMK_MSYS\tmp\cc2fSi8V.debug.temp.o
 .debug_line    0x00000000       0x3a C:\QMK_MSYS\tmp\cc2fSi8V.debug.temp.o
 .debug_str     0x00000000      0x22c C:\QMK_MSYS\tmp\cc2fSi8V.debug.temp.o
 .debug_line_str
                0x00000000       0x59 C:\QMK_MSYS\tmp\cc2fSi8V.debug.temp.o
 .comment       0x00000000       0x13 C:\QMK_MSYS\tmp\cc2fSi8V.debug.temp.o
 .comment       0x00000000       0x13 C:\QMK_MSYS\tmp\cc8HolSg.debug.temp.o
 .debug_info    0x00000000       0x1e C:\QMK_MSYS\tmp\ccSqBGAB.debug.temp.o
 .debug_abbrev  0x00000000       0x10 C:\QMK_MSYS\tmp\ccSqBGAB.debug.temp.o
 .debug_line    0x00000000       0x31 C:\QMK_MSYS\tmp\ccSqBGAB.debug.temp.o
 .debug_str     0x00000000      0x163 C:\QMK_MSYS\tmp\ccSqBGAB.debug.temp.o
 .debug_line_str
                0x00000000       0x40 C:\QMK_MSYS\tmp\ccSqBGAB.debug.temp.o
 .comment       0x00000000       0x13 C:\QMK_MSYS\tmp\ccSqBGAB.debug.temp.o
 .debug_info    0x00000000       0xd4 C:\QMK_MSYS\tmp\cc8TVBvW.debug.temp.o
 .debug_abbrev  0x00000000       0x9f C:\QMK_MSYS\tmp\cc8TVBvW.debug.temp.o
 .debug_line    0x00000000       0x4c C:\QMK_MSYS\tmp\cc8TVBvW.debug.temp.o
 .debug_str     0x00000000      0x23e C:\QMK_MSYS\tmp\cc8TVBvW.debug.temp.o
 .debug_line_str
                0x00000000       0xbe C:\QMK_MSYS\tmp\cc8TVBvW.debug.temp.o
 .comment       0x00000000       0x13 C:\QMK_MSYS\tmp\cc8TVBvW.debug.temp.o
 .debug_info    0x00000000       0xda C:\QMK_MSYS\tmp\cc8OO7oh.debug.temp.o
 .debug_abbrev  0x00000000       0x8b C:\QMK_MSYS\tmp\cc8OO7oh.debug.temp.o
 .debug_line    0x00000000       0x55 C:\QMK_MSYS\tmp\cc8OO7oh.debug.temp.o
 .debug_str     0x00000000      0x22e C:\QMK_MSYS\tmp\cc8OO7oh.debug.temp.o
 .debug_line_str
                0x00000000       0xf2 C:\QMK_MSYS\tmp\cc8OO7oh.debug.temp.o
 .comment       0x00000000       0x13 C:\QMK_MSYS\tmp\cc8OO7oh.debug.temp.o
 .comment       0x00000000       0x13 C:\QMK_MSYS\tmp\ccWN46cC.debug.temp.o
 .comment       0x00000000       0x13 C:\QMK_MSYS\tmp\ccc9IsfX.debug.temp.o
 .comment       0x00000000       0x13 C:\QMK_MSYS\tmp\cc6gAfgi.debug.temp.o
 .comment       0x00000000       0x13 C:\QMK_MSYS\tmp\ccM929jC.debug.temp.o
 .comment       0x00000000       0x13 C:\QMK_MSYS\tmp\ccm7LIlW.debug.temp.o
 .comment       0x00000000       0x13 C:\QMK_MSYS\tmp\cc4YVBxg.debug.temp.o
 .comment       0x00000000       0x13 C:\QMK_MSYS\tmp\cc4Z73GA.debug.temp.o
 .comment       0x00000000       0x13 C:\QMK_MSYS\tmp\cccb7ZLU.debug.temp.o
 .comment       0x00000000       0x13 C:\QMK_MSYS\tmp\ccwICi4e.debug.temp.o
 .comment       0x00000000       0x13 C:\QMK_MSYS\tmp\ccMloLwz.debug.temp.o
 .debug_info    0x00000000     0x127c C:\QMK_MSYS\tmp\ccsIKUTS.debug.temp.o
 .debug_abbrev  0x00000000      0x22c C:\QMK_MSYS\tmp\ccsIKUTS.debug.temp.o
 .debug_line    0x00000000       0xb8 C:\QMK_MSYS\tmp\ccsIKUTS.debug.temp.o
 .debug_str     0x00000000      0xc93 C:\QMK_MSYS\tmp\ccsIKUTS.debug.temp.o
 .debug_line_str
                0x00000000      0x285 C:\QMK_MSYS\tmp\ccsIKUTS.debug.temp.o
 .comment       0x00000000       0x13 C:\QMK_MSYS\tmp\ccsIKUTS.debug.temp.o
 .comment       0x00000000       0x13 C:\QMK_MSYS\tmp\ccG4x2qc.debug.temp.o
 .comment       0x00000000       0x13 C:\QMK_MSYS\tmp\ccy1h0bw.debug.temp.o
 .comment       0x00000000       0x13 C:\QMK_MSYS\tmp\ccETjqTP.debug.temp.o
 .debug_info    0x00000000       0x73 C:\QMK_MSYS\tmp\cc2OgDO9.debug.temp.o
 .debug_abbrev  0x00000000       0x26 C:\QMK_MSYS\tmp\cc2OgDO9.debug.temp.o
 .debug_line    0x00000000       0x31 C:\QMK_MSYS\tmp\cc2OgDO9.debug.temp.o
 .debug_str     0x00000000      0x1f7 C:\QMK_MSYS\tmp\cc2OgDO9.debug.temp.o
 .debug_line_str
                0x00000000       0x3f C:\QMK_MSYS\tmp\cc2OgDO9.debug.temp.o
 .comment       0x00000000       0x13 C:\QMK_MSYS\tmp\cc2OgDO9.debug.temp.o
 .debug_info    0x00000000       0x73 C:\QMK_MSYS\tmp\ccaQepFt.debug.temp.o
 .debug_abbrev  0x00000000       0x26 C:\QMK_MSYS\tmp\ccaQepFt.debug.temp.o
 .debug_line    0x00000000       0x31 C:\QMK_MSYS\tmp\ccaQepFt.debug.temp.o
 .debug_str     0x00000000      0x1f7 C:\QMK_MSYS\tmp\ccaQepFt.debug.temp.o
 .debug_line_str
                0x00000000       0x3f C:\QMK_MSYS\tmp\ccaQepFt.debug.temp.o
 .comment       0x00000000       0x13 C:\QMK_MSYS\tmp\ccaQepFt.debug.temp.o
 .comment       0x00000000       0x13 C:\QMK_MSYS\tmp\cc4X53xM.debug.temp.o
 .comment       0x00000000       0x13 C:\QMK_MSYS\tmp\cc8s0jj5.debug.temp.o
 .comment       0x00000000       0x13 C:\QMK_MSYS\tmp\ccGLUYho.debug.temp.o
 .comment       0x00000000       0x13 C:\QMK_MSYS\tmp\ccoFfdsH.debug.temp.o
 .debug_info    0x00000000       0x73 C:\QMK_MSYS\tmp\ccEUwoy0.debug.temp.o
 .debug_abbrev  0x00000000       0x26 C:\QMK_MSYS\tmp\ccEUwoy0.debug.temp.o
 .debug_line    0x00000000       0x31 C:\QMK_MSYS\tmp\ccEUwoy0.debug.temp.o
 .debug_str     0x00000000      0x1f4 C:\QMK_MSYS\tmp\ccEUwoy0.debug.temp.o
 .debug_line_str
                0x00000000       0x3c C:\QMK_MSYS\tmp\ccEUwoy0.debug.temp.o
 .comment       0x00000000       0x13 C:\QMK_MSYS\tmp\ccEUwoy0.debug.temp.o
 .debug_info    0x00000000       0x73 C:\QMK_MSYS\tmp\ccycb0Rj.debug.temp.o
 .debug_abbrev  0x00000000       0x26 C:\QMK_MSYS\tmp\ccycb0Rj.debug.temp.o
 .debug_line    0x00000000       0x31 C:\QMK_MSYS\tmp\ccycb0Rj.debug.temp.o
 .debug_str     0x00000000      0x1f7 C:\QMK_MSYS\tmp\ccycb0Rj.debug.temp.o
 .debug_line_str
                0x00000000       0x3f C:\QMK_MSYS\tmp\ccycb0Rj.debug.temp.o
 .comment       0x00000000       0x13 C:\QMK_MSYS\tmp\ccycb0Rj.debug.temp.o
 .debug_info    0x00000000       0x73 C:\QMK_MSYS\tmp\ccGNr66C.debug.temp.o
 .debug_abbrev  0x00000000       0x26 C:\QMK_MSYS\tmp\ccGNr66C.debug.temp.o
 .debug_line    0x00000000       0x31 C:\QMK_MSYS\tmp\ccGNr66C.debug.temp.o
 .debug_str     0x00000000      0x1fa C:\QMK_MSYS\tmp\ccGNr66C.debug.temp.o
 .debug_line_str
                0x00000000       0x42 C:\QMK_MSYS\tmp\ccGNr66C.debug.temp.o
 .comment       0x00000000       0x13 C:\QMK_MSYS\tmp\ccGNr66C.debug.temp.o
 .debug_info    0x00000000      0xb4c C:\QMK_MSYS\tmp\cckznt3Z.debug.temp.o
 .debug_abbrev  0x00000000      0x2b8 C:\QMK_MSYS\tmp\cckznt3Z.debug.temp.o
 .debug_line    0x00000000       0xa2 C:\QMK_MSYS\tmp\cckznt3Z.debug.temp.o
 .debug_str     0x00000000      0x715 C:\QMK_MSYS\tmp\cckznt3Z.debug.temp.o
 .debug_line_str
                0x00000000      0x1f4 C:\QMK_MSYS\tmp\cckznt3Z.debug.temp.o
 .comment       0x00000000       0x13 C:\QMK_MSYS\tmp\cckznt3Z.debug.temp.o
 .comment       0x00000000       0x13 C:\QMK_MSYS\tmp\ccWF6BUm.debug.temp.o
 .debug_info    0x00000000       0x73 C:\QMK_MSYS\tmp\ccKevWZJ.debug.temp.o
 .debug_abbrev  0x00000000       0x26 C:\QMK_MSYS\tmp\ccKevWZJ.debug.temp.o
 .debug_line    0x00000000       0x31 C:\QMK_MSYS\tmp\ccKevWZJ.debug.temp.o
 .debug_str     0x00000000      0x1f6 C:\QMK_MSYS\tmp\ccKevWZJ.debug.temp.o
 .debug_line_str
                0x00000000       0x3e C:\QMK_MSYS\tmp\ccKevWZJ.debug.temp.o
 .comment       0x00000000       0x13 C:\QMK_MSYS\tmp\ccKevWZJ.debug.temp.o
 .debug_info    0x00000000      0xd25 C:\QMK_MSYS\tmp\cc4Xm7Z6.debug.temp.o
 .debug_abbrev  0x00000000      0x2a6 C:\QMK_MSYS\tmp\cc4Xm7Z6.debug.temp.o
 .debug_line    0x00000000       0xa7 C:\QMK_MSYS\tmp\cc4Xm7Z6.debug.temp.o
 .debug_str     0x00000000      0x7eb C:\QMK_MSYS\tmp\cc4Xm7Z6.debug.temp.o
 .debug_line_str
                0x00000000      0x205 C:\QMK_MSYS\tmp\cc4Xm7Z6.debug.temp.o
 .comment       0x00000000       0x13 C:\QMK_MSYS\tmp\cc4Xm7Z6.debug.temp.o
 .debug_info    0x00000000       0x73 C:\QMK_MSYS\tmp\ccsfLspu.debug.temp.o
 .debug_abbrev  0x00000000       0x26 C:\QMK_MSYS\tmp\ccsfLspu.debug.temp.o
 .debug_line    0x00000000       0x31 C:\QMK_MSYS\tmp\ccsfLspu.debug.temp.o
 .debug_str     0x00000000      0x1f5 C:\QMK_MSYS\tmp\ccsfLspu.debug.temp.o
 .debug_line_str
                0x00000000       0x3d C:\QMK_MSYS\tmp\ccsfLspu.debug.temp.o
 .comment       0x00000000       0x13 C:\QMK_MSYS\tmp\ccsfLspu.debug.temp.o
 .debug_info    0x00000000       0x73 C:\QMK_MSYS\tmp\ccAMpKLR.debug.temp.o
 .debug_abbrev  0x00000000       0x26 C:\QMK_MSYS\tmp\ccAMpKLR.debug.temp.o
 .debug_line    0x00000000       0x31 C:\QMK_MSYS\tmp\ccAMpKLR.debug.temp.o
 .debug_str     0x00000000      0x1f9 C:\QMK_MSYS\tmp\ccAMpKLR.debug.temp.o
 .debug_line_str
                0x00000000       0x41 C:\QMK_MSYS\tmp\ccAMpKLR.debug.temp.o
 .comment       0x00000000       0x13 C:\QMK_MSYS\tmp\ccAMpKLR.debug.temp.o
 .comment       0x00000000       0x13 C:\QMK_MSYS\tmp\ccyaeabe.debug.temp.o
 .debug_info    0x00000000       0x73 C:\QMK_MSYS\tmp\ccwCCBsA.debug.temp.o
 .debug_abbrev  0x00000000       0x26 C:\QMK_MSYS\tmp\ccwCCBsA.debug.temp.o
 .debug_line    0x00000000       0x31 C:\QMK_MSYS\tmp\ccwCCBsA.debug.temp.o
 .debug_str     0x00000000      0x1fd C:\QMK_MSYS\tmp\ccwCCBsA.debug.temp.o
 .debug_line_str
                0x00000000       0x45 C:\QMK_MSYS\tmp\ccwCCBsA.debug.temp.o
 .comment       0x00000000       0x13 C:\QMK_MSYS\tmp\ccwCCBsA.debug.temp.o
 .debug_info    0x00000000       0x73 C:\QMK_MSYS\tmp\ccgLal1W.debug.temp.o
 .debug_abbrev  0x00000000       0x26 C:\QMK_MSYS\tmp\ccgLal1W.debug.temp.o
 .debug_line    0x00000000       0x31 C:\QMK_MSYS\tmp\ccgLal1W.debug.temp.o
 .debug_str     0x00000000      0x1fb C:\QMK_MSYS\tmp\ccgLal1W.debug.temp.o
 .debug_line_str
                0x00000000       0x43 C:\QMK_MSYS\tmp\ccgLal1W.debug.temp.o
 .comment       0x00000000       0x13 C:\QMK_MSYS\tmp\ccgLal1W.debug.temp.o
 .comment       0x00000000       0x13 C:\QMK_MSYS\tmp\ccgEWBuj.debug.temp.o
 .debug_info    0x00000000       0x73 C:\QMK_MSYS\tmp\ccOWMqbG.debug.temp.o
 .debug_abbrev  0x00000000       0x26 C:\QMK_MSYS\tmp\ccOWMqbG.debug.temp.o
 .debug_line    0x00000000       0x31 C:\QMK_MSYS\tmp\ccOWMqbG.debug.temp.o
 .debug_str     0x00000000      0x1fd C:\QMK_MSYS\tmp\ccOWMqbG.debug.temp.o
 .debug_line_str
                0x00000000       0x45 C:\QMK_MSYS\tmp\ccOWMqbG.debug.temp.o
 .comment       0x00000000       0x13 C:\QMK_MSYS\tmp\ccOWMqbG.debug.temp.o
 .debug_info    0x00000000       0x73 C:\QMK_MSYS\tmp\ccUEFKO2.debug.temp.o
 .debug_abbrev  0x00000000       0x26 C:\QMK_MSYS\tmp\ccUEFKO2.debug.temp.o
 .debug_line    0x00000000       0x31 C:\QMK_MSYS\tmp\ccUEFKO2.debug.temp.o
 .debug_str     0x00000000      0x1fd C:\QMK_MSYS\tmp\ccUEFKO2.debug.temp.o
 .debug_line_str
                0x00000000       0x45 C:\QMK_MSYS\tmp\ccUEFKO2.debug.temp.o
 .comment       0x00000000       0x13 C:\QMK_MSYS\tmp\ccUEFKO2.debug.temp.o
 .debug_info    0x00000000       0x73 C:\QMK_MSYS\tmp\ccAPTCFp.debug.temp.o
 .debug_abbrev  0x00000000       0x26 C:\QMK_MSYS\tmp\ccAPTCFp.debug.temp.o
 .debug_line    0x00000000       0x31 C:\QMK_MSYS\tmp\ccAPTCFp.debug.temp.o
 .debug_str     0x00000000      0x1fa C:\QMK_MSYS\tmp\ccAPTCFp.debug.temp.o
 .debug_line_str
                0x00000000       0x42 C:\QMK_MSYS\tmp\ccAPTCFp.debug.temp.o
 .comment       0x00000000       0x13 C:\QMK_MSYS\tmp\ccAPTCFp.debug.temp.o
 .debug_info    0x00000000       0x73 C:\QMK_MSYS\tmp\ccGZI3qM.debug.temp.o
 .debug_abbrev  0x00000000       0x26 C:\QMK_MSYS\tmp\ccGZI3qM.debug.temp.o
 .debug_line    0x00000000       0x31 C:\QMK_MSYS\tmp\ccGZI3qM.debug.temp.o
 .debug_str     0x00000000      0x1fe C:\QMK_MSYS\tmp\ccGZI3qM.debug.temp.o
 .debug_line_str
                0x00000000       0x46 C:\QMK_MSYS\tmp\ccGZI3qM.debug.temp.o
 .comment       0x00000000       0x13 C:\QMK_MSYS\tmp\ccGZI3qM.debug.temp.o
 .debug_info    0x00000000       0x73 C:\QMK_MSYS\tmp\cciqyua8.debug.temp.o
 .debug_abbrev  0x00000000       0x26 C:\QMK_MSYS\tmp\cciqyua8.debug.temp.o
 .debug_line    0x00000000       0x31 C:\QMK_MSYS\tmp\cciqyua8.debug.temp.o
 .debug_str     0x00000000      0x1fe C:\QMK_MSYS\tmp\cciqyua8.debug.temp.o
 .debug_line_str
                0x00000000       0x46 C:\QMK_MSYS\tmp\cciqyua8.debug.temp.o
 .comment       0x00000000       0x13 C:\QMK_MSYS\tmp\cciqyua8.debug.temp.o
 .debug_info    0x00000000       0x73 C:\QMK_MSYS\tmp\ccqrg84t.debug.temp.o
 .debug_abbrev  0x00000000       0x26 C:\QMK_MSYS\tmp\ccqrg84t.debug.temp.o
 .debug_line    0x00000000       0x31 C:\QMK_MSYS\tmp\ccqrg84t.debug.temp.o
 .debug_str     0x00000000      0x1fc C:\QMK_MSYS\tmp\ccqrg84t.debug.temp.o
 .debug_line_str
                0x00000000       0x44 C:\QMK_MSYS\tmp\ccqrg84t.debug.temp.o
 .comment       0x00000000       0x13 C:\QMK_MSYS\tmp\ccqrg84t.debug.temp.o
 .comment       0x00000000       0x13 C:\QMK_MSYS\tmp\ccGCLfVP.debug.temp.o
 .comment       0x00000000       0x13 C:\QMK_MSYS\tmp\ccO1zI1b.debug.temp.o
 .comment       0x00000000       0x13 C:\QMK_MSYS\tmp\ccwFmL2x.debug.temp.o
 .debug_info    0x00000000      0x83f C:\QMK_MSYS\tmp\cciN1Q2T.debug.temp.o
 .debug_abbrev  0x00000000      0x20c C:\QMK_MSYS\tmp\cciN1Q2T.debug.temp.o
 .debug_line    0x00000000       0xa4 C:\QMK_MSYS\tmp\cciN1Q2T.debug.temp.o
 .debug_str     0x00000000      0x501 C:\QMK_MSYS\tmp\cciN1Q2T.debug.temp.o
 .debug_line_str
                0x00000000      0x266 C:\QMK_MSYS\tmp\cciN1Q2T.debug.temp.o
 .comment       0x00000000       0x13 C:\QMK_MSYS\tmp\cciN1Q2T.debug.temp.o
 .debug_info    0x00000000      0x5a5 C:\QMK_MSYS\tmp\ccA5zahf.debug.temp.o
 .debug_abbrev  0x00000000      0x15f C:\QMK_MSYS\tmp\ccA5zahf.debug.temp.o
 .debug_line    0x00000000       0x75 C:\QMK_MSYS\tmp\ccA5zahf.debug.temp.o
 .debug_str     0x00000000      0x574 C:\QMK_MSYS\tmp\ccA5zahf.debug.temp.o
 .debug_line_str
                0x00000000      0x19e C:\QMK_MSYS\tmp\ccA5zahf.debug.temp.o
 .comment       0x00000000       0x13 C:\QMK_MSYS\tmp\ccA5zahf.debug.temp.o
 .debug_info    0x00000000       0x7a C:\QMK_MSYS\tmp\ccccRKpA.debug.temp.o
 .debug_abbrev  0x00000000       0x26 C:\QMK_MSYS\tmp\ccccRKpA.debug.temp.o
 .debug_line    0x00000000       0x31 C:\QMK_MSYS\tmp\ccccRKpA.debug.temp.o
 .debug_str     0x00000000      0x200 C:\QMK_MSYS\tmp\ccccRKpA.debug.temp.o
 .debug_line_str
                0x00000000       0x42 C:\QMK_MSYS\tmp\ccccRKpA.debug.temp.o
 .comment       0x00000000       0x13 C:\QMK_MSYS\tmp\ccccRKpA.debug.temp.o
 .debug_info    0x00000000       0x7a C:\QMK_MSYS\tmp\ccacr9wV.debug.temp.o
 .debug_abbrev  0x00000000       0x26 C:\QMK_MSYS\tmp\ccacr9wV.debug.temp.o
 .debug_line    0x00000000       0x31 C:\QMK_MSYS\tmp\ccacr9wV.debug.temp.o
 .debug_str     0x00000000      0x1fe C:\QMK_MSYS\tmp\ccacr9wV.debug.temp.o
 .debug_line_str
                0x00000000       0x40 C:\QMK_MSYS\tmp\ccacr9wV.debug.temp.o
 .comment       0x00000000       0x13 C:\QMK_MSYS\tmp\ccacr9wV.debug.temp.o
 .debug_info    0x00000000       0x7a C:\QMK_MSYS\tmp\ccSLx1Qg.debug.temp.o
 .debug_abbrev  0x00000000       0x26 C:\QMK_MSYS\tmp\ccSLx1Qg.debug.temp.o
 .debug_line    0x00000000       0x31 C:\QMK_MSYS\tmp\ccSLx1Qg.debug.temp.o
 .debug_str     0x00000000      0x1fe C:\QMK_MSYS\tmp\ccSLx1Qg.debug.temp.o
 .debug_line_str
                0x00000000       0x40 C:\QMK_MSYS\tmp\ccSLx1Qg.debug.temp.o
 .comment       0x00000000       0x13 C:\QMK_MSYS\tmp\ccSLx1Qg.debug.temp.o
 .debug_info    0x00000000       0x7a C:\QMK_MSYS\tmp\ccQLDW6B.debug.temp.o
 .debug_abbrev  0x00000000       0x26 C:\QMK_MSYS\tmp\ccQLDW6B.debug.temp.o
 .debug_line    0x00000000       0x31 C:\QMK_MSYS\tmp\ccQLDW6B.debug.temp.o
 .debug_str     0x00000000      0x201 C:\QMK_MSYS\tmp\ccQLDW6B.debug.temp.o
 .debug_line_str
                0x00000000       0x43 C:\QMK_MSYS\tmp\ccQLDW6B.debug.temp.o
 .comment       0x00000000       0x13 C:\QMK_MSYS\tmp\ccQLDW6B.debug.temp.o
 .debug_info    0x00000000       0x7a C:\QMK_MSYS\tmp\ccuJrsDX.debug.temp.o
 .debug_abbrev  0x00000000       0x26 C:\QMK_MSYS\tmp\ccuJrsDX.debug.temp.o
 .debug_line    0x00000000       0x31 C:\QMK_MSYS\tmp\ccuJrsDX.debug.temp.o
 .debug_str     0x00000000      0x1fe C:\QMK_MSYS\tmp\ccuJrsDX.debug.temp.o
 .debug_line_str
                0x00000000       0x40 C:\QMK_MSYS\tmp\ccuJrsDX.debug.temp.o
 .comment       0x00000000       0x13 C:\QMK_MSYS\tmp\ccuJrsDX.debug.temp.o
 .debug_info    0x00000000       0x7a C:\QMK_MSYS\tmp\cccTqh2i.debug.temp.o
 .debug_abbrev  0x00000000       0x26 C:\QMK_MSYS\tmp\cccTqh2i.debug.temp.o
 .debug_line    0x00000000       0x31 C:\QMK_MSYS\tmp\cccTqh2i.debug.temp.o
 .debug_str     0x00000000      0x1fe C:\QMK_MSYS\tmp\cccTqh2i.debug.temp.o
 .debug_line_str
                0x00000000       0x40 C:\QMK_MSYS\tmp\cccTqh2i.debug.temp.o
 .comment       0x00000000       0x13 C:\QMK_MSYS\tmp\cccTqh2i.debug.temp.o
 .debug_info    0x00000000       0x7a C:\QMK_MSYS\tmp\ccwq6OHE.debug.temp.o
 .debug_abbrev  0x00000000       0x26 C:\QMK_MSYS\tmp\ccwq6OHE.debug.temp.o
 .debug_line    0x00000000       0x31 C:\QMK_MSYS\tmp\ccwq6OHE.debug.temp.o
 .debug_str     0x00000000      0x1fe C:\QMK_MSYS\tmp\ccwq6OHE.debug.temp.o
 .debug_line_str
                0x00000000       0x40 C:\QMK_MSYS\tmp\ccwq6OHE.debug.temp.o
 .comment       0x00000000       0x13 C:\QMK_MSYS\tmp\ccwq6OHE.debug.temp.o
 .comment       0x00000000       0x13 C:\QMK_MSYS\tmp\ccSymwj0.debug.temp.o
 .debug_info    0x00000000       0x7a C:\QMK_MSYS\tmp\ccSD0bDp.debug.temp.o
 .debug_abbrev  0x00000000       0x26 C:\QMK_MSYS\tmp\ccSD0bDp.debug.temp.o
 .debug_line    0x00000000       0x31 C:\QMK_MSYS\tmp\ccSD0bDp.debug.temp.o
 .debug_str     0x00000000      0x1fe C:\QMK_MSYS\tmp\ccSD0bDp.debug.temp.o
 .debug_line_str
                0x00000000       0x40 C:\QMK_MSYS\tmp\ccSD0bDp.debug.temp.o
 .comment       0x00000000       0x13 C:\QMK_MSYS\tmp\ccSD0bDp.debug.temp.o
 .debug_info    0x00000000       0x7a C:\QMK_MSYS\tmp\ccu85xSO.debug.temp.o
 .debug_abbrev  0x00000000       0x26 C:\QMK_MSYS\tmp\ccu85xSO.debug.temp.o
 .debug_line    0x00000000       0x31 C:\QMK_MSYS\tmp\ccu85xSO.debug.temp.o
 .debug_str     0x00000000      0x1fe C:\QMK_MSYS\tmp\ccu85xSO.debug.temp.o
 .debug_line_str
                0x00000000       0x40 C:\QMK_MSYS\tmp\ccu85xSO.debug.temp.o
 .comment       0x00000000       0x13 C:\QMK_MSYS\tmp\ccu85xSO.debug.temp.o
 .debug_info    0x00000000       0x7a C:\QMK_MSYS\tmp\ccCbf35d.debug.temp.o
 .debug_abbrev  0x00000000       0x26 C:\QMK_MSYS\tmp\ccCbf35d.debug.temp.o
 .debug_line    0x00000000       0x31 C:\QMK_MSYS\tmp\ccCbf35d.debug.temp.o
 .debug_str     0x00000000      0x1fe C:\QMK_MSYS\tmp\ccCbf35d.debug.temp.o
 .debug_line_str
                0x00000000       0x40 C:\QMK_MSYS\tmp\ccCbf35d.debug.temp.o
 .comment       0x00000000       0x13 C:\QMK_MSYS\tmp\ccCbf35d.debug.temp.o
 .debug_info    0x00000000       0x7a C:\QMK_MSYS\tmp\ccm8k9vD.debug.temp.o
 .debug_abbrev  0x00000000       0x26 C:\QMK_MSYS\tmp\ccm8k9vD.debug.temp.o
 .debug_line    0x00000000       0x31 C:\QMK_MSYS\tmp\ccm8k9vD.debug.temp.o
 .debug_str     0x00000000      0x202 C:\QMK_MSYS\tmp\ccm8k9vD.debug.temp.o
 .debug_line_str
                0x00000000       0x44 C:\QMK_MSYS\tmp\ccm8k9vD.debug.temp.o
 .comment       0x00000000       0x13 C:\QMK_MSYS\tmp\ccm8k9vD.debug.temp.o
 .debug_info    0x00000000      0x2e8 C:\QMK_MSYS\tmp\ccUGDoV2.debug.temp.o
 .debug_abbrev  0x00000000      0x136 C:\QMK_MSYS\tmp\ccUGDoV2.debug.temp.o
 .debug_line    0x00000000       0x6c C:\QMK_MSYS\tmp\ccUGDoV2.debug.temp.o
 .debug_str     0x00000000      0x2fe C:\QMK_MSYS\tmp\ccUGDoV2.debug.temp.o
 .debug_line_str
                0x00000000      0x179 C:\QMK_MSYS\tmp\ccUGDoV2.debug.temp.o
 .comment       0x00000000       0x13 C:\QMK_MSYS\tmp\ccUGDoV2.debug.temp.o
 .debug_info    0x00000000       0x7a C:\QMK_MSYS\tmp\ccaUndys.debug.temp.o
 .debug_abbrev  0x00000000       0x26 C:\QMK_MSYS\tmp\ccaUndys.debug.temp.o
 .debug_line    0x00000000       0x31 C:\QMK_MSYS\tmp\ccaUndys.debug.temp.o
 .debug_str     0x00000000      0x1fe C:\QMK_MSYS\tmp\ccaUndys.debug.temp.o
 .debug_line_str
                0x00000000       0x40 C:\QMK_MSYS\tmp\ccaUndys.debug.temp.o
 .comment       0x00000000       0x13 C:\QMK_MSYS\tmp\ccaUndys.debug.temp.o
 .debug_info    0x00000000       0x7a C:\QMK_MSYS\tmp\cckUWc6R.debug.temp.o
 .debug_abbrev  0x00000000       0x26 C:\QMK_MSYS\tmp\cckUWc6R.debug.temp.o
 .debug_line    0x00000000       0x31 C:\QMK_MSYS\tmp\cckUWc6R.debug.temp.o
 .debug_str     0x00000000      0x1fe C:\QMK_MSYS\tmp\cckUWc6R.debug.temp.o
 .debug_line_str
                0x00000000       0x40 C:\QMK_MSYS\tmp\cckUWc6R.debug.temp.o
 .comment       0x00000000       0x13 C:\QMK_MSYS\tmp\cckUWc6R.debug.temp.o
 .debug_info    0x00000000       0x7a C:\QMK_MSYS\tmp\ccSEPpSh.debug.temp.o
 .debug_abbrev  0x00000000       0x26 C:\QMK_MSYS\tmp\ccSEPpSh.debug.temp.o
 .debug_line    0x00000000       0x31 C:\QMK_MSYS\tmp\ccSEPpSh.debug.temp.o
 .debug_str     0x00000000      0x1fe C:\QMK_MSYS\tmp\ccSEPpSh.debug.temp.o
 .debug_line_str
                0x00000000       0x40 C:\QMK_MSYS\tmp\ccSEPpSh.debug.temp.o
 .comment       0x00000000       0x13 C:\QMK_MSYS\tmp\ccSEPpSh.debug.temp.o
 .debug_info    0x00000000       0x7a C:\QMK_MSYS\tmp\ccmB5yyH.debug.temp.o
 .debug_abbrev  0x00000000       0x26 C:\QMK_MSYS\tmp\ccmB5yyH.debug.temp.o
 .debug_line    0x00000000       0x31 C:\QMK_MSYS\tmp\ccmB5yyH.debug.temp.o
 .debug_str     0x00000000      0x201 C:\QMK_MSYS\tmp\ccmB5yyH.debug.temp.o
 .debug_line_str
                0x00000000       0x43 C:\QMK_MSYS\tmp\ccmB5yyH.debug.temp.o
 .comment       0x00000000       0x13 C:\QMK_MSYS\tmp\ccmB5yyH.debug.temp.o
 .debug_info    0x00000000       0x7a C:\QMK_MSYS\tmp\ccKu3Qh6.debug.temp.o
 .debug_abbrev  0x00000000       0x26 C:\QMK_MSYS\tmp\ccKu3Qh6.debug.temp.o
 .debug_line    0x00000000       0x31 C:\QMK_MSYS\tmp\ccKu3Qh6.debug.temp.o
 .debug_str     0x00000000      0x205 C:\QMK_MSYS\tmp\ccKu3Qh6.debug.temp.o
 .debug_line_str
                0x00000000       0x47 C:\QMK_MSYS\tmp\ccKu3Qh6.debug.temp.o
 .comment       0x00000000       0x13 C:\QMK_MSYS\tmp\ccKu3Qh6.debug.temp.o
 .debug_info    0x00000000       0x7a C:\QMK_MSYS\tmp\cc07yjWu.debug.temp.o
 .debug_abbrev  0x00000000       0x26 C:\QMK_MSYS\tmp\cc07yjWu.debug.temp.o
 .debug_line    0x00000000       0x31 C:\QMK_MSYS\tmp\cc07yjWu.debug.temp.o
 .debug_str     0x00000000      0x1fe C:\QMK_MSYS\tmp\cc07yjWu.debug.temp.o
 .debug_line_str
                0x00000000       0x40 C:\QMK_MSYS\tmp\cc07yjWu.debug.temp.o
 .comment       0x00000000       0x13 C:\QMK_MSYS\tmp\cc07yjWu.debug.temp.o
 .debug_info    0x00000000       0x7a C:\QMK_MSYS\tmp\cckxa5OT.debug.temp.o
 .debug_abbrev  0x00000000       0x26 C:\QMK_MSYS\tmp\cckxa5OT.debug.temp.o
 .debug_line    0x00000000       0x31 C:\QMK_MSYS\tmp\cckxa5OT.debug.temp.o
 .debug_str     0x00000000      0x1fe C:\QMK_MSYS\tmp\cckxa5OT.debug.temp.o
 .debug_line_str
                0x00000000       0x40 C:\QMK_MSYS\tmp\cckxa5OT.debug.temp.o
 .comment       0x00000000       0x13 C:\QMK_MSYS\tmp\cckxa5OT.debug.temp.o
 .debug_info    0x00000000       0x7a C:\QMK_MSYS\tmp\ccIqoDCi.debug.temp.o
 .debug_abbrev  0x00000000       0x26 C:\QMK_MSYS\tmp\ccIqoDCi.debug.temp.o
 .debug_line    0x00000000       0x31 C:\QMK_MSYS\tmp\ccIqoDCi.debug.temp.o
 .debug_str     0x00000000      0x1ff C:\QMK_MSYS\tmp\ccIqoDCi.debug.temp.o
 .debug_line_str
                0x00000000       0x41 C:\QMK_MSYS\tmp\ccIqoDCi.debug.temp.o
 .comment       0x00000000       0x13 C:\QMK_MSYS\tmp\ccIqoDCi.debug.temp.o
 .debug_info    0x00000000       0x7a C:\QMK_MSYS\tmp\ccSEesEH.debug.temp.o
 .debug_abbrev  0x00000000       0x26 C:\QMK_MSYS\tmp\ccSEesEH.debug.temp.o
 .debug_line    0x00000000       0x31 C:\QMK_MSYS\tmp\ccSEesEH.debug.temp.o
 .debug_str     0x00000000      0x1ff C:\QMK_MSYS\tmp\ccSEesEH.debug.temp.o
 .debug_line_str
                0x00000000       0x41 C:\QMK_MSYS\tmp\ccSEesEH.debug.temp.o
 .comment       0x00000000       0x13 C:\QMK_MSYS\tmp\ccSEesEH.debug.temp.o
 .comment       0x00000000       0x13 C:\QMK_MSYS\tmp\ccKpiHB6.debug.temp.o
 .debug_info    0x00000000       0x7a C:\QMK_MSYS\tmp\ccATJ0wv.debug.temp.o
 .debug_abbrev  0x00000000       0x26 C:\QMK_MSYS\tmp\ccATJ0wv.debug.temp.o
 .debug_line    0x00000000       0x31 C:\QMK_MSYS\tmp\ccATJ0wv.debug.temp.o
 .debug_str     0x00000000      0x1fe C:\QMK_MSYS\tmp\ccATJ0wv.debug.temp.o
 .debug_line_str
                0x00000000       0x40 C:\QMK_MSYS\tmp\ccATJ0wv.debug.temp.o
 .comment       0x00000000       0x13 C:\QMK_MSYS\tmp\ccATJ0wv.debug.temp.o
 .debug_info    0x00000000       0x7a C:\QMK_MSYS\tmp\ccyhSUGU.debug.temp.o
 .debug_abbrev  0x00000000       0x26 C:\QMK_MSYS\tmp\ccyhSUGU.debug.temp.o
 .debug_line    0x00000000       0x31 C:\QMK_MSYS\tmp\ccyhSUGU.debug.temp.o
 .debug_str     0x00000000      0x1ff C:\QMK_MSYS\tmp\ccyhSUGU.debug.temp.o
 .debug_line_str
                0x00000000       0x41 C:\QMK_MSYS\tmp\ccyhSUGU.debug.temp.o
 .comment       0x00000000       0x13 C:\QMK_MSYS\tmp\ccyhSUGU.debug.temp.o
 .comment       0x00000000       0x13 C:\QMK_MSYS\tmp\ccgfvfMj.debug.temp.o
 .comment       0x00000000       0x13 C:\QMK_MSYS\tmp\ccO3hIUH.debug.temp.o
 .comment       0x00000000       0x13 C:\QMK_MSYS\tmp\ccS2x1X5.debug.temp.o
 .debug_info    0x00000000       0x7a C:\QMK_MSYS\tmp\cc2gyXeu.debug.temp.o
 .debug_abbrev  0x00000000       0x26 C:\QMK_MSYS\tmp\cc2gyXeu.debug.temp.o
 .debug_line    0x00000000       0x31 C:\QMK_MSYS\tmp\cc2gyXeu.debug.temp.o
 .debug_str     0x00000000      0x214 C:\QMK_MSYS\tmp\cc2gyXeu.debug.temp.o
 .debug_line_str
                0x00000000       0x56 C:\QMK_MSYS\tmp\cc2gyXeu.debug.temp.o
 .comment       0x00000000       0x13 C:\QMK_MSYS\tmp\cc2gyXeu.debug.temp.o
 .debug_info    0x00000000       0x7a C:\QMK_MSYS\tmp\ccYnujGS.debug.temp.o
 .debug_abbrev  0x00000000       0x26 C:\QMK_MSYS\tmp\ccYnujGS.debug.temp.o
 .debug_line    0x00000000       0x31 C:\QMK_MSYS\tmp\ccYnujGS.debug.temp.o
 .debug_str     0x00000000      0x214 C:\QMK_MSYS\tmp\ccYnujGS.debug.temp.o
 .debug_line_str
                0x00000000       0x56 C:\QMK_MSYS\tmp\ccYnujGS.debug.temp.o
 .comment       0x00000000       0x13 C:\QMK_MSYS\tmp\ccYnujGS.debug.temp.o
 .debug_info    0x00000000       0x7a C:\QMK_MSYS\tmp\ccAYm52g.debug.temp.o
 .debug_abbrev  0x00000000       0x26 C:\QMK_MSYS\tmp\ccAYm52g.debug.temp.o
 .debug_line    0x00000000       0x31 C:\QMK_MSYS\tmp\ccAYm52g.debug.temp.o
 .debug_str     0x00000000      0x214 C:\QMK_MSYS\tmp\ccAYm52g.debug.temp.o
 .debug_line_str
                0x00000000       0x56 C:\QMK_MSYS\tmp\ccAYm52g.debug.temp.o
 .comment       0x00000000       0x13 C:\QMK_MSYS\tmp\ccAYm52g.debug.temp.o
 .debug_info    0x00000000       0x7a C:\QMK_MSYS\tmp\ccWwkAoF.debug.temp.o
 .debug_abbrev  0x00000000       0x26 C:\QMK_MSYS\tmp\ccWwkAoF.debug.temp.o
 .debug_line    0x00000000       0x31 C:\QMK_MSYS\tmp\ccWwkAoF.debug.temp.o
 .debug_str     0x00000000      0x218 C:\QMK_MSYS\tmp\ccWwkAoF.debug.temp.o
 .debug_line_str
                0x00000000       0x5a C:\QMK_MSYS\tmp\ccWwkAoF.debug.temp.o
 .comment       0x00000000       0x13 C:\QMK_MSYS\tmp\ccWwkAoF.debug.temp.o
 .debug_info    0x00000000       0x7a C:\QMK_MSYS\tmp\cc0HGnX3.debug.temp.o
 .debug_abbrev  0x00000000       0x26 C:\QMK_MSYS\tmp\cc0HGnX3.debug.temp.o
 .debug_line    0x00000000       0x31 C:\QMK_MSYS\tmp\cc0HGnX3.debug.temp.o
 .debug_str     0x00000000      0x214 C:\QMK_MSYS\tmp\cc0HGnX3.debug.temp.o
 .debug_line_str
                0x00000000       0x56 C:\QMK_MSYS\tmp\cc0HGnX3.debug.temp.o
 .comment       0x00000000       0x13 C:\QMK_MSYS\tmp\cc0HGnX3.debug.temp.o
 .comment       0x00000000       0x13 C:\QMK_MSYS\tmp\cc8qLvrs.debug.temp.o
 .debug_info    0x00000000       0x7a C:\QMK_MSYS\tmp\ccAgEYYP.debug.temp.o
 .debug_abbrev  0x00000000       0x26 C:\QMK_MSYS\tmp\ccAgEYYP.debug.temp.o
 .debug_line    0x00000000       0x31 C:\QMK_MSYS\tmp\ccAgEYYP.debug.temp.o
 .debug_str     0x00000000      0x214 C:\QMK_MSYS\tmp\ccAgEYYP.debug.temp.o
 .debug_line_str
                0x00000000       0x56 C:\QMK_MSYS\tmp\ccAgEYYP.debug.temp.o
 .comment       0x00000000       0x13 C:\QMK_MSYS\tmp\ccAgEYYP.debug.temp.o
 .comment       0x00000000       0x13 C:\QMK_MSYS\tmp\cck1d5rd.debug.temp.o
 .comment       0x00000000       0x13 C:\QMK_MSYS\tmp\ccsu478A.debug.temp.o
 .debug_info    0x00000000       0x7a C:\QMK_MSYS\tmp\ccgpOjLY.debug.temp.o
 .debug_abbrev  0x00000000       0x26 C:\QMK_MSYS\tmp\ccgpOjLY.debug.temp.o
 .debug_line    0x00000000       0x31 C:\QMK_MSYS\tmp\ccgpOjLY.debug.temp.o
 .debug_str     0x00000000      0x214 C:\QMK_MSYS\tmp\ccgpOjLY.debug.temp.o
 .debug_line_str
                0x00000000       0x56 C:\QMK_MSYS\tmp\ccgpOjLY.debug.temp.o
 .comment       0x00000000       0x13 C:\QMK_MSYS\tmp\ccgpOjLY.debug.temp.o
 .comment       0x00000000       0x13 C:\QMK_MSYS\tmp\ccaVzTzm.debug.temp.o
 .debug_info    0x00000000       0x7a C:\QMK_MSYS\tmp\cc8yGukK.debug.temp.o
 .debug_abbrev  0x00000000       0x26 C:\QMK_MSYS\tmp\cc8yGukK.debug.temp.o
 .debug_line    0x00000000       0x31 C:\QMK_MSYS\tmp\cc8yGukK.debug.temp.o
 .debug_str     0x00000000      0x219 C:\QMK_MSYS\tmp\cc8yGukK.debug.temp.o
 .debug_line_str
                0x00000000       0x5b C:\QMK_MSYS\tmp\cc8yGukK.debug.temp.o
 .comment       0x00000000       0x13 C:\QMK_MSYS\tmp\cc8yGukK.debug.temp.o
 .debug_info    0x00000000       0x7a C:\QMK_MSYS\tmp\cc6K8hi8.debug.temp.o
 .debug_abbrev  0x00000000       0x26 C:\QMK_MSYS\tmp\cc6K8hi8.debug.temp.o
 .debug_line    0x00000000       0x31 C:\QMK_MSYS\tmp\cc6K8hi8.debug.temp.o
 .debug_str     0x00000000      0x214 C:\QMK_MSYS\tmp\cc6K8hi8.debug.temp.o
 .debug_line_str
                0x00000000       0x56 C:\QMK_MSYS\tmp\cc6K8hi8.debug.temp.o
 .comment       0x00000000       0x13 C:\QMK_MSYS\tmp\cc6K8hi8.debug.temp.o
 .debug_info    0x00000000       0x7a C:\QMK_MSYS\tmp\ccWIbxbw.debug.temp.o
 .debug_abbrev  0x00000000       0x26 C:\QMK_MSYS\tmp\ccWIbxbw.debug.temp.o
 .debug_line    0x00000000       0x31 C:\QMK_MSYS\tmp\ccWIbxbw.debug.temp.o
 .debug_str     0x00000000      0x214 C:\QMK_MSYS\tmp\ccWIbxbw.debug.temp.o
 .debug_line_str
                0x00000000       0x56 C:\QMK_MSYS\tmp\ccWIbxbw.debug.temp.o
 .comment       0x00000000       0x13 C:\QMK_MSYS\tmp\ccWIbxbw.debug.temp.o
 .debug_info    0x00000000       0x7a C:\QMK_MSYS\tmp\cck4FGRX.debug.temp.o
 .debug_abbrev  0x00000000       0x26 C:\QMK_MSYS\tmp\cck4FGRX.debug.temp.o
 .debug_line    0x00000000       0x31 C:\QMK_MSYS\tmp\cck4FGRX.debug.temp.o
 .debug_str     0x00000000      0x217 C:\QMK_MSYS\tmp\cck4FGRX.debug.temp.o
 .debug_line_str
                0x00000000       0x59 C:\QMK_MSYS\tmp\cck4FGRX.debug.temp.o
 .comment       0x00000000       0x13 C:\QMK_MSYS\tmp\cck4FGRX.debug.temp.o
 .debug_info    0x00000000       0x7a C:\QMK_MSYS\tmp\cca4Hmtp.debug.temp.o
 .debug_abbrev  0x00000000       0x26 C:\QMK_MSYS\tmp\cca4Hmtp.debug.temp.o
 .debug_line    0x00000000       0x31 C:\QMK_MSYS\tmp\cca4Hmtp.debug.temp.o
 .debug_str     0x00000000      0x215 C:\QMK_MSYS\tmp\cca4Hmtp.debug.temp.o
 .debug_line_str
                0x00000000       0x57 C:\QMK_MSYS\tmp\cca4Hmtp.debug.temp.o
 .comment       0x00000000       0x13 C:\QMK_MSYS\tmp\cca4Hmtp.debug.temp.o
 .comment       0x00000000       0x13 C:\QMK_MSYS\tmp\ccG5hVhR.debug.temp.o
 .debug_info    0x00000000       0x7a C:\QMK_MSYS\tmp\cc0avd5i.debug.temp.o
 .debug_abbrev  0x00000000       0x26 C:\QMK_MSYS\tmp\cc0avd5i.debug.temp.o
 .debug_line    0x00000000       0x31 C:\QMK_MSYS\tmp\cc0avd5i.debug.temp.o
 .debug_str     0x00000000      0x214 C:\QMK_MSYS\tmp\cc0avd5i.debug.temp.o
 .debug_line_str
                0x00000000       0x56 C:\QMK_MSYS\tmp\cc0avd5i.debug.temp.o
 .comment       0x00000000       0x13 C:\QMK_MSYS\tmp\cc0avd5i.debug.temp.o
 .debug_info    0x00000000       0x7a C:\QMK_MSYS\tmp\ccYGnVNK.debug.temp.o
 .debug_abbrev  0x00000000       0x26 C:\QMK_MSYS\tmp\ccYGnVNK.debug.temp.o
 .debug_line    0x00000000       0x31 C:\QMK_MSYS\tmp\ccYGnVNK.debug.temp.o
 .debug_str     0x00000000      0x214 C:\QMK_MSYS\tmp\ccYGnVNK.debug.temp.o
 .debug_line_str
                0x00000000       0x56 C:\QMK_MSYS\tmp\ccYGnVNK.debug.temp.o
 .comment       0x00000000       0x13 C:\QMK_MSYS\tmp\ccYGnVNK.debug.temp.o
 .debug_info    0x00000000       0x7a C:\QMK_MSYS\tmp\cccVIcMc.debug.temp.o
 .debug_abbrev  0x00000000       0x26 C:\QMK_MSYS\tmp\cccVIcMc.debug.temp.o
 .debug_line    0x00000000       0x31 C:\QMK_MSYS\tmp\cccVIcMc.debug.temp.o
 .debug_str     0x00000000      0x214 C:\QMK_MSYS\tmp\cccVIcMc.debug.temp.o
 .debug_line_str
                0x00000000       0x56 C:\QMK_MSYS\tmp\cccVIcMc.debug.temp.o
 .comment       0x00000000       0x13 C:\QMK_MSYS\tmp\cccVIcMc.debug.temp.o
 .debug_info    0x00000000       0x7a C:\QMK_MSYS\tmp\ccgI8xEE.debug.temp.o
 .debug_abbrev  0x00000000       0x26 C:\QMK_MSYS\tmp\ccgI8xEE.debug.temp.o
 .debug_line    0x00000000       0x31 C:\QMK_MSYS\tmp\ccgI8xEE.debug.temp.o
 .debug_str     0x00000000      0x219 C:\QMK_MSYS\tmp\ccgI8xEE.debug.temp.o
 .debug_line_str
                0x00000000       0x5b C:\QMK_MSYS\tmp\ccgI8xEE.debug.temp.o
 .comment       0x00000000       0x13 C:\QMK_MSYS\tmp\ccgI8xEE.debug.temp.o
 .debug_info    0x00000000       0x7a C:\QMK_MSYS\tmp\ccmahEK6.debug.temp.o
 .debug_abbrev  0x00000000       0x26 C:\QMK_MSYS\tmp\ccmahEK6.debug.temp.o
 .debug_line    0x00000000       0x31 C:\QMK_MSYS\tmp\ccmahEK6.debug.temp.o
 .debug_str     0x00000000      0x217 C:\QMK_MSYS\tmp\ccmahEK6.debug.temp.o
 .debug_line_str
                0x00000000       0x59 C:\QMK_MSYS\tmp\ccmahEK6.debug.temp.o
 .comment       0x00000000       0x13 C:\QMK_MSYS\tmp\ccmahEK6.debug.temp.o
 .debug_info    0x00000000       0x7a C:\QMK_MSYS\tmp\ccsy3VLy.debug.temp.o
 .debug_abbrev  0x00000000       0x26 C:\QMK_MSYS\tmp\ccsy3VLy.debug.temp.o
 .debug_line    0x00000000       0x31 C:\QMK_MSYS\tmp\ccsy3VLy.debug.temp.o
 .debug_str     0x00000000      0x215 C:\QMK_MSYS\tmp\ccsy3VLy.debug.temp.o
 .debug_line_str
                0x00000000       0x57 C:\QMK_MSYS\tmp\ccsy3VLy.debug.temp.o
 .comment       0x00000000       0x13 C:\QMK_MSYS\tmp\ccsy3VLy.debug.temp.o
 .comment       0x00000000       0x13 C:\QMK_MSYS\tmp\cc2xLbM0.debug.temp.o
 .debug_info    0x00000000      0x523 C:\QMK_MSYS\tmp\ccoQEYPr.debug.temp.o
 .debug_abbrev  0x00000000      0x1c9 C:\QMK_MSYS\tmp\ccoQEYPr.debug.temp.o
 .debug_line    0x00000000       0x76 C:\QMK_MSYS\tmp\ccoQEYPr.debug.temp.o
 .debug_str     0x00000000      0x3ae C:\QMK_MSYS\tmp\ccoQEYPr.debug.temp.o
 .debug_line_str
                0x00000000      0x19e C:\QMK_MSYS\tmp\ccoQEYPr.debug.temp.o
 .comment       0x00000000       0x13 C:\QMK_MSYS\tmp\ccoQEYPr.debug.temp.o
 .debug_info    0x00000000      0x4b6 C:\QMK_MSYS\tmp\ccWCebRS.debug.temp.o
 .debug_abbrev  0x00000000      0x1bd C:\QMK_MSYS\tmp\ccWCebRS.debug.temp.o
 .debug_line    0x00000000       0x7f C:\QMK_MSYS\tmp\ccWCebRS.debug.temp.o
 .debug_str     0x00000000      0x361 C:\QMK_MSYS\tmp\ccWCebRS.debug.temp.o
 .debug_line_str
                0x00000000      0x1ce C:\QMK_MSYS\tmp\ccWCebRS.debug.temp.o
 .comment       0x00000000       0x13 C:\QMK_MSYS\tmp\ccWCebRS.debug.temp.o
 .debug_info    0x00000000      0x34d C:\QMK_MSYS\tmp\ccS74j6j.debug.temp.o
 .debug_abbrev  0x00000000      0x128 C:\QMK_MSYS\tmp\ccS74j6j.debug.temp.o
 .debug_line    0x00000000       0x6c C:\QMK_MSYS\tmp\ccS74j6j.debug.temp.o
 .debug_str     0x00000000      0x2bc C:\QMK_MSYS\tmp\ccS74j6j.debug.temp.o
 .debug_line_str
                0x00000000      0x198 C:\QMK_MSYS\tmp\ccS74j6j.debug.temp.o
 .comment       0x00000000       0x13 C:\QMK_MSYS\tmp\ccS74j6j.debug.temp.o
 .debug_info    0x00000000      0x294 C:\QMK_MSYS\tmp\ccW03RiL.debug.temp.o
 .debug_abbrev  0x00000000      0x111 C:\QMK_MSYS\tmp\ccW03RiL.debug.temp.o
 .debug_line    0x00000000       0x63 C:\QMK_MSYS\tmp\ccW03RiL.debug.temp.o
 .debug_str     0x00000000      0x291 C:\QMK_MSYS\tmp\ccW03RiL.debug.temp.o
 .debug_line_str
                0x00000000      0x168 C:\QMK_MSYS\tmp\ccW03RiL.debug.temp.o
 .comment       0x00000000       0x13 C:\QMK_MSYS\tmp\ccW03RiL.debug.temp.o
 .debug_info    0x00000000      0x3f7 C:\QMK_MSYS\tmp\ccM4ngrc.debug.temp.o
 .debug_abbrev  0x00000000      0x14b C:\QMK_MSYS\tmp\ccM4ngrc.debug.temp.o
 .debug_line    0x00000000       0x75 C:\QMK_MSYS\tmp\ccM4ngrc.debug.temp.o
 .debug_str     0x00000000      0x31d C:\QMK_MSYS\tmp\ccM4ngrc.debug.temp.o
 .debug_line_str
                0x00000000      0x1c1 C:\QMK_MSYS\tmp\ccM4ngrc.debug.temp.o
 .comment       0x00000000       0x13 C:\QMK_MSYS\tmp\ccM4ngrc.debug.temp.o
 .comment       0x00000000       0x13 C:\QMK_MSYS\tmp\ccOue1MD.debug.temp.o
 .comment       0x00000000       0x13 C:\QMK_MSYS\tmp\cccYmH44.debug.temp.o
 .debug_info    0x00000000       0x7a C:\QMK_MSYS\tmp\cc48lXyw.debug.temp.o
 .debug_abbrev  0x00000000       0x26 C:\QMK_MSYS\tmp\cc48lXyw.debug.temp.o
 .debug_line    0x00000000       0x31 C:\QMK_MSYS\tmp\cc48lXyw.debug.temp.o
 .debug_str     0x00000000      0x1f6 C:\QMK_MSYS\tmp\cc48lXyw.debug.temp.o
 .debug_line_str
                0x00000000       0x38 C:\QMK_MSYS\tmp\cc48lXyw.debug.temp.o
 .comment       0x00000000       0x13 C:\QMK_MSYS\tmp\cc48lXyw.debug.temp.o
 .debug_info    0x00000000       0x73 C:\QMK_MSYS\tmp\cccKkgZX.debug.temp.o
 .debug_abbrev  0x00000000       0x26 C:\QMK_MSYS\tmp\cccKkgZX.debug.temp.o
 .debug_line    0x00000000       0x31 C:\QMK_MSYS\tmp\cccKkgZX.debug.temp.o
 .debug_str     0x00000000      0x200 C:\QMK_MSYS\tmp\cccKkgZX.debug.temp.o
 .debug_line_str
                0x00000000       0x48 C:\QMK_MSYS\tmp\cccKkgZX.debug.temp.o
 .comment       0x00000000       0x13 C:\QMK_MSYS\tmp\cccKkgZX.debug.temp.o
 .debug_info    0x00000000       0x73 C:\QMK_MSYS\tmp\cckL4cro.debug.temp.o
 .debug_abbrev  0x00000000       0x26 C:\QMK_MSYS\tmp\cckL4cro.debug.temp.o
 .debug_line    0x00000000       0x31 C:\QMK_MSYS\tmp\cckL4cro.debug.temp.o
 .debug_str     0x00000000      0x1fe C:\QMK_MSYS\tmp\cckL4cro.debug.temp.o
 .debug_line_str
                0x00000000       0x46 C:\QMK_MSYS\tmp\cckL4cro.debug.temp.o
 .comment       0x00000000       0x13 C:\QMK_MSYS\tmp\cckL4cro.debug.temp.o
 .text          0x00000000        0x0 .build/obj_vessel_base/i2c_master.a(i2c_master.o)
 .data          0x00000000        0x0 .build/obj_vessel_base/i2c_master.a(i2c_master.o)
 .bss           0x00000000        0x0 .build/obj_vessel_base/i2c_master.a(i2c_master.o)
 .text.i2c_receive
                0x00000000       0x58 .build/obj_vessel_base/i2c_master.a(i2c_master.o)
 .text.i2c_write_register16
                0x00000000       0x98 .build/obj_vessel_base/i2c_master.a(i2c_master.o)
 .text.i2c_read_register
                0x00000000       0x68 .build/obj_vessel_base/i2c_master.a(i2c_master.o)
 .text.i2c_read_register16
                0x00000000       0x68 .build/obj_vessel_base/i2c_master.a(i2c_master.o)
 .text.i2c_ping_address
                0x00000000       0x1c .build/obj_vessel_base/i2c_master.a(i2c_master.o)
 .data          0x00000000        0x0 .build/obj_vessel_base/./lib/chibios/os/common/startup/ARMCMx/compilers/GCC/crt0_v7m.o
 .bss           0x00000000        0x0 .build/obj_vessel_base/./lib/chibios/os/common/startup/ARMCMx/compilers/GCC/crt0_v7m.o
 .data          0x00000000        0x0 .build/obj_vessel_base/./lib/chibios/os/common/startup/ARMCMx/compilers/GCC/vectors.o
 .bss           0x00000000        0x0 .build/obj_vessel_base/./lib/chibios/os/common/startup/ARMCMx/compilers/GCC/vectors.o
 .data          0x00000000        0x0 .build/obj_vessel_base/./lib/chibios/os/common/ports/ARMv7-M/compilers/GCC/chcoreasm.o
 .bss           0x00000000        0x0 .build/obj_vessel_base/./lib/chibios/os/common/ports/ARMv7-M/compilers/GCC/chcoreasm.o
 .text          0x00000000       0xa0 c:/qmk_msys/mingw64/bin/../lib/gcc/arm-none-eabi/12.2.0/thumb/v7e-m+fp/hard\libgcc.a(_aeabi_ldivmod.o)
 .data          0x00000000        0x0 c:/qmk_msys/mingw64/bin/../lib/gcc/arm-none-eabi/12.2.0/thumb/v7e-m+fp/hard\libgcc.a(_aeabi_ldivmod.o)
 .bss           0x00000000        0x0 c:/qmk_msys/mingw64/bin/../lib/gcc/arm-none-eabi/12.2.0/thumb/v7e-m+fp/hard\libgcc.a(_aeabi_ldivmod.o)
 .debug_line    0x00000000       0x6c c:/qmk_msys/mingw64/bin/../lib/gcc/arm-none-eabi/12.2.0/thumb/v7e-m+fp/hard\libgcc.a(_aeabi_ldivmod.o)
 .debug_line_str
                0x00000000       0xa8 c:/qmk_msys/mingw64/bin/../lib/gcc/arm-none-eabi/12.2.0/thumb/v7e-m+fp/hard\libgcc.a(_aeabi_ldivmod.o)
 .debug_info    0x00000000       0x25 c:/qmk_msys/mingw64/bin/../lib/gcc/arm-none-eabi/12.2.0/thumb/v7e-m+fp/hard\libgcc.a(_aeabi_ldivmod.o)
 .debug_abbrev  0x00000000       0x14 c:/qmk_msys/mingw64/bin/../lib/gcc/arm-none-eabi/12.2.0/thumb/v7e-m+fp/hard\libgcc.a(_aeabi_ldivmod.o)
 .debug_aranges
                0x00000000       0x20 c:/qmk_msys/mingw64/bin/../lib/gcc/arm-none-eabi/12.2.0/thumb/v7e-m+fp/hard\libgcc.a(_aeabi_ldivmod.o)
 .debug_str     0x00000000       0xb4 c:/qmk_msys/mingw64/bin/../lib/gcc/arm-none-eabi/12.2.0/thumb/v7e-m+fp/hard\libgcc.a(_aeabi_ldivmod.o)
 .debug_frame   0x00000000       0x44 c:/qmk_msys/mingw64/bin/../lib/gcc/arm-none-eabi/12.2.0/thumb/v7e-m+fp/hard\libgcc.a(_aeabi_ldivmod.o)
 .ARM.attributes
                0x00000000       0x22 c:/qmk_msys/mingw64/bin/../lib/gcc/arm-none-eabi/12.2.0/thumb/v7e-m+fp/hard\libgcc.a(_aeabi_ldivmod.o)
 .data          0x00000000        0x0 c:/qmk_msys/mingw64/bin/../lib/gcc/arm-none-eabi/12.2.0/thumb/v7e-m+fp/hard\libgcc.a(_aeabi_uldivmod.o)
 .bss           0x00000000        0x0 c:/qmk_msys/mingw64/bin/../lib/gcc/arm-none-eabi/12.2.0/thumb/v7e-m+fp/hard\libgcc.a(_aeabi_uldivmod.o)
 .text          0x00000000        0x0 c:/qmk_msys/mingw64/bin/../lib/gcc/arm-none-eabi/12.2.0/thumb/v7e-m+fp/hard\libgcc.a(_udivmoddi4.o)
 .data          0x00000000        0x0 c:/qmk_msys/mingw64/bin/../lib/gcc/arm-none-eabi/12.2.0/thumb/v7e-m+fp/hard\libgcc.a(_udivmoddi4.o)
 .bss           0x00000000        0x0 c:/qmk_msys/mingw64/bin/../lib/gcc/arm-none-eabi/12.2.0/thumb/v7e-m+fp/hard\libgcc.a(_udivmoddi4.o)
 .ARM.extab.text.__udivmoddi4
                0x00000000        0x0 c:/qmk_msys/mingw64/bin/../lib/gcc/arm-none-eabi/12.2.0/thumb/v7e-m+fp/hard\libgcc.a(_udivmoddi4.o)
 .data          0x00000000        0x0 c:/qmk_msys/mingw64/bin/../lib/gcc/arm-none-eabi/12.2.0/thumb/v7e-m+fp/hard\libgcc.a(_dvmd_tls.o)
 .bss           0x00000000        0x0 c:/qmk_msys/mingw64/bin/../lib/gcc/arm-none-eabi/12.2.0/thumb/v7e-m+fp/hard\libgcc.a(_dvmd_tls.o)
 .data          0x00000000        0x0 c:/qmk_msys/mingw64/bin/../lib/gcc/arm-none-eabi/12.2.0/../../../../arm-none-eabi/lib/thumb/v7e-m+fp/hard\libg_nano.a(libc_a-rand.o)
 .bss           0x00000000        0x0 c:/qmk_msys/mingw64/bin/../lib/gcc/arm-none-eabi/12.2.0/../../../../arm-none-eabi/lib/thumb/v7e-m+fp/hard\libg_nano.a(libc_a-rand.o)
 .text          0x00000000        0x0 c:/qmk_msys/mingw64/bin/../lib/gcc/arm-none-eabi/12.2.0/../../../../arm-none-eabi/lib/thumb/v7e-m+fp/hard\libg_nano.a(libc_a-ctype_.o)
 .data          0x00000000        0x0 c:/qmk_msys/mingw64/bin/../lib/gcc/arm-none-eabi/12.2.0/../../../../arm-none-eabi/lib/thumb/v7e-m+fp/hard\libg_nano.a(libc_a-ctype_.o)
 .bss           0x00000000        0x0 c:/qmk_msys/mingw64/bin/../lib/gcc/arm-none-eabi/12.2.0/../../../../arm-none-eabi/lib/thumb/v7e-m+fp/hard\libg_nano.a(libc_a-ctype_.o)
 .rodata        0x00000000      0x101 c:/qmk_msys/mingw64/bin/../lib/gcc/arm-none-eabi/12.2.0/../../../../arm-none-eabi/lib/thumb/v7e-m+fp/hard\libg_nano.a(libc_a-ctype_.o)
 .debug_info    0x00000000       0xb9 c:/qmk_msys/mingw64/bin/../lib/gcc/arm-none-eabi/12.2.0/../../../../arm-none-eabi/lib/thumb/v7e-m+fp/hard\libg_nano.a(libc_a-ctype_.o)
 .debug_abbrev  0x00000000       0x62 c:/qmk_msys/mingw64/bin/../lib/gcc/arm-none-eabi/12.2.0/../../../../arm-none-eabi/lib/thumb/v7e-m+fp/hard\libg_nano.a(libc_a-ctype_.o)
 .debug_aranges
                0x00000000       0x18 c:/qmk_msys/mingw64/bin/../lib/gcc/arm-none-eabi/12.2.0/../../../../arm-none-eabi/lib/thumb/v7e-m+fp/hard\libg_nano.a(libc_a-ctype_.o)
 .debug_line    0x00000000       0x9c c:/qmk_msys/mingw64/bin/../lib/gcc/arm-none-eabi/12.2.0/../../../../arm-none-eabi/lib/thumb/v7e-m+fp/hard\libg_nano.a(libc_a-ctype_.o)
 .debug_str     0x00000000      0x180 c:/qmk_msys/mingw64/bin/../lib/gcc/arm-none-eabi/12.2.0/../../../../arm-none-eabi/lib/thumb/v7e-m+fp/hard\libg_nano.a(libc_a-ctype_.o)
 .comment       0x00000000       0x13 c:/qmk_msys/mingw64/bin/../lib/gcc/arm-none-eabi/12.2.0/../../../../arm-none-eabi/lib/thumb/v7e-m+fp/hard\libg_nano.a(libc_a-ctype_.o)
 .ARM.attributes
                0x00000000       0x34 c:/qmk_msys/mingw64/bin/../lib/gcc/arm-none-eabi/12.2.0/../../../../arm-none-eabi/lib/thumb/v7e-m+fp/hard\libg_nano.a(libc_a-ctype_.o)
 .text          0x00000000        0x0 c:/qmk_msys/mingw64/bin/../lib/gcc/arm-none-eabi/12.2.0/../../../../arm-none-eabi/lib/thumb/v7e-m+fp/hard\libg_nano.a(libc_a-impure.o)
 .bss           0x00000000        0x0 c:/qmk_msys/mingw64/bin/../lib/gcc/arm-none-eabi/12.2.0/../../../../arm-none-eabi/lib/thumb/v7e-m+fp/hard\libg_nano.a(libc_a-impure.o)
 .text          0x00000000        0xc c:/qmk_msys/mingw64/bin/../lib/gcc/arm-none-eabi/12.2.0/../../../../arm-none-eabi/lib/thumb/v7e-m+fp/hard\libg_nano.a(libc_a-errno.o)
 .data          0x00000000        0x0 c:/qmk_msys/mingw64/bin/../lib/gcc/arm-none-eabi/12.2.0/../../../../arm-none-eabi/lib/thumb/v7e-m+fp/hard\libg_nano.a(libc_a-errno.o)
 .bss           0x00000000        0x0 c:/qmk_msys/mingw64/bin/../lib/gcc/arm-none-eabi/12.2.0/../../../../arm-none-eabi/lib/thumb/v7e-m+fp/hard\libg_nano.a(libc_a-errno.o)
 .debug_info    0x00000000      0x6fb c:/qmk_msys/mingw64/bin/../lib/gcc/arm-none-eabi/12.2.0/../../../../arm-none-eabi/lib/thumb/v7e-m+fp/hard\libg_nano.a(libc_a-errno.o)
 .debug_abbrev  0x00000000      0x15e c:/qmk_msys/mingw64/bin/../lib/gcc/arm-none-eabi/12.2.0/../../../../arm-none-eabi/lib/thumb/v7e-m+fp/hard\libg_nano.a(libc_a-errno.o)
 .debug_aranges
                0x00000000       0x20 c:/qmk_msys/mingw64/bin/../lib/gcc/arm-none-eabi/12.2.0/../../../../arm-none-eabi/lib/thumb/v7e-m+fp/hard\libg_nano.a(libc_a-errno.o)
 .debug_line    0x00000000      0x120 c:/qmk_msys/mingw64/bin/../lib/gcc/arm-none-eabi/12.2.0/../../../../arm-none-eabi/lib/thumb/v7e-m+fp/hard\libg_nano.a(libc_a-errno.o)
 .debug_str     0x00000000      0x4a1 c:/qmk_msys/mingw64/bin/../lib/gcc/arm-none-eabi/12.2.0/../../../../arm-none-eabi/lib/thumb/v7e-m+fp/hard\libg_nano.a(libc_a-errno.o)
 .comment       0x00000000       0x13 c:/qmk_msys/mingw64/bin/../lib/gcc/arm-none-eabi/12.2.0/../../../../arm-none-eabi/lib/thumb/v7e-m+fp/hard\libg_nano.a(libc_a-errno.o)
 .debug_frame   0x00000000       0x20 c:/qmk_msys/mingw64/bin/../lib/gcc/arm-none-eabi/12.2.0/../../../../arm-none-eabi/lib/thumb/v7e-m+fp/hard\libg_nano.a(libc_a-errno.o)
 .ARM.attributes
                0x00000000       0x34 c:/qmk_msys/mingw64/bin/../lib/gcc/arm-none-eabi/12.2.0/../../../../arm-none-eabi/lib/thumb/v7e-m+fp/hard\libg_nano.a(libc_a-errno.o)
 .data          0x00000000        0x0 c:/qmk_msys/mingw64/bin/../lib/gcc/arm-none-eabi/12.2.0/../../../../arm-none-eabi/lib/thumb/v7e-m+fp/hard\libg_nano.a(libc_a-memcpy.o)
 .bss           0x00000000        0x0 c:/qmk_msys/mingw64/bin/../lib/gcc/arm-none-eabi/12.2.0/../../../../arm-none-eabi/lib/thumb/v7e-m+fp/hard\libg_nano.a(libc_a-memcpy.o)
 .ARM.extab     0x00000000        0x0 c:/qmk_msys/mingw64/bin/../lib/gcc/arm-none-eabi/12.2.0/../../../../arm-none-eabi/lib/thumb/v7e-m+fp/hard\libg_nano.a(libc_a-memcpy.o)
 .eh_frame      0x00000000       0x2c c:/qmk_msys/mingw64/bin/../lib/gcc/arm-none-eabi/12.2.0/../../../../arm-none-eabi/lib/thumb/v7e-m+fp/hard\libg_nano.a(libc_a-memcpy.o)
 .data          0x00000000        0x0 c:/qmk_msys/mingw64/bin/../lib/gcc/arm-none-eabi/12.2.0/../../../../arm-none-eabi/lib/thumb/v7e-m+fp/hard\libg_nano.a(libc_a-assert.o)
 .bss           0x00000000        0x0 c:/qmk_msys/mingw64/bin/../lib/gcc/arm-none-eabi/12.2.0/../../../../arm-none-eabi/lib/thumb/v7e-m+fp/hard\libg_nano.a(libc_a-assert.o)
 .data          0x00000000        0x0 c:/qmk_msys/mingw64/bin/../lib/gcc/arm-none-eabi/12.2.0/../../../../arm-none-eabi/lib/thumb/v7e-m+fp/hard\libg_nano.a(libc_a-malloc.o)
 .bss           0x00000000        0x0 c:/qmk_msys/mingw64/bin/../lib/gcc/arm-none-eabi/12.2.0/../../../../arm-none-eabi/lib/thumb/v7e-m+fp/hard\libg_nano.a(libc_a-malloc.o)
 .data          0x00000000        0x0 c:/qmk_msys/mingw64/bin/../lib/gcc/arm-none-eabi/12.2.0/../../../../arm-none-eabi/lib/thumb/v7e-m+fp/hard\libg_nano.a(libc_a-mallocr.o)
 .data          0x00000000        0x0 c:/qmk_msys/mingw64/bin/../lib/gcc/arm-none-eabi/12.2.0/../../../../arm-none-eabi/lib/thumb/v7e-m+fp/hard\libg_nano.a(libc_a-mlock.o)
 .bss           0x00000000        0x0 c:/qmk_msys/mingw64/bin/../lib/gcc/arm-none-eabi/12.2.0/../../../../arm-none-eabi/lib/thumb/v7e-m+fp/hard\libg_nano.a(libc_a-mlock.o)
 .data          0x00000000        0x0 c:/qmk_msys/mingw64/bin/../lib/gcc/arm-none-eabi/12.2.0/../../../../arm-none-eabi/lib/thumb/v7e-m+fp/hard\libg_nano.a(libc_a-fprintf.o)
 .bss           0x00000000        0x0 c:/qmk_msys/mingw64/bin/../lib/gcc/arm-none-eabi/12.2.0/../../../../arm-none-eabi/lib/thumb/v7e-m+fp/hard\libg_nano.a(libc_a-fprintf.o)
 .data          0x00000000        0x0 c:/qmk_msys/mingw64/bin/../lib/gcc/arm-none-eabi/12.2.0/../../../../arm-none-eabi/lib/thumb/v7e-m+fp/hard\libg_nano.a(libc_a-lock.o)
 .data          0x00000000        0x0 c:/qmk_msys/mingw64/bin/../lib/gcc/arm-none-eabi/12.2.0/../../../../arm-none-eabi/lib/thumb/v7e-m+fp/hard\libg_nano.a(libc_a-abort.o)
 .bss           0x00000000        0x0 c:/qmk_msys/mingw64/bin/../lib/gcc/arm-none-eabi/12.2.0/../../../../arm-none-eabi/lib/thumb/v7e-m+fp/hard\libg_nano.a(libc_a-abort.o)
 .data          0x00000000        0x0 c:/qmk_msys/mingw64/bin/../lib/gcc/arm-none-eabi/12.2.0/../../../../arm-none-eabi/lib/thumb/v7e-m+fp/hard\libg_nano.a(libc_a-freer.o)
 .bss           0x00000000        0x0 c:/qmk_msys/mingw64/bin/../lib/gcc/arm-none-eabi/12.2.0/../../../../arm-none-eabi/lib/thumb/v7e-m+fp/hard\libg_nano.a(libc_a-freer.o)
 .data          0x00000000        0x0 c:/qmk_msys/mingw64/bin/../lib/gcc/arm-none-eabi/12.2.0/../../../../arm-none-eabi/lib/thumb/v7e-m+fp/hard\libg_nano.a(libc_a-nano-vfprintf.o)
 .bss           0x00000000        0x0 c:/qmk_msys/mingw64/bin/../lib/gcc/arm-none-eabi/12.2.0/../../../../arm-none-eabi/lib/thumb/v7e-m+fp/hard\libg_nano.a(libc_a-nano-vfprintf.o)
 .data          0x00000000        0x0 c:/qmk_msys/mingw64/bin/../lib/gcc/arm-none-eabi/12.2.0/../../../../arm-none-eabi/lib/thumb/v7e-m+fp/hard\libg_nano.a(libc_a-nano-vfprintf_i.o)
 .bss           0x00000000        0x0 c:/qmk_msys/mingw64/bin/../lib/gcc/arm-none-eabi/12.2.0/../../../../arm-none-eabi/lib/thumb/v7e-m+fp/hard\libg_nano.a(libc_a-nano-vfprintf_i.o)
 .data          0x00000000        0x0 c:/qmk_msys/mingw64/bin/../lib/gcc/arm-none-eabi/12.2.0/../../../../arm-none-eabi/lib/thumb/v7e-m+fp/hard\libg_nano.a(libc_a-fvwrite.o)
 .bss           0x00000000        0x0 c:/qmk_msys/mingw64/bin/../lib/gcc/arm-none-eabi/12.2.0/../../../../arm-none-eabi/lib/thumb/v7e-m+fp/hard\libg_nano.a(libc_a-fvwrite.o)
 .data          0x00000000        0x0 c:/qmk_msys/mingw64/bin/../lib/gcc/arm-none-eabi/12.2.0/../../../../arm-none-eabi/lib/thumb/v7e-m+fp/hard\libg_nano.a(libc_a-fwalk.o)
 .bss           0x00000000        0x0 c:/qmk_msys/mingw64/bin/../lib/gcc/arm-none-eabi/12.2.0/../../../../arm-none-eabi/lib/thumb/v7e-m+fp/hard\libg_nano.a(libc_a-fwalk.o)
 .data          0x00000000        0x0 c:/qmk_msys/mingw64/bin/../lib/gcc/arm-none-eabi/12.2.0/../../../../arm-none-eabi/lib/thumb/v7e-m+fp/hard\libg_nano.a(libc_a-stdio.o)
 .bss           0x00000000        0x0 c:/qmk_msys/mingw64/bin/../lib/gcc/arm-none-eabi/12.2.0/../../../../arm-none-eabi/lib/thumb/v7e-m+fp/hard\libg_nano.a(libc_a-stdio.o)
 .data          0x00000000        0x0 c:/qmk_msys/mingw64/bin/../lib/gcc/arm-none-eabi/12.2.0/../../../../arm-none-eabi/lib/thumb/v7e-m+fp/hard\libg_nano.a(libc_a-wbuf.o)
 .bss           0x00000000        0x0 c:/qmk_msys/mingw64/bin/../lib/gcc/arm-none-eabi/12.2.0/../../../../arm-none-eabi/lib/thumb/v7e-m+fp/hard\libg_nano.a(libc_a-wbuf.o)
 .data          0x00000000        0x0 c:/qmk_msys/mingw64/bin/../lib/gcc/arm-none-eabi/12.2.0/../../../../arm-none-eabi/lib/thumb/v7e-m+fp/hard\libg_nano.a(libc_a-wsetup.o)
 .bss           0x00000000        0x0 c:/qmk_msys/mingw64/bin/../lib/gcc/arm-none-eabi/12.2.0/../../../../arm-none-eabi/lib/thumb/v7e-m+fp/hard\libg_nano.a(libc_a-wsetup.o)
 .data          0x00000000        0x0 c:/qmk_msys/mingw64/bin/../lib/gcc/arm-none-eabi/12.2.0/../../../../arm-none-eabi/lib/thumb/v7e-m+fp/hard\libg_nano.a(libc_a-memmove.o)
 .bss           0x00000000        0x0 c:/qmk_msys/mingw64/bin/../lib/gcc/arm-none-eabi/12.2.0/../../../../arm-none-eabi/lib/thumb/v7e-m+fp/hard\libg_nano.a(libc_a-memmove.o)
 .data          0x00000000        0x0 c:/qmk_msys/mingw64/bin/../lib/gcc/arm-none-eabi/12.2.0/../../../../arm-none-eabi/lib/thumb/v7e-m+fp/hard\libg_nano.a(libc_a-memset.o)
 .bss           0x00000000        0x0 c:/qmk_msys/mingw64/bin/../lib/gcc/arm-none-eabi/12.2.0/../../../../arm-none-eabi/lib/thumb/v7e-m+fp/hard\libg_nano.a(libc_a-memset.o)
 .data          0x00000000        0x0 c:/qmk_msys/mingw64/bin/../lib/gcc/arm-none-eabi/12.2.0/../../../../arm-none-eabi/lib/thumb/v7e-m+fp/hard\libg_nano.a(libc_a-signal.o)
 .bss           0x00000000        0x0 c:/qmk_msys/mingw64/bin/../lib/gcc/arm-none-eabi/12.2.0/../../../../arm-none-eabi/lib/thumb/v7e-m+fp/hard\libg_nano.a(libc_a-signal.o)
 .data          0x00000000        0x0 c:/qmk_msys/mingw64/bin/../lib/gcc/arm-none-eabi/12.2.0/../../../../arm-none-eabi/lib/thumb/v7e-m+fp/hard\libg_nano.a(libc_a-signalr.o)
 .bss           0x00000000        0x0 c:/qmk_msys/mingw64/bin/../lib/gcc/arm-none-eabi/12.2.0/../../../../arm-none-eabi/lib/thumb/v7e-m+fp/hard\libg_nano.a(libc_a-signalr.o)
 .data          0x00000000        0x0 c:/qmk_msys/mingw64/bin/../lib/gcc/arm-none-eabi/12.2.0/../../../../arm-none-eabi/lib/thumb/v7e-m+fp/hard\libg_nano.a(libc_a-memchr.o)
 .bss           0x00000000        0x0 c:/qmk_msys/mingw64/bin/../lib/gcc/arm-none-eabi/12.2.0/../../../../arm-none-eabi/lib/thumb/v7e-m+fp/hard\libg_nano.a(libc_a-memchr.o)
 .ARM.extab     0x00000000        0x0 c:/qmk_msys/mingw64/bin/../lib/gcc/arm-none-eabi/12.2.0/../../../../arm-none-eabi/lib/thumb/v7e-m+fp/hard\libg_nano.a(libc_a-memchr.o)
 .eh_frame      0x00000000       0x50 c:/qmk_msys/mingw64/bin/../lib/gcc/arm-none-eabi/12.2.0/../../../../arm-none-eabi/lib/thumb/v7e-m+fp/hard\libg_nano.a(libc_a-memchr.o)
 .data          0x00000000        0x0 c:/qmk_msys/mingw64/bin/../lib/gcc/arm-none-eabi/12.2.0/../../../../arm-none-eabi/lib/thumb/v7e-m+fp/hard\libg_nano.a(libc_a-reallocr.o)
 .bss           0x00000000        0x0 c:/qmk_msys/mingw64/bin/../lib/gcc/arm-none-eabi/12.2.0/../../../../arm-none-eabi/lib/thumb/v7e-m+fp/hard\libg_nano.a(libc_a-reallocr.o)
 .data          0x00000000        0x0 c:/qmk_msys/mingw64/bin/../lib/gcc/arm-none-eabi/12.2.0/../../../../arm-none-eabi/lib/thumb/v7e-m+fp/hard\libg_nano.a(libc_a-fflush.o)
 .bss           0x00000000        0x0 c:/qmk_msys/mingw64/bin/../lib/gcc/arm-none-eabi/12.2.0/../../../../arm-none-eabi/lib/thumb/v7e-m+fp/hard\libg_nano.a(libc_a-fflush.o)
 .data          0x00000000        0x0 c:/qmk_msys/mingw64/bin/../lib/gcc/arm-none-eabi/12.2.0/../../../../arm-none-eabi/lib/thumb/v7e-m+fp/hard\libg_nano.a(libc_a-makebuf.o)
 .bss           0x00000000        0x0 c:/qmk_msys/mingw64/bin/../lib/gcc/arm-none-eabi/12.2.0/../../../../arm-none-eabi/lib/thumb/v7e-m+fp/hard\libg_nano.a(libc_a-makebuf.o)
 .text          0x00000000       0xd4 c:/qmk_msys/mingw64/bin/../lib/gcc/arm-none-eabi/12.2.0/../../../../arm-none-eabi/lib/thumb/v7e-m+fp/hard\libg_nano.a(libc_a-reent.o)
 .data          0x00000000        0x0 c:/qmk_msys/mingw64/bin/../lib/gcc/arm-none-eabi/12.2.0/../../../../arm-none-eabi/lib/thumb/v7e-m+fp/hard\libg_nano.a(libc_a-reent.o)
 .data          0x00000000        0x0 c:/qmk_msys/mingw64/bin/../lib/gcc/arm-none-eabi/12.2.0/../../../../arm-none-eabi/lib/thumb/v7e-m+fp/hard\libg_nano.a(libc_a-msizer.o)
 .bss           0x00000000        0x0 c:/qmk_msys/mingw64/bin/../lib/gcc/arm-none-eabi/12.2.0/../../../../arm-none-eabi/lib/thumb/v7e-m+fp/hard\libg_nano.a(libc_a-msizer.o)
 .data          0x00000000        0x0 c:/qmk_msys/mingw64/bin/../lib/gcc/arm-none-eabi/12.2.0/../../../../arm-none-eabi/lib/thumb/v7e-m+fp/hard\libg_nano.a(libc_a-memcmp.o)
 .bss           0x00000000        0x0 c:/qmk_msys/mingw64/bin/../lib/gcc/arm-none-eabi/12.2.0/../../../../arm-none-eabi/lib/thumb/v7e-m+fp/hard\libg_nano.a(libc_a-memcmp.o)

Memory Configuration

Name             Origin             Length             Attributes
flash0           0x08000000         0x00080000         xr
flash1           0x00000000         0x00000000         xr
flash2           0x00000000         0x00000000         xr
flash3           0x00000000         0x00000000         xr
flash4           0x00000000         0x00000000         xr
flash5           0x00000000         0x00000000         xr
flash6           0x00000000         0x00000000         xr
flash7           0x00000000         0x00000000         xr
ram0             0x20000000         0x00020000         xw
ram1             0x20000000         0x0001c000         xw
ram2             0x00000000         0x00004000         xw
ram3             0x00000000         0x00000000         xw
ram4             0x00000000         0x00000000         xw
ram5             0x00000000         0x00000000         xw
ram6             0x00000000         0x00000000         xw
ram7             0x00000000         0x00000000         xw
*default*        0x00000000         0xffffffff

Linker script and memory map

LOAD .build/obj_vessel_base/keyboards/vessel/vessel.o
LOAD C:\QMK_MSYS\tmp\cchXQqT6.ltrans0.ltrans.o
LOAD C:\QMK_MSYS\tmp\ccMndiui.debug.temp.o
LOAD C:\QMK_MSYS\tmp\cc0Fm2kx.debug.temp.o
LOAD C:\QMK_MSYS\tmp\ccasmfpM.debug.temp.o
LOAD C:\QMK_MSYS\tmp\cc4deco1.debug.temp.o
LOAD C:\QMK_MSYS\tmp\cckR7syg.debug.temp.o
LOAD C:\QMK_MSYS\tmp\cccw8nFv.debug.temp.o
LOAD C:\QMK_MSYS\tmp\ccOuT7LJ.debug.temp.o
LOAD C:\QMK_MSYS\tmp\ccoa1H7X.debug.temp.o
LOAD C:\QMK_MSYS\tmp\cce2Mpnc.debug.temp.o
LOAD C:\QMK_MSYS\tmp\ccmx6ARq.debug.temp.o
LOAD C:\QMK_MSYS\tmp\ccs1VMhF.debug.temp.o
LOAD C:\QMK_MSYS\tmp\cccoT1TT.debug.temp.o
LOAD C:\QMK_MSYS\tmp\ccYZ9Et8.debug.temp.o
LOAD C:\QMK_MSYS\tmp\ccKJyyMq.debug.temp.o
LOAD C:\QMK_MSYS\tmp\ccOqHm1I.debug.temp.o
LOAD C:\QMK_MSYS\tmp\ccOpoZr1.debug.temp.o
LOAD C:\QMK_MSYS\tmp\cccVh7Rj.debug.temp.o
LOAD C:\QMK_MSYS\tmp\ccYOVncC.debug.temp.o
LOAD C:\QMK_MSYS\tmp\ccK2PbMU.debug.temp.o
LOAD C:\QMK_MSYS\tmp\ccQSqSid.debug.temp.o
LOAD C:\QMK_MSYS\tmp\ccSOvWMv.debug.temp.o
LOAD C:\QMK_MSYS\tmp\ccgeiitO.debug.temp.o
LOAD C:\QMK_MSYS\tmp\cc8Mz186.debug.temp.o
LOAD C:\QMK_MSYS\tmp\ccGPrLQo.debug.temp.o
LOAD C:\QMK_MSYS\tmp\ccoBU7tG.debug.temp.o
LOAD C:\QMK_MSYS\tmp\ccYssG5X.debug.temp.o
LOAD C:\QMK_MSYS\tmp\cc84iN5f.debug.temp.o
LOAD C:\QMK_MSYS\tmp\ccaR4n0x.debug.temp.o
LOAD C:\QMK_MSYS\tmp\ccCUU38P.debug.temp.o
LOAD C:\QMK_MSYS\tmp\ccmj5Wg8.debug.temp.o
LOAD C:\QMK_MSYS\tmp\cc8wVEiq.debug.temp.o
LOAD C:\QMK_MSYS\tmp\ccSLYenH.debug.temp.o
LOAD C:\QMK_MSYS\tmp\cc29RKnY.debug.temp.o
LOAD C:\QMK_MSYS\tmp\ccqxbkCf.debug.temp.o
LOAD C:\QMK_MSYS\tmp\ccUrqJ2w.debug.temp.o
LOAD C:\QMK_MSYS\tmp\ccG537mO.debug.temp.o
LOAD C:\QMK_MSYS\tmp\cccZZvV5.debug.temp.o
LOAD C:\QMK_MSYS\tmp\cc8PJrsn.debug.temp.o
LOAD C:\QMK_MSYS\tmp\ccIZWGTE.debug.temp.o
LOAD C:\QMK_MSYS\tmp\cc8nUmrV.debug.temp.o
LOAD C:\QMK_MSYS\tmp\cceiRJUb.debug.temp.o
LOAD C:\QMK_MSYS\tmp\ccw6TSBs.debug.temp.o
LOAD C:\QMK_MSYS\tmp\ccsnFIeJ.debug.temp.o
LOAD C:\QMK_MSYS\tmp\ccaPNr4Z.debug.temp.o
LOAD C:\QMK_MSYS\tmp\cciuobZg.debug.temp.o
LOAD C:\QMK_MSYS\tmp\ccsytQAB.debug.temp.o
LOAD C:\QMK_MSYS\tmp\cc2fSi8V.debug.temp.o
LOAD C:\QMK_MSYS\tmp\cc8HolSg.debug.temp.o
LOAD C:\QMK_MSYS\tmp\ccSqBGAB.debug.temp.o
LOAD C:\QMK_MSYS\tmp\cc8TVBvW.debug.temp.o
LOAD C:\QMK_MSYS\tmp\cc8OO7oh.debug.temp.o
LOAD C:\QMK_MSYS\tmp\ccWN46cC.debug.temp.o
LOAD C:\QMK_MSYS\tmp\ccc9IsfX.debug.temp.o
LOAD C:\QMK_MSYS\tmp\cc6gAfgi.debug.temp.o
LOAD C:\QMK_MSYS\tmp\ccM929jC.debug.temp.o
LOAD C:\QMK_MSYS\tmp\ccm7LIlW.debug.temp.o
LOAD C:\QMK_MSYS\tmp\cc4YVBxg.debug.temp.o
LOAD C:\QMK_MSYS\tmp\cc4Z73GA.debug.temp.o
LOAD C:\QMK_MSYS\tmp\cccb7ZLU.debug.temp.o
LOAD C:\QMK_MSYS\tmp\ccwICi4e.debug.temp.o
LOAD C:\QMK_MSYS\tmp\ccMloLwz.debug.temp.o
LOAD C:\QMK_MSYS\tmp\ccsIKUTS.debug.temp.o
LOAD C:\QMK_MSYS\tmp\ccG4x2qc.debug.temp.o
LOAD C:\QMK_MSYS\tmp\ccy1h0bw.debug.temp.o
LOAD C:\QMK_MSYS\tmp\ccETjqTP.debug.temp.o
LOAD C:\QMK_MSYS\tmp\cc2OgDO9.debug.temp.o
LOAD C:\QMK_MSYS\tmp\ccaQepFt.debug.temp.o
LOAD C:\QMK_MSYS\tmp\cc4X53xM.debug.temp.o
LOAD C:\QMK_MSYS\tmp\cc8s0jj5.debug.temp.o
LOAD C:\QMK_MSYS\tmp\ccGLUYho.debug.temp.o
LOAD C:\QMK_MSYS\tmp\ccoFfdsH.debug.temp.o
LOAD C:\QMK_MSYS\tmp\ccEUwoy0.debug.temp.o
LOAD C:\QMK_MSYS\tmp\ccycb0Rj.debug.temp.o
LOAD C:\QMK_MSYS\tmp\ccGNr66C.debug.temp.o
LOAD C:\QMK_MSYS\tmp\cckznt3Z.debug.temp.o
LOAD C:\QMK_MSYS\tmp\ccWF6BUm.debug.temp.o
LOAD C:\QMK_MSYS\tmp\ccKevWZJ.debug.temp.o
LOAD C:\QMK_MSYS\tmp\cc4Xm7Z6.debug.temp.o
LOAD C:\QMK_MSYS\tmp\ccsfLspu.debug.temp.o
LOAD C:\QMK_MSYS\tmp\ccAMpKLR.debug.temp.o
LOAD C:\QMK_MSYS\tmp\ccyaeabe.debug.temp.o
LOAD C:\QMK_MSYS\tmp\ccwCCBsA.debug.temp.o
LOAD C:\QMK_MSYS\tmp\ccgLal1W.debug.temp.o
LOAD C:\QMK_MSYS\tmp\ccgEWBuj.debug.temp.o
LOAD C:\QMK_MSYS\tmp\ccOWMqbG.debug.temp.o
LOAD C:\QMK_MSYS\tmp\ccUEFKO2.debug.temp.o
LOAD C:\QMK_MSYS\tmp\ccAPTCFp.debug.temp.o
LOAD C:\QMK_MSYS\tmp\ccGZI3qM.debug.temp.o
LOAD C:\QMK_MSYS\tmp\cciqyua8.debug.temp.o
LOAD C:\QMK_MSYS\tmp\ccqrg84t.debug.temp.o
LOAD C:\QMK_MSYS\tmp\ccGCLfVP.debug.temp.o
LOAD C:\QMK_MSYS\tmp\ccO1zI1b.debug.temp.o
LOAD C:\QMK_MSYS\tmp\ccwFmL2x.debug.temp.o
LOAD C:\QMK_MSYS\tmp\cciN1Q2T.debug.temp.o
LOAD C:\QMK_MSYS\tmp\ccA5zahf.debug.temp.o
LOAD C:\QMK_MSYS\tmp\ccccRKpA.debug.temp.o
LOAD C:\QMK_MSYS\tmp\ccacr9wV.debug.temp.o
LOAD C:\QMK_MSYS\tmp\ccSLx1Qg.debug.temp.o
LOAD C:\QMK_MSYS\tmp\ccQLDW6B.debug.temp.o
LOAD C:\QMK_MSYS\tmp\ccuJrsDX.debug.temp.o
LOAD C:\QMK_MSYS\tmp\cccTqh2i.debug.temp.o
LOAD C:\QMK_MSYS\tmp\ccwq6OHE.debug.temp.o
LOAD C:\QMK_MSYS\tmp\ccSymwj0.debug.temp.o
LOAD C:\QMK_MSYS\tmp\ccSD0bDp.debug.temp.o
LOAD C:\QMK_MSYS\tmp\ccu85xSO.debug.temp.o
LOAD C:\QMK_MSYS\tmp\ccCbf35d.debug.temp.o
LOAD C:\QMK_MSYS\tmp\ccm8k9vD.debug.temp.o
LOAD C:\QMK_MSYS\tmp\ccUGDoV2.debug.temp.o
LOAD C:\QMK_MSYS\tmp\ccaUndys.debug.temp.o
LOAD C:\QMK_MSYS\tmp\cckUWc6R.debug.temp.o
LOAD C:\QMK_MSYS\tmp\ccSEPpSh.debug.temp.o
LOAD C:\QMK_MSYS\tmp\ccmB5yyH.debug.temp.o
LOAD C:\QMK_MSYS\tmp\ccKu3Qh6.debug.temp.o
LOAD C:\QMK_MSYS\tmp\cc07yjWu.debug.temp.o
LOAD C:\QMK_MSYS\tmp\cckxa5OT.debug.temp.o
LOAD C:\QMK_MSYS\tmp\ccIqoDCi.debug.temp.o
LOAD C:\QMK_MSYS\tmp\ccSEesEH.debug.temp.o
LOAD C:\QMK_MSYS\tmp\ccKpiHB6.debug.temp.o
LOAD C:\QMK_MSYS\tmp\ccATJ0wv.debug.temp.o
LOAD C:\QMK_MSYS\tmp\ccyhSUGU.debug.temp.o
LOAD C:\QMK_MSYS\tmp\ccgfvfMj.debug.temp.o
LOAD C:\QMK_MSYS\tmp\ccO3hIUH.debug.temp.o
LOAD C:\QMK_MSYS\tmp\ccS2x1X5.debug.temp.o
LOAD C:\QMK_MSYS\tmp\cc2gyXeu.debug.temp.o
LOAD C:\QMK_MSYS\tmp\ccYnujGS.debug.temp.o
LOAD C:\QMK_MSYS\tmp\ccAYm52g.debug.temp.o
LOAD C:\QMK_MSYS\tmp\ccWwkAoF.debug.temp.o
LOAD C:\QMK_MSYS\tmp\cc0HGnX3.debug.temp.o
LOAD C:\QMK_MSYS\tmp\cc8qLvrs.debug.temp.o
LOAD C:\QMK_MSYS\tmp\ccAgEYYP.debug.temp.o
LOAD C:\QMK_MSYS\tmp\cck1d5rd.debug.temp.o
LOAD C:\QMK_MSYS\tmp\ccsu478A.debug.temp.o
LOAD C:\QMK_MSYS\tmp\ccgpOjLY.debug.temp.o
LOAD C:\QMK_MSYS\tmp\ccaVzTzm.debug.temp.o
LOAD C:\QMK_MSYS\tmp\cc8yGukK.debug.temp.o
LOAD C:\QMK_MSYS\tmp\cc6K8hi8.debug.temp.o
LOAD C:\QMK_MSYS\tmp\ccWIbxbw.debug.temp.o
LOAD C:\QMK_MSYS\tmp\cck4FGRX.debug.temp.o
LOAD C:\QMK_MSYS\tmp\cca4Hmtp.debug.temp.o
LOAD C:\QMK_MSYS\tmp\ccG5hVhR.debug.temp.o
LOAD C:\QMK_MSYS\tmp\cc0avd5i.debug.temp.o
LOAD C:\QMK_MSYS\tmp\ccYGnVNK.debug.temp.o
LOAD C:\QMK_MSYS\tmp\cccVIcMc.debug.temp.o
LOAD C:\QMK_MSYS\tmp\ccgI8xEE.debug.temp.o
LOAD C:\QMK_MSYS\tmp\ccmahEK6.debug.temp.o
LOAD C:\QMK_MSYS\tmp\ccsy3VLy.debug.temp.o
LOAD C:\QMK_MSYS\tmp\cc2xLbM0.debug.temp.o
LOAD C:\QMK_MSYS\tmp\ccoQEYPr.debug.temp.o
LOAD C:\QMK_MSYS\tmp\ccWCebRS.debug.temp.o
LOAD C:\QMK_MSYS\tmp\ccS74j6j.debug.temp.o
LOAD C:\QMK_MSYS\tmp\ccW03RiL.debug.temp.o
LOAD C:\QMK_MSYS\tmp\ccM4ngrc.debug.temp.o
LOAD C:\QMK_MSYS\tmp\ccOue1MD.debug.temp.o
LOAD C:\QMK_MSYS\tmp\cccYmH44.debug.temp.o
LOAD C:\QMK_MSYS\tmp\cc48lXyw.debug.temp.o
LOAD C:\QMK_MSYS\tmp\cccKkgZX.debug.temp.o
LOAD C:\QMK_MSYS\tmp\cckL4cro.debug.temp.o
LOAD .build/obj_vessel_base/.build/obj_vessel_base/src/default_keyboard.o
LOAD .build/obj_vessel_base/quantum/keymap_introspection.o
LOAD .build/obj_vessel_base/quantum/quantum.o
LOAD .build/obj_vessel_base/quantum/bitwise.o
LOAD .build/obj_vessel_base/quantum/led.o
LOAD .build/obj_vessel_base/quantum/action.o
LOAD .build/obj_vessel_base/quantum/action_layer.o
LOAD .build/obj_vessel_base/quantum/action_tapping.o
LOAD .build/obj_vessel_base/quantum/action_util.o
LOAD .build/obj_vessel_base/quantum/eeconfig.o
LOAD .build/obj_vessel_base/quantum/keyboard.o
LOAD .build/obj_vessel_base/quantum/keymap_common.o
LOAD .build/obj_vessel_base/quantum/keycode_config.o
LOAD .build/obj_vessel_base/quantum/sync_timer.o
LOAD .build/obj_vessel_base/quantum/logging/debug.o
LOAD .build/obj_vessel_base/quantum/logging/sendchar.o
LOAD .build/obj_vessel_base/quantum/logging/print.o
LOAD .build/obj_vessel_base/quantum/matrix_common.o
LOAD .build/obj_vessel_base/quantum/matrix.o
LOAD .build/obj_vessel_base/quantum/debounce/sym_eager_pk.o
LOAD .build/obj_vessel_base/quantum/main.o
LOAD .build/obj_vessel_base/printf.o
LOAD .build/obj_vessel_base/eeprom_driver.o
LOAD .build/obj_vessel_base/eeprom_transient.o
LOAD .build/obj_vessel_base/quantum/color.o
LOAD .build/obj_vessel_base/quantum/rgb_matrix/rgb_matrix.o
LOAD .build/obj_vessel_base/quantum/rgb_matrix/rgb_matrix_drivers.o
LOAD .build/obj_vessel_base/quantum/process_keycode/process_rgb.o
LOAD .build/obj_vessel_base/quantum/led_tables.o
LOAD .build/obj_vessel_base/lib/lib8tion/lib8tion.o
LOAD .build/obj_vessel_base/oled_driver.o
LOAD .build/obj_vessel_base/quantum/encoder.o
LOAD .build/obj_vessel_base/encoder_quadrature.o
LOAD .build/obj_vessel_base/ws2812_bitbang.o
LOAD .build/obj_vessel_base/quantum/bootmagic/bootmagic.o
LOAD .build/obj_vessel_base/quantum/process_keycode/process_grave_esc.o
LOAD .build/obj_vessel_base/quantum/process_keycode/process_magic.o
LOAD .build/obj_vessel_base/quantum/process_keycode/process_programmable_button.o
LOAD .build/obj_vessel_base/quantum/programmable_button.o
LOAD .build/obj_vessel_base/quantum/send_string/send_string.o
LOAD .build/obj_vessel_base/quantum/process_keycode/process_space_cadet.o
LOAD .build/obj_vessel_base/quantum/process_keycode/process_tap_dance.o
LOAD .build/obj_vessel_base/protocol/host.o
LOAD .build/obj_vessel_base/protocol/report.o
LOAD .build/obj_vessel_base/protocol/usb_device_state.o
LOAD .build/obj_vessel_base/protocol/usb_util.o
LOAD .build/obj_vessel_base/platforms/suspend.o
LOAD .build/obj_vessel_base/platforms/synchronization_util.o
LOAD .build/obj_vessel_base/platforms/timer.o
LOAD .build/obj_vessel_base/platforms/chibios/hardware_id.o
LOAD .build/obj_vessel_base/platforms/chibios/platform.o
LOAD .build/obj_vessel_base/platforms/chibios/suspend.o
LOAD .build/obj_vessel_base/platforms/chibios/timer.o
LOAD .build/obj_vessel_base/platforms/chibios/bootloaders/stm32_dfu.o
LOAD .build/obj_vessel_base/i2c_master.a
LOAD .build/obj_vessel_base/./lib/chibios/os/common/startup/ARMCMx/compilers/GCC/crt0_v7m.o
LOAD .build/obj_vessel_base/./lib/chibios/os/common/startup/ARMCMx/compilers/GCC/vectors.o
LOAD .build/obj_vessel_base/./lib/chibios/os/common/ports/ARMv7-M/compilers/GCC/chcoreasm.o
LOAD .build/obj_vessel_base/protocol/chibios/usb_main.o
LOAD .build/obj_vessel_base/protocol/chibios/chibios.o
LOAD .build/obj_vessel_base/usb_descriptor.o
LOAD .build/obj_vessel_base/protocol/chibios/usb_driver.o
LOAD .build/obj_vessel_base/protocol/chibios/usb_endpoints.o
LOAD .build/obj_vessel_base/protocol/chibios/usb_report_handling.o
LOAD .build/obj_vessel_base/protocol/chibios/usb_util.o
LOAD .build/obj_vessel_base/lib/chibios/os/common/startup/ARMCMx/compilers/GCC/crt1.o
LOAD .build/obj_vessel_base/lib/chibios/os/rt/src/chsys.o
LOAD .build/obj_vessel_base/lib/chibios/os/rt/src/chrfcu.o
LOAD .build/obj_vessel_base/lib/chibios/os/rt/src/chdebug.o
LOAD .build/obj_vessel_base/lib/chibios/os/rt/src/chtrace.o
LOAD .build/obj_vessel_base/lib/chibios/os/rt/src/chvt.o
LOAD .build/obj_vessel_base/lib/chibios/os/rt/src/chschd.o
LOAD .build/obj_vessel_base/lib/chibios/os/rt/src/chinstances.o
LOAD .build/obj_vessel_base/lib/chibios/os/rt/src/chthreads.o
LOAD .build/obj_vessel_base/lib/chibios/os/rt/src/chtm.o
LOAD .build/obj_vessel_base/lib/chibios/os/rt/src/chstats.o
LOAD .build/obj_vessel_base/lib/chibios/os/rt/src/chregistry.o
LOAD .build/obj_vessel_base/lib/chibios/os/rt/src/chsem.o
LOAD .build/obj_vessel_base/lib/chibios/os/rt/src/chmtx.o
LOAD .build/obj_vessel_base/lib/chibios/os/rt/src/chcond.o
LOAD .build/obj_vessel_base/lib/chibios/os/rt/src/chevents.o
LOAD .build/obj_vessel_base/lib/chibios/os/rt/src/chmsg.o
LOAD .build/obj_vessel_base/lib/chibios/os/rt/src/chdynamic.o
LOAD .build/obj_vessel_base/lib/chibios/os/common/ports/ARMv7-M/chcore.o
LOAD .build/obj_vessel_base/lib/chibios/os/hal/osal/rt-nil/osal.o
LOAD .build/obj_vessel_base/lib/chibios/os/oslib/src/chmboxes.o
LOAD .build/obj_vessel_base/lib/chibios/os/oslib/src/chmemcore.o
LOAD .build/obj_vessel_base/lib/chibios/os/oslib/src/chmemheaps.o
LOAD .build/obj_vessel_base/lib/chibios/os/oslib/src/chmempools.o
LOAD .build/obj_vessel_base/lib/chibios/os/oslib/src/chpipes.o
LOAD .build/obj_vessel_base/lib/chibios/os/oslib/src/chobjcaches.o
LOAD .build/obj_vessel_base/lib/chibios/os/oslib/src/chdelegates.o
LOAD .build/obj_vessel_base/lib/chibios/os/oslib/src/chfactory.o
LOAD .build/obj_vessel_base/lib/chibios/os/hal/src/hal.o
LOAD .build/obj_vessel_base/lib/chibios/os/hal/src/hal_st.o
LOAD .build/obj_vessel_base/lib/chibios/os/hal/src/hal_buffers.o
LOAD .build/obj_vessel_base/lib/chibios/os/hal/src/hal_queues.o
LOAD .build/obj_vessel_base/lib/chibios/os/hal/src/hal_flash.o
LOAD .build/obj_vessel_base/lib/chibios/os/hal/src/hal_mmcsd.o
LOAD .build/obj_vessel_base/lib/chibios/os/hal/src/hal_adc.o
LOAD .build/obj_vessel_base/lib/chibios/os/hal/src/hal_can.o
LOAD .build/obj_vessel_base/lib/chibios/os/hal/src/hal_crypto.o
LOAD .build/obj_vessel_base/lib/chibios/os/hal/src/hal_dac.o
LOAD .build/obj_vessel_base/lib/chibios/os/hal/src/hal_efl.o
LOAD .build/obj_vessel_base/lib/chibios/os/hal/src/hal_gpt.o
LOAD .build/obj_vessel_base/lib/chibios/os/hal/src/hal_i2c.o
LOAD .build/obj_vessel_base/lib/chibios/os/hal/src/hal_i2s.o
LOAD .build/obj_vessel_base/lib/chibios/os/hal/src/hal_icu.o
LOAD .build/obj_vessel_base/lib/chibios/os/hal/src/hal_mac.o
LOAD .build/obj_vessel_base/lib/chibios/os/hal/src/hal_mmc_spi.o
LOAD .build/obj_vessel_base/lib/chibios/os/hal/src/hal_pal.o
LOAD .build/obj_vessel_base/lib/chibios/os/hal/src/hal_pwm.o
LOAD .build/obj_vessel_base/lib/chibios/os/hal/src/hal_rtc.o
LOAD .build/obj_vessel_base/lib/chibios/os/hal/src/hal_sdc.o
LOAD .build/obj_vessel_base/lib/chibios/os/hal/src/hal_serial.o
LOAD .build/obj_vessel_base/lib/chibios/os/hal/src/hal_serial_usb.o
LOAD .build/obj_vessel_base/lib/chibios/os/hal/src/hal_sio.o
LOAD .build/obj_vessel_base/lib/chibios/os/hal/src/hal_spi.o
LOAD .build/obj_vessel_base/lib/chibios/os/hal/src/hal_trng.o
LOAD .build/obj_vessel_base/lib/chibios/os/hal/src/hal_uart.o
LOAD .build/obj_vessel_base/lib/chibios/os/hal/src/hal_usb.o
LOAD .build/obj_vessel_base/lib/chibios/os/hal/src/hal_wdg.o
LOAD .build/obj_vessel_base/lib/chibios/os/hal/src/hal_wspi.o
LOAD .build/obj_vessel_base/lib/chibios/os/hal/ports/common/ARMCMx/nvic.o
LOAD .build/obj_vessel_base/lib/chibios/os/hal/ports/STM32/STM32F4xx/stm32_isr.o
LOAD .build/obj_vessel_base/lib/chibios/os/hal/ports/STM32/STM32F4xx/hal_lld.o
LOAD .build/obj_vessel_base/lib/chibios/os/hal/ports/STM32/STM32F4xx/hal_efl_lld.o
LOAD .build/obj_vessel_base/lib/chibios/os/hal/ports/STM32/LLD/ADCv2/hal_adc_lld.o
LOAD .build/obj_vessel_base/lib/chibios/os/hal/ports/STM32/LLD/CANv1/hal_can_lld.o
LOAD .build/obj_vessel_base/lib/chibios/os/hal/ports/STM32/LLD/CRYPv1/hal_crypto_lld.o
LOAD .build/obj_vessel_base/lib/chibios/os/hal/ports/STM32/LLD/DACv1/hal_dac_lld.o
LOAD .build/obj_vessel_base/lib/chibios/os/hal/ports/STM32/LLD/DMAv2/stm32_dma.o
LOAD .build/obj_vessel_base/lib/chibios/os/hal/ports/STM32/LLD/EXTIv1/stm32_exti.o
LOAD .build/obj_vessel_base/lib/chibios/os/hal/ports/STM32/LLD/GPIOv2/hal_pal_lld.o
LOAD .build/obj_vessel_base/lib/chibios/os/hal/ports/STM32/LLD/I2Cv1/hal_i2c_lld.o
LOAD .build/obj_vessel_base/lib/chibios/os/hal/ports/STM32/LLD/MACv1/hal_mac_lld.o
LOAD .build/obj_vessel_base/lib/chibios/os/hal/ports/STM32/LLD/OTGv1/hal_usb_lld.o
LOAD .build/obj_vessel_base/lib/chibios/os/hal/ports/STM32/LLD/QUADSPIv1/hal_wspi_lld.o
LOAD .build/obj_vessel_base/lib/chibios/os/hal/ports/STM32/LLD/RTCv2/hal_rtc_lld.o
LOAD .build/obj_vessel_base/lib/chibios/os/hal/ports/STM32/LLD/SPIv1/hal_i2s_lld.o
LOAD .build/obj_vessel_base/lib/chibios/os/hal/ports/STM32/LLD/SPIv1/hal_spi_v2_lld.o
LOAD .build/obj_vessel_base/lib/chibios/os/hal/ports/STM32/LLD/SDIOv1/hal_sdc_lld.o
LOAD .build/obj_vessel_base/lib/chibios/os/hal/ports/STM32/LLD/SYSTICKv1/hal_st_lld.o
LOAD .build/obj_vessel_base/lib/chibios/os/hal/ports/STM32/LLD/TIMv1/hal_gpt_lld.o
LOAD .build/obj_vessel_base/lib/chibios/os/hal/ports/STM32/LLD/TIMv1/hal_icu_lld.o
LOAD .build/obj_vessel_base/lib/chibios/os/hal/ports/STM32/LLD/TIMv1/hal_pwm_lld.o
LOAD .build/obj_vessel_base/lib/chibios/os/hal/ports/STM32/LLD/USARTv1/hal_serial_lld.o
LOAD .build/obj_vessel_base/lib/chibios/os/hal/ports/STM32/LLD/USARTv1/hal_uart_lld.o
LOAD .build/obj_vessel_base/lib/chibios/os/hal/ports/STM32/LLD/xWDGv1/hal_wdg_lld.o
LOAD .build/obj_vessel_base/lib/chibios/os/hal/boards/ST_NUCLEO64_F446RE/board.o
LOAD .build/obj_vessel_base/lib/chibios/os/hal/lib/streams/chprintf.o
LOAD .build/obj_vessel_base/lib/chibios/os/hal/lib/streams/chscanf.o
LOAD .build/obj_vessel_base/lib/chibios/os/hal/lib/streams/memstreams.o
LOAD .build/obj_vessel_base/lib/chibios/os/hal/lib/streams/nullstreams.o
LOAD .build/obj_vessel_base/lib/chibios/os/hal/lib/streams/bufstreams.o
LOAD .build/obj_vessel_base/lib/chibios/os/various/syscalls.o
LOAD .build/obj_vessel_base/platforms/chibios/syscall-fallbacks.o
LOAD .build/obj_vessel_base/platforms/chibios/wait.o
LOAD .build/obj_vessel_base/platforms/chibios/synchronization_util.o
LOAD .build/obj_vessel_base/platforms/chibios/interrupt_handlers.o
                0x00000800                        __process_stack_size__ = 0x800
                0x00000400                        __main_stack_size__ = 0x400
LOAD c:/qmk_msys/mingw64/bin/../lib/gcc/arm-none-eabi/12.2.0/../../../../arm-none-eabi/lib/thumb/v7e-m+fp/hard\libm.a
START GROUP
LOAD c:/qmk_msys/mingw64/bin/../lib/gcc/arm-none-eabi/12.2.0/thumb/v7e-m+fp/hard\libgcc.a
LOAD c:/qmk_msys/mingw64/bin/../lib/gcc/arm-none-eabi/12.2.0/../../../../arm-none-eabi/lib/thumb/v7e-m+fp/hard\libg_nano.a
LOAD c:/qmk_msys/mingw64/bin/../lib/gcc/arm-none-eabi/12.2.0/../../../../arm-none-eabi/lib/thumb/v7e-m+fp/hard\libc_nano.a
END GROUP
START GROUP
LOAD c:/qmk_msys/mingw64/bin/../lib/gcc/arm-none-eabi/12.2.0/thumb/v7e-m+fp/hard\libgcc.a
LOAD c:/qmk_msys/mingw64/bin/../lib/gcc/arm-none-eabi/12.2.0/../../../../arm-none-eabi/lib/thumb/v7e-m+fp/hard\libc_nano.a
END GROUP

.mstack         0x20000000      0x400
                0x20000000                        . = ALIGN (0x8)
                0x20000000                        __main_stack_base__ = .
                0x20000400                        . = (. + __main_stack_size__)
 *fill*         0x20000000      0x400 
                0x20000400                        . = ALIGN (0x8)
                0x20000400                        __main_stack_end__ = .

.pstack         0x20000400      0x800
                0x20000400                        . = ALIGN (0x8)
                0x20000400                        __process_stack_base__ = .
                0x20000400                        __main_thread_stack_base__ = .
                0x20000c00                        . = (. + __process_stack_size__)
 *fill*         0x20000400      0x800 
                0x20000c00                        . = ALIGN (0x8)
                0x20000c00                        __process_stack_end__ = .
                0x20000c00                        __main_thread_stack_end__ = .

.vectors        0x08000000      0x1e0
                0x08000000                        __textvectors_base__ = LOADADDR (.vectors)
                0x08000000                        __vectors_base__ = .
 *(.vectors)
 .vectors       0x08000000      0x1e0 .build/obj_vessel_base/./lib/chibios/os/common/startup/ARMCMx/compilers/GCC/vectors.o
                0x08000000                _vectors
                0x080001e0                        __vectors_end__ = .

.xtors          0x080001e0        0x0
                0x080001e0                        __init_array_base__ = .
 *(SORT_BY_NAME(.init_array.*))
 *(.init_array)
                0x080001e0                        __init_array_end__ = .
                0x080001e0                        __fini_array_base__ = .
 *(.fini_array)
 *(SORT_BY_NAME(.fini_array.*))
                0x080001e0                        __fini_array_end__ = .

.text           0x080001e0     0x97d8
                0x080001e0                        __text_base__ = .
 *(.text)
 .text          0x080001e0      0x11c .build/obj_vessel_base/./lib/chibios/os/common/startup/ARMCMx/compilers/GCC/crt0_v7m.o
                0x080001e0                _crt0_entry
 .text          0x080002fc        0x8 .build/obj_vessel_base/./lib/chibios/os/common/startup/ARMCMx/compilers/GCC/vectors.o
                0x080002fc                Reset_Handler
                0x080002fe                VectorE8
                0x080002fe                Vector9C
                0x080002fe                VectorAC
                0x080002fe                DebugMon_Handler
                0x080002fe                Vector1A0
                0x080002fe                Vector5C
                0x080002fe                Vector11C
                0x080002fe                HardFault_Handler
                0x080002fe                Vector1B8
                0x080002fe                Vector19C
                0x080002fe                Vector8C
                0x080002fe                SysTick_Handler
                0x080002fe                VectorDC
                0x080002fe                PendSV_Handler
                0x080002fe                Vector168
                0x080002fe                NMI_Handler
                0x080002fe                Vector110
                0x080002fe                Vector1D8
                0x080002fe                VectorC8
                0x080002fe                Vector94
                0x080002fe                VectorA8
                0x080002fe                VectorB4
                0x080002fe                Vector160
                0x080002fe                Vector1B0
                0x080002fe                UsageFault_Handler
                0x080002fe                VectorEC
                0x080002fe                Vector40
                0x080002fe                VectorF8
                0x080002fe                Vector108
                0x080002fe                Vector190
                0x080002fe                Vector1C4
                0x080002fe                Vector1CC
                0x080002fe                Vector148
                0x080002fe                Vector188
                0x080002fe                Vector198
                0x080002fe                Vector118
                0x080002fe                Vector64
                0x080002fe                Vector58
                0x080002fe                VectorCC
                0x080002fe                Vector54
                0x080002fe                Vector98
                0x080002fe                VectorD8
                0x080002fe                Vector138
                0x080002fe                Vector24
                0x080002fe                Vector1AC
                0x080002fe                Vector178
                0x080002fe                SecureFault_Handler
                0x080002fe                Vector1A4
                0x080002fe                VectorD0
                0x080002fe                Vector1B4
                0x080002fe                Vector140
                0x080002fe                VectorE4
                0x080002fe                Vector1C0
                0x080002fe                Vector134
                0x080002fe                Vector1D0
                0x080002fe                VectorF0
                0x080002fe                Vector13C
                0x080002fe                Vector100
                0x080002fe                VectorE0
                0x080002fe                VectorF4
                0x080002fe                MemManage_Handler
                0x080002fe                VectorA0
                0x080002fe                VectorC4
                0x080002fe                Vector180
                0x080002fe                Vector90
                0x080002fe                Vector114
                0x080002fe                Vector164
                0x080002fe                Vector60
                0x080002fe                Vector1BC
                0x080002fe                Vector1D4
                0x080002fe                Vector17C
                0x080002fe                Vector48
                0x080002fe                Vector1A8
                0x080002fe                Vector16C
                0x080002fe                VectorD4
                0x080002fe                Vector4C
                0x080002fe                Vector144
                0x080002fe                Vector15C
                0x080002fe                Vector68
                0x080002fe                Vector18C
                0x080002fe                Vector170
                0x080002fe                Vector88
                0x080002fe                Vector104
                0x080002fe                Vector184
                0x080002fe                Vector10C
                0x080002fe                BusFault_Handler
                0x080002fe                Vector50
                0x080002fe                Vector1C8
                0x080002fe                Vector194
                0x080002fe                Vector1DC
                0x080002fe                Vector44
                0x080002fe                Vector28
                0x080002fe                VectorB8
                0x080002fe                Vector34
                0x080002fe                VectorA4
                0x080002fe                Vector20
                0x080002fe                Vector174
                0x08000302                _unhandled_exception
 .text          0x08000304       0x32 .build/obj_vessel_base/./lib/chibios/os/common/ports/ARMv7-M/compilers/GCC/chcoreasm.o
                0x08000304                __port_switch
                0x0800031c                __port_thread_start
                0x0800032e                __port_switch_from_isr
                0x08000332                __port_exit_from_isr
 *fill*         0x08000336        0x2 
 .text          0x08000338       0x30 c:/qmk_msys/mingw64/bin/../lib/gcc/arm-none-eabi/12.2.0/thumb/v7e-m+fp/hard\libgcc.a(_aeabi_uldivmod.o)
                0x08000338                __aeabi_uldivmod
 .text          0x08000368        0x4 c:/qmk_msys/mingw64/bin/../lib/gcc/arm-none-eabi/12.2.0/thumb/v7e-m+fp/hard\libgcc.a(_dvmd_tls.o)
                0x08000368                __aeabi_idiv0
                0x08000368                __aeabi_ldiv0
 *fill*         0x0800036c        0x4 
 .text          0x08000370       0xfc c:/qmk_msys/mingw64/bin/../lib/gcc/arm-none-eabi/12.2.0/../../../../arm-none-eabi/lib/thumb/v7e-m+fp/hard\libg_nano.a(libc_a-rand.o)
                0x08000370                srand
                0x080003d4                rand
 .text          0x0800046c      0x134 c:/qmk_msys/mingw64/bin/../lib/gcc/arm-none-eabi/12.2.0/../../../../arm-none-eabi/lib/thumb/v7e-m+fp/hard\libg_nano.a(libc_a-memcpy.o)
                0x0800046c                memcpy
 .text          0x080005a0       0x4c c:/qmk_msys/mingw64/bin/../lib/gcc/arm-none-eabi/12.2.0/../../../../arm-none-eabi/lib/thumb/v7e-m+fp/hard\libg_nano.a(libc_a-assert.o)
                0x080005a0                __assert_func
                0x080005e0                __assert
 .text          0x080005ec       0x20 c:/qmk_msys/mingw64/bin/../lib/gcc/arm-none-eabi/12.2.0/../../../../arm-none-eabi/lib/thumb/v7e-m+fp/hard\libg_nano.a(libc_a-malloc.o)
                0x080005ec                malloc
                0x080005fc                free
 .text          0x0800060c      0x140 c:/qmk_msys/mingw64/bin/../lib/gcc/arm-none-eabi/12.2.0/../../../../arm-none-eabi/lib/thumb/v7e-m+fp/hard\libg_nano.a(libc_a-mallocr.o)
                0x08000654                _malloc_r
 .text          0x0800074c       0x18 c:/qmk_msys/mingw64/bin/../lib/gcc/arm-none-eabi/12.2.0/../../../../arm-none-eabi/lib/thumb/v7e-m+fp/hard\libg_nano.a(libc_a-mlock.o)
                0x0800074c                __malloc_lock
                0x08000758                __malloc_unlock
 .text          0x08000764       0x44 c:/qmk_msys/mingw64/bin/../lib/gcc/arm-none-eabi/12.2.0/../../../../arm-none-eabi/lib/thumb/v7e-m+fp/hard\libg_nano.a(libc_a-fprintf.o)
                0x08000764                _fprintf_r
                0x08000764                _fiprintf_r
                0x08000780                fiprintf
                0x08000780                fprintf
 .text          0x080007a8       0x28 c:/qmk_msys/mingw64/bin/../lib/gcc/arm-none-eabi/12.2.0/../../../../arm-none-eabi/lib/thumb/v7e-m+fp/hard\libg_nano.a(libc_a-lock.o)
                0x080007a8                __retarget_lock_init
                0x080007ac                __retarget_lock_init_recursive
                0x080007b0                __retarget_lock_close
                0x080007b4                __retarget_lock_close_recursive
                0x080007b8                __retarget_lock_acquire
                0x080007bc                __retarget_lock_acquire_recursive
                0x080007c0                __retarget_lock_try_acquire
                0x080007c4                __retarget_lock_try_acquire_recursive
                0x080007c8                __retarget_lock_release
                0x080007cc                __retarget_lock_release_recursive
 .text          0x080007d0       0x10 c:/qmk_msys/mingw64/bin/../lib/gcc/arm-none-eabi/12.2.0/../../../../arm-none-eabi/lib/thumb/v7e-m+fp/hard\libg_nano.a(libc_a-abort.o)
                0x080007d0                abort
 .text          0x080007e0       0xbc c:/qmk_msys/mingw64/bin/../lib/gcc/arm-none-eabi/12.2.0/../../../../arm-none-eabi/lib/thumb/v7e-m+fp/hard\libg_nano.a(libc_a-freer.o)
                0x080007e0                _free_r
 .text          0x0800089c      0x368 c:/qmk_msys/mingw64/bin/../lib/gcc/arm-none-eabi/12.2.0/../../../../arm-none-eabi/lib/thumb/v7e-m+fp/hard\libg_nano.a(libc_a-nano-vfprintf.o)
                0x080008d8                __sfputs_r
                0x08000908                __sprint_r
                0x08000928                _vfiprintf_r
                0x08000928                _vfprintf_r
                0x08000be8                vfprintf
                0x08000be8                vfiprintf
 .text          0x08000c04      0x3a4 c:/qmk_msys/mingw64/bin/../lib/gcc/arm-none-eabi/12.2.0/../../../../arm-none-eabi/lib/thumb/v7e-m+fp/hard\libg_nano.a(libc_a-nano-vfprintf_i.o)
                0x08000c04                _printf_common
                0x08000d28                _printf_i
 .text          0x08000fa8      0x2dc c:/qmk_msys/mingw64/bin/../lib/gcc/arm-none-eabi/12.2.0/../../../../arm-none-eabi/lib/thumb/v7e-m+fp/hard\libg_nano.a(libc_a-findfp.o)
                0x08001124                __sfp
                0x080011e4                __sinit
                0x08001224                __sfp_lock_acquire
                0x08001230                __sfp_lock_release
                0x0800123c                __fp_lock_all
                0x08001260                __fp_unlock_all
 .text          0x08001284      0x300 c:/qmk_msys/mingw64/bin/../lib/gcc/arm-none-eabi/12.2.0/../../../../arm-none-eabi/lib/thumb/v7e-m+fp/hard\libg_nano.a(libc_a-fvwrite.o)
                0x08001284                __sfvwrite_r
 .text          0x08001584       0x48 c:/qmk_msys/mingw64/bin/../lib/gcc/arm-none-eabi/12.2.0/../../../../arm-none-eabi/lib/thumb/v7e-m+fp/hard\libg_nano.a(libc_a-fwalk.o)
                0x08001584                _fwalk_sglue
 .text          0x080015cc       0x94 c:/qmk_msys/mingw64/bin/../lib/gcc/arm-none-eabi/12.2.0/../../../../arm-none-eabi/lib/thumb/v7e-m+fp/hard\libg_nano.a(libc_a-stdio.o)
                0x080015cc                __sread
                0x080015f0                __seofread
                0x080015f4                __swrite
                0x08001634                __sseek
                0x08001658                __sclose
 .text          0x08001660       0xa0 c:/qmk_msys/mingw64/bin/../lib/gcc/arm-none-eabi/12.2.0/../../../../arm-none-eabi/lib/thumb/v7e-m+fp/hard\libg_nano.a(libc_a-wbuf.o)
                0x08001660                __swbuf_r
                0x080016e8                __swbuf
 .text          0x08001700       0xc0 c:/qmk_msys/mingw64/bin/../lib/gcc/arm-none-eabi/12.2.0/../../../../arm-none-eabi/lib/thumb/v7e-m+fp/hard\libg_nano.a(libc_a-wsetup.o)
                0x08001700                __swsetup_r
 .text          0x080017c0      0x100 c:/qmk_msys/mingw64/bin/../lib/gcc/arm-none-eabi/12.2.0/../../../../arm-none-eabi/lib/thumb/v7e-m+fp/hard\libg_nano.a(libc_a-memmove.o)
                0x080017c0                memmove
 .text          0x080018c0       0xa4 c:/qmk_msys/mingw64/bin/../lib/gcc/arm-none-eabi/12.2.0/../../../../arm-none-eabi/lib/thumb/v7e-m+fp/hard\libg_nano.a(libc_a-memset.o)
                0x080018c0                memset
 .text          0x08001964      0x260 c:/qmk_msys/mingw64/bin/../lib/gcc/arm-none-eabi/12.2.0/../../../../arm-none-eabi/lib/thumb/v7e-m+fp/hard\libg_nano.a(libc_a-signal.o)
                0x08001964                _init_signal_r
                0x08001990                _signal_r
                0x080019dc                _raise_r
                0x08001a2c                __sigtramp_r
                0x08001a8c                raise
                0x08001ae0                signal
                0x08001b2c                _init_signal
                0x08001b60                __sigtramp
 .text          0x08001bc4       0x30 c:/qmk_msys/mingw64/bin/../lib/gcc/arm-none-eabi/12.2.0/../../../../arm-none-eabi/lib/thumb/v7e-m+fp/hard\libg_nano.a(libc_a-signalr.o)
                0x08001bc4                _kill_r
                0x08001bf0                _getpid_r
 *fill*         0x08001bf4        0xc 
 .text          0x08001c00       0xa0 c:/qmk_msys/mingw64/bin/../lib/gcc/arm-none-eabi/12.2.0/../../../../arm-none-eabi/lib/thumb/v7e-m+fp/hard\libg_nano.a(libc_a-memchr.o)
                0x08001c00                memchr
 .text          0x08001ca0       0x68 c:/qmk_msys/mingw64/bin/../lib/gcc/arm-none-eabi/12.2.0/../../../../arm-none-eabi/lib/thumb/v7e-m+fp/hard\libg_nano.a(libc_a-reallocr.o)
                0x08001ca0                _realloc_r
 .text          0x08001d08      0x1a0 c:/qmk_msys/mingw64/bin/../lib/gcc/arm-none-eabi/12.2.0/../../../../arm-none-eabi/lib/thumb/v7e-m+fp/hard\libg_nano.a(libc_a-fflush.o)
                0x08001d08                __sflush_r
                0x08001e28                _fflush_r
                0x08001e80                fflush
 .text          0x08001ea8      0x114 c:/qmk_msys/mingw64/bin/../lib/gcc/arm-none-eabi/12.2.0/../../../../arm-none-eabi/lib/thumb/v7e-m+fp/hard\libg_nano.a(libc_a-makebuf.o)
                0x08001ea8                __smakebuf_r
                0x08001f6c                __swhatbuf_r
 .text          0x08001fbc       0x10 c:/qmk_msys/mingw64/bin/../lib/gcc/arm-none-eabi/12.2.0/../../../../arm-none-eabi/lib/thumb/v7e-m+fp/hard\libg_nano.a(libc_a-msizer.o)
                0x08001fbc                _malloc_usable_size_r
 .text          0x08001fcc       0x60 c:/qmk_msys/mingw64/bin/../lib/gcc/arm-none-eabi/12.2.0/../../../../arm-none-eabi/lib/thumb/v7e-m+fp/hard\libg_nano.a(libc_a-memcmp.o)
                0x08001fcc                memcmp
 *(.text.*)
 .text.do_code16
                0x0800202c       0x58 C:\QMK_MSYS\tmp\cchXQqT6.ltrans0.ltrans.o
 .text.layer_on
                0x08002084       0x14 C:\QMK_MSYS\tmp\cchXQqT6.ltrans0.ltrans.o
 .text.layer_off
                0x08002098       0x14 C:\QMK_MSYS\tmp\cchXQqT6.ltrans0.ltrans.o
 .text.update_source_layers_cache_impl
                0x080020ac       0x32 C:\QMK_MSYS\tmp\cchXQqT6.ltrans0.ltrans.o
 .text.read_source_layers_cache_impl
                0x080020de       0x26 C:\QMK_MSYS\tmp\cchXQqT6.ltrans0.ltrans.o
 .text.update_source_layers_cache
                0x08002104       0x44 C:\QMK_MSYS\tmp\cchXQqT6.ltrans0.ltrans.o
 .text.read_source_layers_cache
                0x08002148       0x3c C:\QMK_MSYS\tmp\cchXQqT6.ltrans0.ltrans.o
 .text.debug_waiting_buffer
                0x08002184       0x20 C:\QMK_MSYS\tmp\cchXQqT6.ltrans0.ltrans.o
 .text.keymap_key_to_keycode
                0x080021a4       0x50 C:\QMK_MSYS\tmp\cchXQqT6.ltrans0.ltrans.o
 .text.keycode_config
                0x080021f4      0x10c C:\QMK_MSYS\tmp\cchXQqT6.ltrans0.ltrans.o
 .text.mod_config
                0x08002300       0xc4 C:\QMK_MSYS\tmp\cchXQqT6.ltrans0.ltrans.o
 .text.action_for_keycode
                0x080023c4      0x1a8 C:\QMK_MSYS\tmp\cchXQqT6.ltrans0.ltrans.o
 .text.layer_switch_get_layer
                0x0800256c       0x50 C:\QMK_MSYS\tmp\cchXQqT6.ltrans0.ltrans.o
 .text.get_record_keycode
                0x080025bc       0x34 C:\QMK_MSYS\tmp\cchXQqT6.ltrans0.ltrans.o
 .text.layer_switch_get_action
                0x080025f0       0x24 C:\QMK_MSYS\tmp\cchXQqT6.ltrans0.ltrans.o
 .text.is_tap_record
                0x08002614       0x50 C:\QMK_MSYS\tmp\cchXQqT6.ltrans0.ltrans.o
 .text.sendchar
                0x08002664        0x4 C:\QMK_MSYS\tmp\cchXQqT6.ltrans0.ltrans.o
 .text.null_sendchar_func
                0x08002668        0x4 C:\QMK_MSYS\tmp\cchXQqT6.ltrans0.ltrans.o
 .text.__idle_thread
                0x0800266c        0x4 C:\QMK_MSYS\tmp\cchXQqT6.ltrans0.ltrans.o
 .text.hsv_to_rgb
                0x08002670       0xac C:\QMK_MSYS\tmp\cchXQqT6.ltrans0.ltrans.o
 .text.sqrt16   0x0800271c       0x4c C:\QMK_MSYS\tmp\cchXQqT6.ltrans0.ltrans.o
 .text.random8  0x08002768       0x24 C:\QMK_MSYS\tmp\cchXQqT6.ltrans0.ltrans.o
 .text.sin8_C   0x0800278c       0x48 C:\QMK_MSYS\tmp\cchXQqT6.ltrans0.ltrans.o
 .text.atan2_8  0x080027d4       0x46 C:\QMK_MSYS\tmp\cchXQqT6.ltrans0.ltrans.o
 *fill*         0x0800281a        0x2 
 .text.BAND_SAT_math
                0x0800281c       0x5c C:\QMK_MSYS\tmp\cchXQqT6.ltrans0.ltrans.o
 .text.BAND_VAL_math
                0x08002878       0x5c C:\QMK_MSYS\tmp\cchXQqT6.ltrans0.ltrans.o
 .text.BAND_PINWHEEL_SAT_math
                0x080028d4       0x48 C:\QMK_MSYS\tmp\cchXQqT6.ltrans0.ltrans.o
 .text.BAND_PINWHEEL_VAL_math
                0x0800291c       0x48 C:\QMK_MSYS\tmp\cchXQqT6.ltrans0.ltrans.o
 .text.BAND_SPIRAL_SAT_math
                0x08002964       0x46 C:\QMK_MSYS\tmp\cchXQqT6.ltrans0.ltrans.o
 .text.BAND_SPIRAL_VAL_math
                0x080029aa       0x46 C:\QMK_MSYS\tmp\cchXQqT6.ltrans0.ltrans.o
 .text.CYCLE_ALL_math
                0x080029f0       0x26 C:\QMK_MSYS\tmp\cchXQqT6.ltrans0.ltrans.o
 *fill*         0x08002a16        0x2 
 .text.CYCLE_LEFT_RIGHT_math
                0x08002a18       0x38 C:\QMK_MSYS\tmp\cchXQqT6.ltrans0.ltrans.o
 .text.CYCLE_UP_DOWN_math
                0x08002a50       0x38 C:\QMK_MSYS\tmp\cchXQqT6.ltrans0.ltrans.o
 .text.RAINBOW_MOVING_CHEVRON_math
                0x08002a88       0x54 C:\QMK_MSYS\tmp\cchXQqT6.ltrans0.ltrans.o
 .text.CYCLE_OUT_IN_math
                0x08002adc       0x32 C:\QMK_MSYS\tmp\cchXQqT6.ltrans0.ltrans.o
 .text.CYCLE_OUT_IN_DUAL_math
                0x08002b0e       0x48 C:\QMK_MSYS\tmp\cchXQqT6.ltrans0.ltrans.o
 .text.CYCLE_PINWHEEL_math
                0x08002b56       0x30 C:\QMK_MSYS\tmp\cchXQqT6.ltrans0.ltrans.o
 .text.CYCLE_SPIRAL_math
                0x08002b86       0x36 C:\QMK_MSYS\tmp\cchXQqT6.ltrans0.ltrans.o
 .text.DUAL_BEACON_math
                0x08002bbc       0x50 C:\QMK_MSYS\tmp\cchXQqT6.ltrans0.ltrans.o
 .text.RAINBOW_BEACON_math
                0x08002c0c       0x50 C:\QMK_MSYS\tmp\cchXQqT6.ltrans0.ltrans.o
 .text.RAINBOW_PINWHEELS_math
                0x08002c5c       0x60 C:\QMK_MSYS\tmp\cchXQqT6.ltrans0.ltrans.o
 .text.FLOWER_BLOOMING_math
                0x08002cbc       0x48 C:\QMK_MSYS\tmp\cchXQqT6.ltrans0.ltrans.o
 .text.HUE_PENDULUM_math
                0x08002d04       0x64 C:\QMK_MSYS\tmp\cchXQqT6.ltrans0.ltrans.o
 .text.HUE_WAVE_math
                0x08002d68       0x4c C:\QMK_MSYS\tmp\cchXQqT6.ltrans0.ltrans.o
 .text.SOLID_REACTIVE_SIMPLE_math
                0x08002db4       0x58 C:\QMK_MSYS\tmp\cchXQqT6.ltrans0.ltrans.o
 .text.SOLID_REACTIVE_math
                0x08002e0c       0x50 C:\QMK_MSYS\tmp\cchXQqT6.ltrans0.ltrans.o
 .text.SOLID_REACTIVE_WIDE_math
                0x08002e5c       0x70 C:\QMK_MSYS\tmp\cchXQqT6.ltrans0.ltrans.o
 .text.SOLID_REACTIVE_CROSS_math
                0x08002ecc       0x9c C:\QMK_MSYS\tmp\cchXQqT6.ltrans0.ltrans.o
 .text.SOLID_REACTIVE_NEXUS_math
                0x08002f68       0x94 C:\QMK_MSYS\tmp\cchXQqT6.ltrans0.ltrans.o
 .text.SPLASH_math
                0x08002ffc       0x4e C:\QMK_MSYS\tmp\cchXQqT6.ltrans0.ltrans.o
 .text.SOLID_SPLASH_math
                0x0800304a       0x44 C:\QMK_MSYS\tmp\cchXQqT6.ltrans0.ltrans.o
 .text.rgb_matrix_set_color
                0x0800308e        0x4 C:\QMK_MSYS\tmp\cchXQqT6.ltrans0.ltrans.o
 .text.rgb_matrix_set_color_all
                0x08003092        0x4 C:\QMK_MSYS\tmp\cchXQqT6.ltrans0.ltrans.o
 .text.rgb_matrix_get_limits
                0x08003096       0x2a C:\QMK_MSYS\tmp\cchXQqT6.ltrans0.ltrans.o
 .text.rgb_matrix_disable_noeeprom
                0x080030c0       0x20 C:\QMK_MSYS\tmp\cchXQqT6.ltrans0.ltrans.o
 .text.setled   0x080030e0       0x3c C:\QMK_MSYS\tmp\cchXQqT6.ltrans0.ltrans.o
 .text.setled_all
                0x0800311c       0x1c C:\QMK_MSYS\tmp\cchXQqT6.ltrans0.ltrans.o
 .text.handleKeycodeRGB
                0x08003138        0x6 C:\QMK_MSYS\tmp\cchXQqT6.ltrans0.ltrans.o
 *fill*         0x0800313e        0x2 
 .text.oled_write_raw
                0x08003140       0x60 C:\QMK_MSYS\tmp\cchXQqT6.ltrans0.ltrans.o
 .text.encoder_quadrature_read_pin
                0x080031a0       0x24 C:\QMK_MSYS\tmp\cchXQqT6.ltrans0.ltrans.o
 .text.sendByte
                0x080031c4       0x78 C:\QMK_MSYS\tmp\cchXQqT6.ltrans0.ltrans.o
 .text.flush    0x0800323c       0x6c C:\QMK_MSYS\tmp\cchXQqT6.ltrans0.ltrans.o
 .text._process_tap_dance_action_fn
                0x080032a8        0x6 C:\QMK_MSYS\tmp\cchXQqT6.ltrans0.ltrans.o
 *fill*         0x080032ae        0x2 
 .text.host_keyboard_leds
                0x080032b0       0x10 C:\QMK_MSYS\tmp\cchXQqT6.ltrans0.ltrans.o
 .text.host_system_send
                0x080032c0       0x38 C:\QMK_MSYS\tmp\cchXQqT6.ltrans0.ltrans.o
 .text.host_consumer_send
                0x080032f8       0x38 C:\QMK_MSYS\tmp\cchXQqT6.ltrans0.ltrans.o
 .text.add_key_to_report
                0x08003330       0x70 C:\QMK_MSYS\tmp\cchXQqT6.ltrans0.ltrans.o
 .text.del_key_from_report
                0x080033a0       0x5c C:\QMK_MSYS\tmp\cchXQqT6.ltrans0.ltrans.o
 .text.timer_read32
                0x080033fc       0x6c C:\QMK_MSYS\tmp\cchXQqT6.ltrans0.ltrans.o
 .text.__NVIC_SystemReset
                0x08003468       0x24 C:\QMK_MSYS\tmp\cchXQqT6.ltrans0.ltrans.o
 .text.usb_get_descriptor_cb
                0x0800348c       0xb8 C:\QMK_MSYS\tmp\cchXQqT6.ltrans0.ltrans.o
 .text.set_led_transfer_cb
                0x08003544       0x34 C:\QMK_MSYS\tmp\cchXQqT6.ltrans0.ltrans.o
 .text.usb_requests_hook_cb
                0x08003578      0x1b4 C:\QMK_MSYS\tmp\cchXQqT6.ltrans0.ltrans.o
 .text.dummy_cb
                0x0800372c        0x2 C:\QMK_MSYS\tmp\cchXQqT6.ltrans0.ltrans.o
 *fill*         0x0800372e        0x2 
 .text.keyboard_leds
                0x08003730        0xc C:\QMK_MSYS\tmp\cchXQqT6.ltrans0.ltrans.o
 .text.send_mouse
                0x0800373c        0x2 C:\QMK_MSYS\tmp\cchXQqT6.ltrans0.ltrans.o
 .text.usb_endpoint_in_is_inactive
                0x0800373e       0x38 C:\QMK_MSYS\tmp\cchXQqT6.ltrans0.ltrans.o
 *fill*         0x08003776        0x2 
 .text.usb_set_idle_rate
                0x08003778       0x1c C:\QMK_MSYS\tmp\cchXQqT6.ltrans0.ltrans.o
 .text.usb_get_idle_rate
                0x08003794        0xc C:\QMK_MSYS\tmp\cchXQqT6.ltrans0.ltrans.o
 .text.usb_idle_timer_elapsed
                0x080037a0       0x4c C:\QMK_MSYS\tmp\cchXQqT6.ltrans0.ltrans.o
 .text.usb_shared_set_idle_rate
                0x080037ec       0x24 C:\QMK_MSYS\tmp\cchXQqT6.ltrans0.ltrans.o
 .text.usb_shared_get_idle_rate
                0x08003810       0x16 C:\QMK_MSYS\tmp\cchXQqT6.ltrans0.ltrans.o
 *fill*         0x08003826        0x2 
 .text.usb_shared_idle_timer_elapsed
                0x08003828       0x58 C:\QMK_MSYS\tmp\cchXQqT6.ltrans0.ltrans.o
 .text.chSysPolledDelayX
                0x08003880       0x14 C:\QMK_MSYS\tmp\cchXQqT6.ltrans0.ltrans.o
 .text.obqGetFullBufferI
                0x08003894       0x1c C:\QMK_MSYS\tmp\cchXQqT6.ltrans0.ltrans.o
 .text.obqPostFullBufferS
                0x080038b0       0x26 C:\QMK_MSYS\tmp\cchXQqT6.ltrans0.ltrans.o
 *fill*         0x080038d6        0x2 
 .text.dmaStreamFreeI
                0x080038d8       0x7c C:\QMK_MSYS\tmp\cchXQqT6.ltrans0.ltrans.o
 .text.i2c_lld_abort_operation
                0x08003954       0x4a C:\QMK_MSYS\tmp\cchXQqT6.ltrans0.ltrans.o
 *fill*         0x0800399e        0x2 
 .text.i2c_lld_serve_tx_end_irq
                0x080039a0       0x44 C:\QMK_MSYS\tmp\cchXQqT6.ltrans0.ltrans.o
 .text.otg_disable_ep
                0x080039e4       0x56 C:\QMK_MSYS\tmp\cchXQqT6.ltrans0.ltrans.o
 .text.usb_lld_start_in
                0x08003a3a       0x8a C:\QMK_MSYS\tmp\cchXQqT6.ltrans0.ltrans.o
 .text.usbStartTransmitI
                0x08003ac4       0x24 C:\QMK_MSYS\tmp\cchXQqT6.ltrans0.ltrans.o
 .text.obnotify
                0x08003ae8       0x3a C:\QMK_MSYS\tmp\cchXQqT6.ltrans0.ltrans.o
 .text._usb_ep0out
                0x08003b22       0x80 C:\QMK_MSYS\tmp\cchXQqT6.ltrans0.ltrans.o
 .text.gpio_init
                0x08003ba2       0x1e C:\QMK_MSYS\tmp\cchXQqT6.ltrans0.ltrans.o
 .text._usb_wakeup.constprop.0
                0x08003bc0       0x1c C:\QMK_MSYS\tmp\cchXQqT6.ltrans0.ltrans.o
 .text.usb_lld_start_out.constprop.0
                0x08003bdc       0x66 C:\QMK_MSYS\tmp\cchXQqT6.ltrans0.ltrans.o
 .text.usbStartReceiveI.constprop.0
                0x08003c42       0x20 C:\QMK_MSYS\tmp\cchXQqT6.ltrans0.ltrans.o
 .text._usb_ep0in
                0x08003c62       0xb8 C:\QMK_MSYS\tmp\cchXQqT6.ltrans0.ltrans.o
 *fill*         0x08003d1a        0x2 
 .text.dmaStreamAllocI.part.0.constprop.0
                0x08003d1c       0xa8 C:\QMK_MSYS\tmp\cchXQqT6.ltrans0.ltrans.o
 .text.effect_runner_dx_dy.constprop.0
                0x08003dc4       0xc4 C:\QMK_MSYS\tmp\cchXQqT6.ltrans0.ltrans.o
 .text.effect_runner_dx_dy_dist.constprop.0
                0x08003e88       0xec C:\QMK_MSYS\tmp\cchXQqT6.ltrans0.ltrans.o
 .text.effect_runner_sin_cos_i.constprop.0
                0x08003f74       0xd4 C:\QMK_MSYS\tmp\cchXQqT6.ltrans0.ltrans.o
 .text.effect_runner_i.constprop.0
                0x08004048       0xac C:\QMK_MSYS\tmp\cchXQqT6.ltrans0.ltrans.o
 .text.effect_runner_reactive.constprop.0
                0x080040f4       0xf8 C:\QMK_MSYS\tmp\cchXQqT6.ltrans0.ltrans.o
 .text.effect_runner_reactive_splash.constprop.0
                0x080041ec      0x140 C:\QMK_MSYS\tmp\cchXQqT6.ltrans0.ltrans.o
 .text.set_starlight_color.constprop.0
                0x0800432c       0x68 C:\QMK_MSYS\tmp\cchXQqT6.ltrans0.ltrans.o
 .text.eeconfig_flag_rgb_matrix.constprop.0
                0x08004394       0x10 C:\QMK_MSYS\tmp\cchXQqT6.ltrans0.ltrans.o
 .text.rgb_matrix_enable
                0x080043a4       0x24 C:\QMK_MSYS\tmp\cchXQqT6.ltrans0.ltrans.o
 .text.rgb_matrix_increase_speed
                0x080043c8       0x18 C:\QMK_MSYS\tmp\cchXQqT6.ltrans0.ltrans.o
 .text.rgb_matrix_decrease_speed
                0x080043e0       0x14 C:\QMK_MSYS\tmp\cchXQqT6.ltrans0.ltrans.o
 .text.rgb_matrix_sethsv_eeprom_helper.constprop.0
                0x080043f4       0x28 C:\QMK_MSYS\tmp\cchXQqT6.ltrans0.ltrans.o
 .text.rgb_matrix_increase_hue
                0x0800441c       0x14 C:\QMK_MSYS\tmp\cchXQqT6.ltrans0.ltrans.o
 .text.rgb_matrix_decrease_hue
                0x08004430       0x14 C:\QMK_MSYS\tmp\cchXQqT6.ltrans0.ltrans.o
 .text.rgb_matrix_increase_sat
                0x08004444       0x1c C:\QMK_MSYS\tmp\cchXQqT6.ltrans0.ltrans.o
 .text.rgb_matrix_decrease_sat
                0x08004460       0x18 C:\QMK_MSYS\tmp\cchXQqT6.ltrans0.ltrans.o
 .text.rgb_matrix_increase_val
                0x08004478       0x1c C:\QMK_MSYS\tmp\cchXQqT6.ltrans0.ltrans.o
 .text.rgb_matrix_decrease_val
                0x08004494       0x18 C:\QMK_MSYS\tmp\cchXQqT6.ltrans0.ltrans.o
 .text.rgb_matrix_mode_eeprom_helper.constprop.0
                0x080044ac       0x28 C:\QMK_MSYS\tmp\cchXQqT6.ltrans0.ltrans.o
 .text.rgb_matrix_step
                0x080044d4       0x18 C:\QMK_MSYS\tmp\cchXQqT6.ltrans0.ltrans.o
 .text.rgb_matrix_step_reverse
                0x080044ec       0x1c C:\QMK_MSYS\tmp\cchXQqT6.ltrans0.ltrans.o
 .text.otg_txfifo_flush.isra.0
                0x08004508       0x14 C:\QMK_MSYS\tmp\cchXQqT6.ltrans0.ltrans.o
 .text.usb_event_queue_enqueue.isra.0
                0x0800451c       0x28 C:\QMK_MSYS\tmp\cchXQqT6.ltrans0.ltrans.o
 .text.waiting_buffer_typed.isra.0
                0x08004544       0x44 C:\QMK_MSYS\tmp\cchXQqT6.ltrans0.ltrans.o
 .text.send_keyboard_report
                0x08004588       0x94 C:\QMK_MSYS\tmp\cchXQqT6.ltrans0.ltrans.o
 .text.register_mods
                0x0800461c       0x14 C:\QMK_MSYS\tmp\cchXQqT6.ltrans0.ltrans.o
 .text.unregister_mods
                0x08004630       0x18 C:\QMK_MSYS\tmp\cchXQqT6.ltrans0.ltrans.o
 .text.register_weak_mods
                0x08004648       0x14 C:\QMK_MSYS\tmp\cchXQqT6.ltrans0.ltrans.o
 .text.unregister_weak_mods
                0x0800465c       0x18 C:\QMK_MSYS\tmp\cchXQqT6.ltrans0.ltrans.o
 .text.unregister_code.part.0
                0x08004674       0x74 C:\QMK_MSYS\tmp\cchXQqT6.ltrans0.ltrans.o
 .text.unregister_code
                0x080046e8       0x3c C:\QMK_MSYS\tmp\cchXQqT6.ltrans0.ltrans.o
 .text.unregister_code16
                0x08004724       0x2c C:\QMK_MSYS\tmp\cchXQqT6.ltrans0.ltrans.o
 .text.process_tap_dance_action_on_reset
                0x08004750       0x28 C:\QMK_MSYS\tmp\cchXQqT6.ltrans0.ltrans.o
 .text.process_tap_dance_action_on_dance_finished
                0x08004778       0x48 C:\QMK_MSYS\tmp\cchXQqT6.ltrans0.ltrans.o
 .text.eeprom_write_block
                0x080047c0       0x24 C:\QMK_MSYS\tmp\cchXQqT6.ltrans0.ltrans.o
 .text.usb_set_report
                0x080047e4       0x22 C:\QMK_MSYS\tmp\cchXQqT6.ltrans0.ltrans.o
 .text.usb_get_report
                0x08004806       0x16 C:\QMK_MSYS\tmp\cchXQqT6.ltrans0.ltrans.o
 .text.usb_shared_set_report
                0x0800481c       0x2a C:\QMK_MSYS\tmp\cchXQqT6.ltrans0.ltrans.o
 .text.usb_shared_get_report
                0x08004846       0x1c C:\QMK_MSYS\tmp\cchXQqT6.ltrans0.ltrans.o
 *fill*         0x08004862        0x2 
 .text.eeprom_driver_erase
                0x08004864       0x10 C:\QMK_MSYS\tmp\cchXQqT6.ltrans0.ltrans.o
 .text.eeprom_read_block
                0x08004874       0x34 C:\QMK_MSYS\tmp\cchXQqT6.ltrans0.ltrans.o
 .text.eeprom_update_byte
                0x080048a8       0x34 C:\QMK_MSYS\tmp\cchXQqT6.ltrans0.ltrans.o
 .text.eeprom_read_word
                0x080048dc       0x1e C:\QMK_MSYS\tmp\cchXQqT6.ltrans0.ltrans.o
 .text.eeprom_update_word
                0x080048fa       0x22 C:\QMK_MSYS\tmp\cchXQqT6.ltrans0.ltrans.o
 .text.eeprom_update_dword.constprop.0
                0x0800491c       0x2a C:\QMK_MSYS\tmp\cchXQqT6.ltrans0.ltrans.o
 *fill*         0x08004946        0x2 
 .text.oled_clear
                0x08004948       0x2c C:\QMK_MSYS\tmp\cchXQqT6.ltrans0.ltrans.o
 .text.animation_on.isra.0
                0x08004974       0x84 C:\QMK_MSYS\tmp\cchXQqT6.ltrans0.ltrans.o
 .text.clear_keys_from_report
                0x080049f8       0x34 C:\QMK_MSYS\tmp\cchXQqT6.ltrans0.ltrans.o
 .text.usb_reset_report
                0x08004a2c       0x1c C:\QMK_MSYS\tmp\cchXQqT6.ltrans0.ltrans.o
 .text.usb_shared_reset_report
                0x08004a48       0x26 C:\QMK_MSYS\tmp\cchXQqT6.ltrans0.ltrans.o
 *fill*         0x08004a6e        0x2 
 .text.set_starlight_dual_sat_color.constprop.0
                0x08004a70       0x80 C:\QMK_MSYS\tmp\cchXQqT6.ltrans0.ltrans.o
 .text.set_starlight_dual_hue_color.constprop.0
                0x08004af0       0x80 C:\QMK_MSYS\tmp\cchXQqT6.ltrans0.ltrans.o
 .text.oled_send_cmd
                0x08004b70       0x16 C:\QMK_MSYS\tmp\cchXQqT6.ltrans0.ltrans.o
 *fill*         0x08004b86        0x2 
 .text.oled_off.isra.0
                0x08004b88       0x2c C:\QMK_MSYS\tmp\cchXQqT6.ltrans0.ltrans.o
 .text.oled_on.isra.0
                0x08004bb4       0x3c C:\QMK_MSYS\tmp\cchXQqT6.ltrans0.ltrans.o
 .text.oled_task
                0x08004bf0      0x218 C:\QMK_MSYS\tmp\cchXQqT6.ltrans0.ltrans.o
 .text.ch_dlist_insert
                0x08004e08       0x2a C:\QMK_MSYS\tmp\cchXQqT6.ltrans0.ltrans.o
 *fill*         0x08004e32        0x2 
 .text.vt_set_alarm
                0x08004e34       0x38 C:\QMK_MSYS\tmp\cchXQqT6.ltrans0.ltrans.o
 .text.vt_insert_first.constprop.0
                0x08004e6c       0x54 C:\QMK_MSYS\tmp\cchXQqT6.ltrans0.ltrans.o
 .text.__sch_ready_behind.isra.0
                0x08004ec0       0x1c C:\QMK_MSYS\tmp\cchXQqT6.ltrans0.ltrans.o
 .text.usb_endpoint_in_tx_complete_cb
                0x08004edc       0xba C:\QMK_MSYS\tmp\cchXQqT6.ltrans0.ltrans.o
 .text.__sch_wakeup
                0x08004f96       0x44 C:\QMK_MSYS\tmp\cchXQqT6.ltrans0.ltrans.o
 .text.chThdResumeI
                0x08004fda       0x12 C:\QMK_MSYS\tmp\cchXQqT6.ltrans0.ltrans.o
 .text.i2c_lld_serve_rx_end_irq
                0x08004fec       0x68 C:\QMK_MSYS\tmp\cchXQqT6.ltrans0.ltrans.o
 .text._usb_ep0setup
                0x08005054      0x34c C:\QMK_MSYS\tmp\cchXQqT6.ltrans0.ltrans.o
 .text.otg_epin_handler.constprop.0
                0x080053a0      0x108 C:\QMK_MSYS\tmp\cchXQqT6.ltrans0.ltrans.o
 .text.otg_epout_handler.constprop.0
                0x080054a8       0xac C:\QMK_MSYS\tmp\cchXQqT6.ltrans0.ltrans.o
 .text.chThdDequeueAllI.constprop.0
                0x08005554       0x1e C:\QMK_MSYS\tmp\cchXQqT6.ltrans0.ltrans.o
 .text.obqResetI
                0x08005572       0x14 C:\QMK_MSYS\tmp\cchXQqT6.ltrans0.ltrans.o
 *fill*         0x08005586        0x2 
 .text.usb_event_cb
                0x08005588      0x218 C:\QMK_MSYS\tmp\cchXQqT6.ltrans0.ltrans.o
 .text.chSchGoSleepS
                0x080057a0       0x1c C:\QMK_MSYS\tmp\cchXQqT6.ltrans0.ltrans.o
 .text.chSchGoSleepTimeoutS
                0x080057bc       0xd0 C:\QMK_MSYS\tmp\cchXQqT6.ltrans0.ltrans.o
 .text.__port_irq_epilogue
                0x0800588c       0x5c C:\QMK_MSYS\tmp\cchXQqT6.ltrans0.ltrans.o
 .text.eeprom_update_block.constprop.0
                0x080058e8       0x2e C:\QMK_MSYS\tmp\cchXQqT6.ltrans0.ltrans.o
 *fill*         0x08005916        0x2 
 .text.rgb_matrix_task
                0x08005918      0x97c C:\QMK_MSYS\tmp\cchXQqT6.ltrans0.ltrans.o
 .text.oled_init.constprop.0.isra.0
                0x08006294       0x88 C:\QMK_MSYS\tmp\cchXQqT6.ltrans0.ltrans.o
 .text.led_init_ports
                0x0800631c        0x2 C:\QMK_MSYS\tmp\cchXQqT6.ltrans0.ltrans.o
                0x0800631c                __cpu_init
 *fill*         0x0800631e        0x2 
 .text.__early_init
                0x08006320      0x22c C:\QMK_MSYS\tmp\cchXQqT6.ltrans0.ltrans.o
                0x08006320                __early_init
 .text.__late_init
                0x0800654c        0x2 C:\QMK_MSYS\tmp\cchXQqT6.ltrans0.ltrans.o
                0x0800654c                __late_init
 .text.__default_exit
                0x0800654e        0x2 C:\QMK_MSYS\tmp\cchXQqT6.ltrans0.ltrans.o
                0x0800654e                __default_exit
 .text.__init_ram_areas
                0x08006550       0x58 C:\QMK_MSYS\tmp\cchXQqT6.ltrans0.ltrans.o
                0x08006550                __init_ram_areas
 .text.__sch_reschedule_ahead
                0x080065a8       0x3c C:\QMK_MSYS\tmp\cchXQqT6.ltrans0.ltrans.o
                0x080065a8                chSchDoPreemption
 .text.chSchRescheduleS
                0x080065e4       0x18 C:\QMK_MSYS\tmp\cchXQqT6.ltrans0.ltrans.o
 .text.send_report.isra.0
                0x080065fc      0x160 C:\QMK_MSYS\tmp\cchXQqT6.ltrans0.ltrans.o
 .text.programmable_button_flush
                0x0800675c       0x38 C:\QMK_MSYS\tmp\cchXQqT6.ltrans0.ltrans.o
 .text.clear_keyboard
                0x08006794       0x38 C:\QMK_MSYS\tmp\cchXQqT6.ltrans0.ltrans.o
 .text.send_keyboard
                0x080067cc        0xa C:\QMK_MSYS\tmp\cchXQqT6.ltrans0.ltrans.o
 .text.send_nkro
                0x080067d6        0xa C:\QMK_MSYS\tmp\cchXQqT6.ltrans0.ltrans.o
 .text.send_extra
                0x080067e0        0xa C:\QMK_MSYS\tmp\cchXQqT6.ltrans0.ltrans.o
 *fill*         0x080067ea        0x2 
 .text.chThdExit
                0x080067ec       0x18 C:\QMK_MSYS\tmp\cchXQqT6.ltrans0.ltrans.o
                0x080067ec                chThdExit
 .text.chThdSleep
                0x08006804       0x18 C:\QMK_MSYS\tmp\cchXQqT6.ltrans0.ltrans.o
                0x08006804                chThdSleep
 .text.register_code.part.0
                0x0800681c       0xf8 C:\QMK_MSYS\tmp\cchXQqT6.ltrans0.ltrans.o
 .text.register_code
                0x08006914       0x32 C:\QMK_MSYS\tmp\cchXQqT6.ltrans0.ltrans.o
 *fill*         0x08006946        0x2 
 .text.register_code16
                0x08006948       0x2c C:\QMK_MSYS\tmp\cchXQqT6.ltrans0.ltrans.o
 .text.tap_dance_pair_on_each_tap
                0x08006974       0x1a C:\QMK_MSYS\tmp\cchXQqT6.ltrans0.ltrans.o
 .text.tap_dance_pair_finished
                0x0800698e        0x6 C:\QMK_MSYS\tmp\cchXQqT6.ltrans0.ltrans.o
 .text.tap_code
                0x08006994       0x26 C:\QMK_MSYS\tmp\cchXQqT6.ltrans0.ltrans.o
 *fill*         0x080069ba        0x2 
 .text.perform_space_cadet.constprop.0.isra.0
                0x080069bc       0xa8 C:\QMK_MSYS\tmp\cchXQqT6.ltrans0.ltrans.o
 .text.process_record
                0x08006a64      0x934 C:\QMK_MSYS\tmp\cchXQqT6.ltrans0.ltrans.o
 .text.waiting_buffer_scan_tap
                0x08007398       0x80 C:\QMK_MSYS\tmp\cchXQqT6.ltrans0.ltrans.o
 .text.process_tapping
                0x08007418      0x1fc C:\QMK_MSYS\tmp\cchXQqT6.ltrans0.ltrans.o
 .text.action_exec
                0x08007614       0xcc C:\QMK_MSYS\tmp\cchXQqT6.ltrans0.ltrans.o
 .text.generate_tick_event
                0x080076e0       0x38 C:\QMK_MSYS\tmp\cchXQqT6.ltrans0.ltrans.o
 .text.tap_dance_pair_reset
                0x08007718       0x22 C:\QMK_MSYS\tmp\cchXQqT6.ltrans0.ltrans.o
 *fill*         0x0800773a        0x2 
 .text.SVC_Handler
                0x0800773c       0x20 C:\QMK_MSYS\tmp\cchXQqT6.ltrans0.ltrans.o
                0x0800773c                SVC_Handler
 .text.i2cStart
                0x0800775c      0x188 C:\QMK_MSYS\tmp\cchXQqT6.ltrans0.ltrans.o
                0x0800775c                i2cStart
 .text.i2cStop  0x080078e4       0x7c C:\QMK_MSYS\tmp\cchXQqT6.ltrans0.ltrans.o
                0x080078e4                i2cStop
 .text.i2cMasterTransmitTimeout
                0x08007960      0x120 C:\QMK_MSYS\tmp\cchXQqT6.ltrans0.ltrans.o
                0x08007960                i2cMasterTransmitTimeout
 .text.VectorB0
                0x08007a80       0xd0 C:\QMK_MSYS\tmp\cchXQqT6.ltrans0.ltrans.o
                0x08007a80                VectorB0
 .text.Vector6C
                0x08007b50       0x28 C:\QMK_MSYS\tmp\cchXQqT6.ltrans0.ltrans.o
                0x08007b50                Vector6C
 .text.Vector70
                0x08007b78       0x2c C:\QMK_MSYS\tmp\cchXQqT6.ltrans0.ltrans.o
                0x08007b78                Vector70
 .text.Vector74
                0x08007ba4       0x2c C:\QMK_MSYS\tmp\cchXQqT6.ltrans0.ltrans.o
                0x08007ba4                Vector74
 .text.Vector78
                0x08007bd0       0x2c C:\QMK_MSYS\tmp\cchXQqT6.ltrans0.ltrans.o
                0x08007bd0                Vector78
 .text.Vector7C
                0x08007bfc       0x28 C:\QMK_MSYS\tmp\cchXQqT6.ltrans0.ltrans.o
                0x08007bfc                Vector7C
 .text.Vector80
                0x08007c24       0x2c C:\QMK_MSYS\tmp\cchXQqT6.ltrans0.ltrans.o
                0x08007c24                Vector80
 .text.Vector84
                0x08007c50       0x2c C:\QMK_MSYS\tmp\cchXQqT6.ltrans0.ltrans.o
                0x08007c50                Vector84
 .text.VectorFC
                0x08007c7c       0x2c C:\QMK_MSYS\tmp\cchXQqT6.ltrans0.ltrans.o
                0x08007c7c                VectorFC
 .text.Vector120
                0x08007ca8       0x28 C:\QMK_MSYS\tmp\cchXQqT6.ltrans0.ltrans.o
                0x08007ca8                Vector120
 .text.Vector124
                0x08007cd0       0x2c C:\QMK_MSYS\tmp\cchXQqT6.ltrans0.ltrans.o
                0x08007cd0                Vector124
 .text.Vector128
                0x08007cfc       0x2c C:\QMK_MSYS\tmp\cchXQqT6.ltrans0.ltrans.o
                0x08007cfc                Vector128
 .text.Vector12C
                0x08007d28       0x2c C:\QMK_MSYS\tmp\cchXQqT6.ltrans0.ltrans.o
                0x08007d28                Vector12C
 .text.Vector130
                0x08007d54       0x28 C:\QMK_MSYS\tmp\cchXQqT6.ltrans0.ltrans.o
                0x08007d54                Vector130
 .text.Vector150
                0x08007d7c       0x2c C:\QMK_MSYS\tmp\cchXQqT6.ltrans0.ltrans.o
                0x08007d7c                Vector150
 .text.Vector154
                0x08007da8       0x2c C:\QMK_MSYS\tmp\cchXQqT6.ltrans0.ltrans.o
                0x08007da8                Vector154
 .text.Vector158
                0x08007dd4       0x2c C:\QMK_MSYS\tmp\cchXQqT6.ltrans0.ltrans.o
                0x08007dd4                Vector158
 .text._pal_lld_setgroupmode
                0x08007e00       0xd6 C:\QMK_MSYS\tmp\cchXQqT6.ltrans0.ltrans.o
                0x08007e00                _pal_lld_setgroupmode
 .text.setPinInputHigh_atomic
                0x08007ed6       0x22 C:\QMK_MSYS\tmp\cchXQqT6.ltrans0.ltrans.o
 .text.init     0x08007ef8       0x1c C:\QMK_MSYS\tmp\cchXQqT6.ltrans0.ltrans.o
 .text.encoder_quadrature_init_pin
                0x08007f14       0x24 C:\QMK_MSYS\tmp\cchXQqT6.ltrans0.ltrans.o
 .text.matrix_scan.isra.0
                0x08007f38      0x29c C:\QMK_MSYS\tmp\cchXQqT6.ltrans0.ltrans.o
 .text.startup.main
                0x080081d4      0xd08 C:\QMK_MSYS\tmp\cchXQqT6.ltrans0.ltrans.o
                0x080081d4                main
 .text.VectorBC
                0x08008edc      0x114 C:\QMK_MSYS\tmp\cchXQqT6.ltrans0.ltrans.o
                0x08008edc                VectorBC
 .text.VectorC0
                0x08008ff0       0xd0 C:\QMK_MSYS\tmp\cchXQqT6.ltrans0.ltrans.o
                0x08008ff0                VectorC0
 .text.Vector14C
                0x080090c0      0x450 C:\QMK_MSYS\tmp\cchXQqT6.ltrans0.ltrans.o
                0x080090c0                Vector14C
 .text._read_r  0x08009510        0xa C:\QMK_MSYS\tmp\cchXQqT6.ltrans0.ltrans.o
                0x08009510                _read_r
 .text._lseek_r
                0x0800951a        0x4 C:\QMK_MSYS\tmp\cchXQqT6.ltrans0.ltrans.o
                0x0800951a                _lseek_r
 .text._write_r
                0x0800951e        0x4 C:\QMK_MSYS\tmp\cchXQqT6.ltrans0.ltrans.o
                0x0800951e                _write_r
 .text._close_r
                0x08009522        0x4 C:\QMK_MSYS\tmp\cchXQqT6.ltrans0.ltrans.o
                0x08009522                _close_r
 *fill*         0x08009526        0x2 
 .text._sbrk_r  0x08009528       0x3c C:\QMK_MSYS\tmp\cchXQqT6.ltrans0.ltrans.o
                0x08009528                _sbrk_r
 .text._fstat_r
                0x08009564       0x18 C:\QMK_MSYS\tmp\cchXQqT6.ltrans0.ltrans.o
                0x08009564                _fstat_r
 .text._isatty_r
                0x0800957c        0x4 C:\QMK_MSYS\tmp\cchXQqT6.ltrans0.ltrans.o
                0x0800957c                _isatty_r
 .text._exit    0x08009580       0x14 C:\QMK_MSYS\tmp\cchXQqT6.ltrans0.ltrans.o
                0x08009580                _exit
 .text._kill    0x08009594       0x14 C:\QMK_MSYS\tmp\cchXQqT6.ltrans0.ltrans.o
                0x08009594                _kill
 .text._getpid  0x080095a8        0x4 C:\QMK_MSYS\tmp\cchXQqT6.ltrans0.ltrans.o
                0x080095a8                _getpid
 .text._fini    0x080095ac        0x2 C:\QMK_MSYS\tmp\cchXQqT6.ltrans0.ltrans.o
                0x080095ac                _fini
 *fill*         0x080095ae        0x2 
 .text.i2c_epilogue
                0x080095b0       0x20 .build/obj_vessel_base/i2c_master.a(i2c_master.o)
 .text.i2c_init
                0x080095d0       0x50 .build/obj_vessel_base/i2c_master.a(i2c_master.o)
                0x080095d0                i2c_init
 .text.i2c_transmit
                0x08009620       0x68 .build/obj_vessel_base/i2c_master.a(i2c_master.o)
                0x08009620                i2c_transmit
 .text.i2c_write_register
                0x08009688       0x90 .build/obj_vessel_base/i2c_master.a(i2c_master.o)
                0x08009688                i2c_write_register
 .text.__udivmoddi4
                0x08009718      0x2a0 c:/qmk_msys/mingw64/bin/../lib/gcc/arm-none-eabi/12.2.0/thumb/v7e-m+fp/hard\libgcc.a(_udivmoddi4.o)
                0x08009718                __udivmoddi4
 *(.glue_7t)
 .glue_7t       0x080099b8        0x0 linker stubs
 *(.glue_7)
 .glue_7        0x080099b8        0x0 linker stubs
 *(.gcc*)
                0x080099b8                        __text_end__ = .

.vfp11_veneer   0x080099b8        0x0
 .vfp11_veneer  0x080099b8        0x0 linker stubs

.v4_bx          0x080099b8        0x0
 .v4_bx         0x080099b8        0x0 linker stubs

.iplt           0x080099b8        0x0
 .iplt          0x080099b8        0x0 .build/obj_vessel_base/i2c_master.a(i2c_master.o)

.rodata         0x080099b8     0x59c8
                0x080099b8                        __rodata_base__ = .
 *(.rodata)
 *(.rodata.*)
 .rodata.i2c_lld_serve_tx_end_irq.str1.1
                0x080099b8       0x19 C:\QMK_MSYS\tmp\cchXQqT6.ltrans0.ltrans.o
                                  0xc (size before relaxing)
 .rodata._exit.str1.1
                0x080099d1        0x5 C:\QMK_MSYS\tmp\cchXQqT6.ltrans0.ltrans.o
 .rodata._kill.str1.1
                0x080099d1        0x5 C:\QMK_MSYS\tmp\cchXQqT6.ltrans0.ltrans.o
 .rodata.epd_bitmap_frame_18_delay_0.21
                0x080099d1      0x400 C:\QMK_MSYS\tmp\cchXQqT6.ltrans0.ltrans.o
 .rodata.epd_bitmap_frame_17_delay_0.20
                0x08009dd1      0x400 C:\QMK_MSYS\tmp\cchXQqT6.ltrans0.ltrans.o
 .rodata.epd_bitmap_frame_16_delay_0.19
                0x0800a1d1      0x400 C:\QMK_MSYS\tmp\cchXQqT6.ltrans0.ltrans.o
 .rodata.epd_bitmap_frame_15_delay_0.18
                0x0800a5d1      0x400 C:\QMK_MSYS\tmp\cchXQqT6.ltrans0.ltrans.o
 .rodata.epd_bitmap_frame_14_delay_0.17
                0x0800a9d1      0x400 C:\QMK_MSYS\tmp\cchXQqT6.ltrans0.ltrans.o
 .rodata.epd_bitmap_frame_13_delay_0.16
                0x0800add1      0x400 C:\QMK_MSYS\tmp\cchXQqT6.ltrans0.ltrans.o
 .rodata.epd_bitmap_frame_12_delay_0.15
                0x0800b1d1      0x400 C:\QMK_MSYS\tmp\cchXQqT6.ltrans0.ltrans.o
 .rodata.epd_bitmap_frame_11_delay_0.14
                0x0800b5d1      0x400 C:\QMK_MSYS\tmp\cchXQqT6.ltrans0.ltrans.o
 .rodata.epd_bitmap_frame_10_delay_0.13
                0x0800b9d1      0x400 C:\QMK_MSYS\tmp\cchXQqT6.ltrans0.ltrans.o
 .rodata.epd_bitmap_frame_9_delay_0.12
                0x0800bdd1      0x400 C:\QMK_MSYS\tmp\cchXQqT6.ltrans0.ltrans.o
 .rodata.epd_bitmap_frame_8_delay_0.11
                0x0800c1d1      0x400 C:\QMK_MSYS\tmp\cchXQqT6.ltrans0.ltrans.o
 .rodata.epd_bitmap_frame_7_delay_0.10
                0x0800c5d1      0x400 C:\QMK_MSYS\tmp\cchXQqT6.ltrans0.ltrans.o
 .rodata.epd_bitmap_frame_6_delay_0.9
                0x0800c9d1      0x400 C:\QMK_MSYS\tmp\cchXQqT6.ltrans0.ltrans.o
 .rodata.epd_bitmap_frame_5_delay_0.8
                0x0800cdd1      0x400 C:\QMK_MSYS\tmp\cchXQqT6.ltrans0.ltrans.o
 .rodata.epd_bitmap_frame_4_delay_0.7
                0x0800d1d1      0x400 C:\QMK_MSYS\tmp\cchXQqT6.ltrans0.ltrans.o
 .rodata.epd_bitmap_frame_3_delay_0.6
                0x0800d5d1      0x400 C:\QMK_MSYS\tmp\cchXQqT6.ltrans0.ltrans.o
 .rodata.epd_bitmap_frame_2_delay_0.5
                0x0800d9d1      0x400 C:\QMK_MSYS\tmp\cchXQqT6.ltrans0.ltrans.o
 .rodata.epd_bitmap_frame_1_delay_0.4
                0x0800ddd1      0x400 C:\QMK_MSYS\tmp\cchXQqT6.ltrans0.ltrans.o
 .rodata.epd_bitmap_frame_0_delay_0.3
                0x0800e1d1      0x400 C:\QMK_MSYS\tmp\cchXQqT6.ltrans0.ltrans.o
 .rodata.ProductString
                0x0800e5d1       0x14 C:\QMK_MSYS\tmp\cchXQqT6.ltrans0.ltrans.o
 .rodata.ManufacturerString
                0x0800e5e5       0x24 C:\QMK_MSYS\tmp\cchXQqT6.ltrans0.ltrans.o
 .rodata.LanguageString
                0x0800e609        0x4 C:\QMK_MSYS\tmp\cchXQqT6.ltrans0.ltrans.o
 *fill*         0x0800e60d        0x1 
 .rodata.frame_sizes.22
                0x0800e60e       0x26 C:\QMK_MSYS\tmp\cchXQqT6.ltrans0.ltrans.o
 .rodata.epd_bitmap_allArray.23
                0x0800e634       0x4c C:\QMK_MSYS\tmp\cchXQqT6.ltrans0.ltrans.o
 .rodata.display_on.5
                0x0800e680        0x2 C:\QMK_MSYS\tmp\cchXQqT6.ltrans0.ltrans.o
 .rodata.display_off.4
                0x0800e682        0x2 C:\QMK_MSYS\tmp\cchXQqT6.ltrans0.ltrans.o
 .rodata.display_setup2.11
                0x0800e684        0xd C:\QMK_MSYS\tmp\cchXQqT6.ltrans0.ltrans.o
 .rodata.display_flipped.12
                0x0800e691        0x5 C:\QMK_MSYS\tmp\cchXQqT6.ltrans0.ltrans.o
 .rodata.display_normal.13
                0x0800e696        0x5 C:\QMK_MSYS\tmp\cchXQqT6.ltrans0.ltrans.o
 .rodata.display_setup1.14
                0x0800e69b        0xb C:\QMK_MSYS\tmp\cchXQqT6.ltrans0.ltrans.o
 *fill*         0x0800e6a6        0x2 
 .rodata.ep0config
                0x0800e6a8       0x24 C:\QMK_MSYS\tmp\cchXQqT6.ltrans0.ltrans.o
 .rodata.active_status
                0x0800e6cc        0x2 C:\QMK_MSYS\tmp\cchXQqT6.ltrans0.ltrans.o
 .rodata.halted_status
                0x0800e6ce        0x2 C:\QMK_MSYS\tmp\cchXQqT6.ltrans0.ltrans.o
 .rodata.zero_status
                0x0800e6d0        0x2 C:\QMK_MSYS\tmp\cchXQqT6.ltrans0.ltrans.o
 *fill*         0x0800e6d2        0x2 
 .rodata.ram_areas
                0x0800e6d4       0x80 C:\QMK_MSYS\tmp\cchXQqT6.ltrans0.ltrans.o
 .rodata.gpio_default_config
                0x0800e754       0xe0 C:\QMK_MSYS\tmp\cchXQqT6.ltrans0.ltrans.o
 .rodata.usb_endpoint_interface_lut
                0x0800e834        0x2 C:\QMK_MSYS\tmp\cchXQqT6.ltrans0.ltrans.o
 .rodata.SharedReport
                0x0800e836       0x8b C:\QMK_MSYS\tmp\cchXQqT6.ltrans0.ltrans.o
 .rodata.KeyboardReport
                0x0800e8c1       0x44 C:\QMK_MSYS\tmp\cchXQqT6.ltrans0.ltrans.o
 .rodata.ConfigurationDescriptor
                0x0800e905       0x3b C:\QMK_MSYS\tmp\cchXQqT6.ltrans0.ltrans.o
 .rodata.DeviceDescriptor
                0x0800e940       0x12 C:\QMK_MSYS\tmp\cchXQqT6.ltrans0.ltrans.o
 .rodata.CSWTCH.2
                0x0800e952        0x3 C:\QMK_MSYS\tmp\cchXQqT6.ltrans0.ltrans.o
 *fill*         0x0800e955        0x3 
 .rodata.CSWTCH.1
                0x0800e958        0xc C:\QMK_MSYS\tmp\cchXQqT6.ltrans0.ltrans.o
 .rodata.caps_active.1
                0x0800e964      0x400 C:\QMK_MSYS\tmp\cchXQqT6.ltrans0.ltrans.o
 .rodata.target_map.7
                0x0800ed64        0x8 C:\QMK_MSYS\tmp\cchXQqT6.ltrans0.ltrans.o
 .rodata.source_map.8
                0x0800ed6c        0x8 C:\QMK_MSYS\tmp\cchXQqT6.ltrans0.ltrans.o
 .rodata.b_m16_interleave
                0x0800ed74        0x8 C:\QMK_MSYS\tmp\cchXQqT6.ltrans0.ltrans.o
 .rodata.CIE1931_CURVE
                0x0800ed7c      0x100 C:\QMK_MSYS\tmp\cchXQqT6.ltrans0.ltrans.o
 .rodata._stm32_dma_streams
                0x0800ee7c       0xc0 C:\QMK_MSYS\tmp\cchXQqT6.ltrans0.ltrans.o
 .rodata.fsparams
                0x0800ef3c        0xc C:\QMK_MSYS\tmp\cchXQqT6.ltrans0.ltrans.o
 .rodata.str1.1
                0x0800ef48        0x3 C:\QMK_MSYS\tmp\cchXQqT6.ltrans0.ltrans.o
 .rodata.ch_core0_cfg
                0x0800ef48        0xc C:\QMK_MSYS\tmp\cchXQqT6.ltrans0.ltrans.o
 .rodata.usbcfg
                0x0800ef54       0x10 C:\QMK_MSYS\tmp\cchXQqT6.ltrans0.ltrans.o
 .rodata.row_pins
                0x0800ef64       0x1c C:\QMK_MSYS\tmp\cchXQqT6.ltrans0.ltrans.o
 .rodata.col_pins
                0x0800ef80       0x44 C:\QMK_MSYS\tmp\cchXQqT6.ltrans0.ltrans.o
 .rodata.g_led_config
                0x0800efc4      0x1a9 C:\QMK_MSYS\tmp\cchXQqT6.ltrans0.ltrans.o
 .rodata.encoder_LUT
                0x0800f16d       0x10 C:\QMK_MSYS\tmp\cchXQqT6.ltrans0.ltrans.o
 *fill*         0x0800f17d        0x1 
 .rodata.keymaps
                0x0800f17e       0xee C:\QMK_MSYS\tmp\cchXQqT6.ltrans0.ltrans.o
 .rodata.CSWTCH.10
                0x0800f26c       0x36 C:\QMK_MSYS\tmp\cchXQqT6.ltrans0.ltrans.o
 *fill*         0x0800f2a2        0x2 
 .rodata.i2cconfig
                0x0800f2a4        0xc .build/obj_vessel_base/i2c_master.a(i2c_master.o)
 .rodata.str1.4
                0x0800f2b0       0xcd c:/qmk_msys/mingw64/bin/../lib/gcc/arm-none-eabi/12.2.0/../../../../arm-none-eabi/lib/thumb/v7e-m+fp/hard\libg_nano.a(libc_a-rand.o)
                                 0x53 (size before relaxing)
 .rodata.str1.4
                0x0800f37d       0x43 c:/qmk_msys/mingw64/bin/../lib/gcc/arm-none-eabi/12.2.0/../../../../arm-none-eabi/lib/thumb/v7e-m+fp/hard\libg_nano.a(libc_a-assert.o)
 .rodata.str1.4
                0x0800f37d       0x13 c:/qmk_msys/mingw64/bin/../lib/gcc/arm-none-eabi/12.2.0/../../../../arm-none-eabi/lib/thumb/v7e-m+fp/hard\libg_nano.a(libc_a-nano-vfprintf.o)
 .rodata.str1.4
                0x0800f37d       0x25 c:/qmk_msys/mingw64/bin/../lib/gcc/arm-none-eabi/12.2.0/../../../../arm-none-eabi/lib/thumb/v7e-m+fp/hard\libg_nano.a(libc_a-nano-vfprintf_i.o)
                0x0800f3c0                        . = ALIGN (0x4)
 *fill*         0x0800f37d        0x3 
                0x0800f380                        __rodata_end__ = .

.ARM.extab
 *(.ARM.extab* .gnu.linkonce.armextab.*)

.ARM.exidx      0x0800f380        0x8
                0x0800f380                        __exidx_base__ = .
                0x0800f380                        __exidx_start = .
 *(.ARM.exidx* .gnu.linkonce.armexidx.*)
 .ARM.exidx     0x0800f380        0x8 c:/qmk_msys/mingw64/bin/../lib/gcc/arm-none-eabi/12.2.0/../../../../arm-none-eabi/lib/thumb/v7e-m+fp/hard\libg_nano.a(libc_a-memcpy.o)
 .ARM.exidx     0x0800f388        0x0 c:/qmk_msys/mingw64/bin/../lib/gcc/arm-none-eabi/12.2.0/../../../../arm-none-eabi/lib/thumb/v7e-m+fp/hard\libg_nano.a(libc_a-memchr.o)
                                  0x8 (size before relaxing)
 .ARM.exidx.text.__udivmoddi4
                0x0800f388        0x0 c:/qmk_msys/mingw64/bin/../lib/gcc/arm-none-eabi/12.2.0/thumb/v7e-m+fp/hard\libgcc.a(_udivmoddi4.o)
                                  0x8 (size before relaxing)
                0x0800f388                        __exidx_end__ = .
                0x0800f388                        __exidx_end = .

.rel.dyn        0x0800f388        0x0
 .rel.iplt      0x0800f388        0x0 .build/obj_vessel_base/i2c_master.a(i2c_master.o)

.eh_frame_hdr
 *(.eh_frame_hdr)

.eh_frame
 *(.eh_frame)

.data           0x20000c00      0x3f8 load address 0x0800f388
                [!provide]                        PROVIDE (_textdata = LOADADDR (.data))
                [!provide]                        PROVIDE (_data = .)
                0x0800f388                        __textdata_base__ = LOADADDR (.data)
                0x20000c00                        __data_base__ = .
 *(.data)
 .data          0x20000c00       0x50 c:/qmk_msys/mingw64/bin/../lib/gcc/arm-none-eabi/12.2.0/../../../../arm-none-eabi/lib/thumb/v7e-m+fp/hard\libg_nano.a(libc_a-impure.o)
                0x20000c00                _impure_ptr
                0x20000c04                _impure_data
 .data          0x20000c50        0xc c:/qmk_msys/mingw64/bin/../lib/gcc/arm-none-eabi/12.2.0/../../../../arm-none-eabi/lib/thumb/v7e-m+fp/hard\libg_nano.a(libc_a-findfp.o)
                0x20000c50                __sglue
 *(.data.*)
 .data.__compound_literal.7
                0x20000c5c       0x4c C:\QMK_MSYS\tmp\cchXQqT6.ltrans0.ltrans.o
 .data.__compound_literal.3
                0x20000ca8       0x4c C:\QMK_MSYS\tmp\cchXQqT6.ltrans0.ltrans.o
 .data.__compound_literal.2
                0x20000cf4       0x4c C:\QMK_MSYS\tmp\cchXQqT6.ltrans0.ltrans.o
 .data.__compound_literal.1.lto_priv.1
                0x20000d40       0x4c C:\QMK_MSYS\tmp\cchXQqT6.ltrans0.ltrans.o
 .data.__compound_literal.0.lto_priv.1
                0x20000d8c       0x4c C:\QMK_MSYS\tmp\cchXQqT6.ltrans0.ltrans.o
 .data.__compound_literal.8
                0x20000dd8        0x4 C:\QMK_MSYS\tmp\cchXQqT6.ltrans0.ltrans.o
 .data.__compound_literal.4
                0x20000ddc       0x24 C:\QMK_MSYS\tmp\cchXQqT6.ltrans0.ltrans.o
 .data.__compound_literal.9
                0x20000e00       0x1c C:\QMK_MSYS\tmp\cchXQqT6.ltrans0.ltrans.o
 .data.__compound_literal.5
                0x20000e1c       0x1c C:\QMK_MSYS\tmp\cchXQqT6.ltrans0.ltrans.o
 .data.__compound_literal.21
                0x20000e38        0x4 C:\QMK_MSYS\tmp\cchXQqT6.ltrans0.ltrans.o
 .data.__compound_literal.20
                0x20000e3c        0x4 C:\QMK_MSYS\tmp\cchXQqT6.ltrans0.ltrans.o
 .data.display_start.10
                0x20000e40        0x7 C:\QMK_MSYS\tmp\cchXQqT6.ltrans0.ltrans.o
 .data.rgb_last_enable
                0x20000e47        0x1 C:\QMK_MSYS\tmp\cchXQqT6.ltrans0.ltrans.o
 .data.rgb_last_effect
                0x20000e48        0x1 C:\QMK_MSYS\tmp\cchXQqT6.ltrans0.ltrans.o
 .data.rgb_effect_params
                0x20000e49        0x3 C:\QMK_MSYS\tmp\cchXQqT6.ltrans0.ltrans.o
 .data.rand16seed
                0x20000e4c        0x2 C:\QMK_MSYS\tmp\cchXQqT6.ltrans0.ltrans.o
 *fill*         0x20000e4e        0x2 
 .data.func     0x20000e50        0x4 C:\QMK_MSYS\tmp\cchXQqT6.ltrans0.ltrans.o
 .data.chibios_driver
                0x20000e54       0x14 C:\QMK_MSYS\tmp\cchXQqT6.ltrans0.ltrans.o
 .data.usb_endpoints_in
                0x20000e68      0x150 C:\QMK_MSYS\tmp\cchXQqT6.ltrans0.ltrans.o
 .data.keyboard_protocol
                0x20000fb8        0x1 C:\QMK_MSYS\tmp\cchXQqT6.ltrans0.ltrans.o
 .data.animation_enabled
                0x20000fb9        0x1 C:\QMK_MSYS\tmp\cchXQqT6.ltrans0.ltrans.o
 *fill*         0x20000fba        0x2 
 .data.tap_dance_actions
                0x20000fbc       0x38 C:\QMK_MSYS\tmp\cchXQqT6.ltrans0.ltrans.o
 .data.rgb_task_state
                0x20000ff4        0x1 C:\QMK_MSYS\tmp\cchXQqT6.ltrans0.ltrans.o
 *(.ramtext)
                0x20000ff8                        . = ALIGN (0x4)
 *fill*         0x20000ff5        0x3 
                [!provide]                        PROVIDE (_edata = .)
                0x20000ff8                        __data_end__ = .

.igot.plt       0x20000ff8        0x0 load address 0x0800f780
 .igot.plt      0x20000ff8        0x0 .build/obj_vessel_base/i2c_master.a(i2c_master.o)

.bss            0x20000ff8    0x10f40 load address 0x0800f780
                0x20000ff8                        __bss_base__ = .
 *(.bss)
 .bss           0x20000ff8        0x8 c:/qmk_msys/mingw64/bin/../lib/gcc/arm-none-eabi/12.2.0/../../../../arm-none-eabi/lib/thumb/v7e-m+fp/hard\libg_nano.a(libc_a-mallocr.o)
                0x20000ff8                __malloc_sbrk_start
                0x20000ffc                __malloc_free_list
 .bss           0x20001000       0x1d c:/qmk_msys/mingw64/bin/../lib/gcc/arm-none-eabi/12.2.0/../../../../arm-none-eabi/lib/thumb/v7e-m+fp/hard\libg_nano.a(libc_a-lock.o)
                0x20001000                __lock___arc4random_mutex
                0x20001004                __lock___dd_hash_mutex
                0x20001008                __lock___tz_mutex
                0x2000100c                __lock___env_recursive_mutex
                0x20001010                __lock___malloc_recursive_mutex
                0x20001014                __lock___at_quick_exit_mutex
                0x20001018                __lock___atexit_recursive_mutex
                0x2000101c                __lock___sfp_recursive_mutex
 *fill*         0x2000101d        0x3 
 .bss           0x20001020      0x13c c:/qmk_msys/mingw64/bin/../lib/gcc/arm-none-eabi/12.2.0/../../../../arm-none-eabi/lib/thumb/v7e-m+fp/hard\libg_nano.a(libc_a-findfp.o)
                0x20001020                __sf
                0x20001158                __stdio_exit_handler
 .bss           0x2000115c        0x4 c:/qmk_msys/mingw64/bin/../lib/gcc/arm-none-eabi/12.2.0/../../../../arm-none-eabi/lib/thumb/v7e-m+fp/hard\libg_nano.a(libc_a-reent.o)
                0x2000115c                errno
 *(.bss.*)
 .bss.ep0setup_buffer
                0x20001160        0x8 C:\QMK_MSYS\tmp\cchXQqT6.ltrans0.ltrans.o
 .bss.ep0_state
                0x20001168       0x14 C:\QMK_MSYS\tmp\cchXQqT6.ltrans0.ltrans.o
 *fill*         0x2000117c        0x4 
 .bss.ch_c0_idle_thread_wa
                0x20001180      0x1e0 C:\QMK_MSYS\tmp\cchXQqT6.ltrans0.ltrans.o
 .bss.__compound_literal.10
                0x20001360       0x30 C:\QMK_MSYS\tmp\cchXQqT6.ltrans0.ltrans.o
 .bss.__compound_literal.6
                0x20001390       0x90 C:\QMK_MSYS\tmp\cchXQqT6.ltrans0.ltrans.o
 .bss.__compound_literal.1.lto_priv.0
                0x20001420       0x20 C:\QMK_MSYS\tmp\cchXQqT6.ltrans0.ltrans.o
 .bss.__compound_literal.0.lto_priv.0
                0x20001440        0x8 C:\QMK_MSYS\tmp\cchXQqT6.ltrans0.ltrans.o
 .bss.timer     0x20001448        0x4 C:\QMK_MSYS\tmp\cchXQqT6.ltrans0.ltrans.o
 .bss.encoder_button_state.0
                0x2000144c        0x1 C:\QMK_MSYS\tmp\cchXQqT6.ltrans0.ltrans.o
 .bss.matrix_need_update
                0x2000144d        0x1 C:\QMK_MSYS\tmp\cchXQqT6.ltrans0.ltrans.o
 *fill*         0x2000144e        0x2 
 .bss.last_time
                0x20001450        0x4 C:\QMK_MSYS\tmp\cchXQqT6.ltrans0.ltrans.o
 .bss.counters_need_update
                0x20001454        0x1 C:\QMK_MSYS\tmp\cchXQqT6.ltrans0.ltrans.o
 .bss.cooked_changed
                0x20001455        0x1 C:\QMK_MSYS\tmp\cchXQqT6.ltrans0.ltrans.o
 .bss.sc_timer  0x20001456        0x2 C:\QMK_MSYS\tmp\cchXQqT6.ltrans0.ltrans.o
 .bss.report.2  0x20001458       0x4c C:\QMK_MSYS\tmp\cchXQqT6.ltrans0.ltrans.o
 .bss.idle_rate.0
                0x200014a4        0x1 C:\QMK_MSYS\tmp\cchXQqT6.ltrans0.ltrans.o
 .bss.keyboard_led_state
                0x200014a5        0x1 C:\QMK_MSYS\tmp\cchXQqT6.ltrans0.ltrans.o
 *fill*         0x200014a6        0x2 
 .bss.set_report_buf
                0x200014a8        0x2 C:\QMK_MSYS\tmp\cchXQqT6.ltrans0.ltrans.o
 *fill*         0x200014aa        0x2 
 .bss.descriptor.0
                0x200014ac        0x8 C:\QMK_MSYS\tmp\cchXQqT6.ltrans0.ltrans.o
 .bss.last_consumer_usage
                0x200014b4        0x2 C:\QMK_MSYS\tmp\cchXQqT6.ltrans0.ltrans.o
 .bss.last_system_usage
                0x200014b6        0x2 C:\QMK_MSYS\tmp\cchXQqT6.ltrans0.ltrans.o
 .bss.oled_rotation_width
                0x200014b8        0x1 C:\QMK_MSYS\tmp\cchXQqT6.ltrans0.ltrans.o
 .bss.caps_lock_was_on.2
                0x200014b9        0x1 C:\QMK_MSYS\tmp\cchXQqT6.ltrans0.ltrans.o
 .bss.temp_buffer.9
                0x200014ba       0x40 C:\QMK_MSYS\tmp\cchXQqT6.ltrans0.ltrans.o
 .bss.oled_rotation
                0x200014fa        0x1 C:\QMK_MSYS\tmp\cchXQqT6.ltrans0.ltrans.o
 .bss.oled_scrolling
                0x200014fb        0x1 C:\QMK_MSYS\tmp\cchXQqT6.ltrans0.ltrans.o
 .bss.oled_timeout
                0x200014fc        0x4 C:\QMK_MSYS\tmp\cchXQqT6.ltrans0.ltrans.o
 .bss.oled_initialized
                0x20001500        0x1 C:\QMK_MSYS\tmp\cchXQqT6.ltrans0.ltrans.o
 *fill*         0x20001501        0x1 
 .bss.oled_dirty
                0x20001502        0x2 C:\QMK_MSYS\tmp\cchXQqT6.ltrans0.ltrans.o
 .bss.oled_cursor
                0x20001504        0x4 C:\QMK_MSYS\tmp\cchXQqT6.ltrans0.ltrans.o
 .bss.oled_buffer
                0x20001508      0x400 C:\QMK_MSYS\tmp\cchXQqT6.ltrans0.ltrans.o
 .bss.rgb_matrix_ws2812_array
                0x20001908      0x132 C:\QMK_MSYS\tmp\cchXQqT6.ltrans0.ltrans.o
 .bss.ws2812_dirty
                0x20001a3a        0x1 C:\QMK_MSYS\tmp\cchXQqT6.ltrans0.ltrans.o
 *fill*         0x20001a3b        0x1 
 .bss.rgb_timer_buffer
                0x20001a3c        0x4 C:\QMK_MSYS\tmp\cchXQqT6.ltrans0.ltrans.o
 .bss.led.1     0x20001a40      0x132 C:\QMK_MSYS\tmp\cchXQqT6.ltrans0.ltrans.o
 *fill*         0x20001b72        0x2 
 .bss.wait_timer.2
                0x20001b74        0x4 C:\QMK_MSYS\tmp\cchXQqT6.ltrans0.ltrans.o
 .bss.g_rgb_timer
                0x20001b78        0x4 C:\QMK_MSYS\tmp\cchXQqT6.ltrans0.ltrans.o
 .bss.transientBuffer
                0x20001b7c     0xffff C:\QMK_MSYS\tmp\cchXQqT6.ltrans0.ltrans.o
 *fill*         0x20011b7b        0x1 
 .bss.dma       0x20011b7c       0x84 C:\QMK_MSYS\tmp\cchXQqT6.ltrans0.ltrans.o
 .bss.ch_memcore
                0x20011c00        0x8 C:\QMK_MSYS\tmp\cchXQqT6.ltrans0.ltrans.o
 .bss.ch0       0x20011c08       0x60 C:\QMK_MSYS\tmp\cchXQqT6.ltrans0.ltrans.o
 .bss.ms_offset
                0x20011c68        0x4 C:\QMK_MSYS\tmp\cchXQqT6.ltrans0.ltrans.o
 .bss.last_ticks
                0x20011c6c        0x4 C:\QMK_MSYS\tmp\cchXQqT6.ltrans0.ltrans.o
 .bss.ticks_offset
                0x20011c70        0x4 C:\QMK_MSYS\tmp\cchXQqT6.ltrans0.ltrans.o
 .bss.debounce_counters
                0x20011c74        0x4 C:\QMK_MSYS\tmp\cchXQqT6.ltrans0.ltrans.o
 .bss.raw_matrix
                0x20011c78       0x1c C:\QMK_MSYS\tmp\cchXQqT6.ltrans0.ltrans.o
 .bss.dirty_rgb_matrix
                0x20011c94        0x1 C:\QMK_MSYS\tmp\cchXQqT6.ltrans0.ltrans.o
 .bss.g_last_hit_tracker
                0x20011c95       0x29 C:\QMK_MSYS\tmp\cchXQqT6.ltrans0.ltrans.o
 .bss.current_frame
                0x20011cbe        0x1 C:\QMK_MSYS\tmp\cchXQqT6.ltrans0.ltrans.o
 *fill*         0x20011cbf        0x1 
 .bss.driver.lto_priv.1
                0x20011cc0        0x4 C:\QMK_MSYS\tmp\cchXQqT6.ltrans0.ltrans.o
 .bss.event_queue
                0x20011cc4       0x10 C:\QMK_MSYS\tmp\cchXQqT6.ltrans0.ltrans.o
 .bss.event_queue_tail
                0x20011cd4        0x1 C:\QMK_MSYS\tmp\cchXQqT6.ltrans0.ltrans.o
 .bss.event_queue_head
                0x20011cd5        0x1 C:\QMK_MSYS\tmp\cchXQqT6.ltrans0.ltrans.o
 .bss.last_suspend_state
                0x20011cd6        0x1 C:\QMK_MSYS\tmp\cchXQqT6.ltrans0.ltrans.o
 *fill*         0x20011cd7        0x1 
 .bss.USBD1     0x20011cd8       0x78 C:\QMK_MSYS\tmp\cchXQqT6.ltrans0.ltrans.o
 .bss.matrix    0x20011d50       0x1c C:\QMK_MSYS\tmp\cchXQqT6.ltrans0.ltrans.o
 .bss.last_hit_buffer
                0x20011d6c       0x29 C:\QMK_MSYS\tmp\cchXQqT6.ltrans0.ltrans.o
 .bss.debug_config
                0x20011d95        0x1 C:\QMK_MSYS\tmp\cchXQqT6.ltrans0.ltrans.o
 *fill*         0x20011d96        0x2 
 .bss.matrix_previous.1
                0x20011d98       0x1c C:\QMK_MSYS\tmp\cchXQqT6.ltrans0.ltrans.o
 .bss.encoder_pulses
                0x20011db4        0x1 C:\QMK_MSYS\tmp\cchXQqT6.ltrans0.ltrans.o
 .bss.encoder_state
                0x20011db5        0x1 C:\QMK_MSYS\tmp\cchXQqT6.ltrans0.ltrans.o
 .bss.thisCount
                0x20011db6        0x1 C:\QMK_MSYS\tmp\cchXQqT6.ltrans0.ltrans.o
 .bss.encoder_events
                0x20011db7        0x8 C:\QMK_MSYS\tmp\cchXQqT6.ltrans0.ltrans.o
 .bss.signal_queue_drain
                0x20011dbf        0x1 C:\QMK_MSYS\tmp\cchXQqT6.ltrans0.ltrans.o
 .bss.last_led_status.0
                0x20011dc0        0x1 C:\QMK_MSYS\tmp\cchXQqT6.ltrans0.ltrans.o
 *fill*         0x20011dc1        0x3 
 .bss.report.1  0x20011dc4       0x4c C:\QMK_MSYS\tmp\cchXQqT6.ltrans0.ltrans.o
 .bss.run_idle_task
                0x20011e10        0x1 C:\QMK_MSYS\tmp\cchXQqT6.ltrans0.ltrans.o
 *fill*         0x20011e11        0x1 
 .bss.last_tick.0
                0x20011e12        0x2 C:\QMK_MSYS\tmp\cchXQqT6.ltrans0.ltrans.o
 .bss.last_report.0
                0x20011e14       0x20 C:\QMK_MSYS\tmp\cchXQqT6.ltrans0.ltrans.o
 .bss.driver.lto_priv.0
                0x20011e34        0x4 C:\QMK_MSYS\tmp\cchXQqT6.ltrans0.ltrans.o
 .bss.last_report.1
                0x20011e38        0x8 C:\QMK_MSYS\tmp\cchXQqT6.ltrans0.ltrans.o
 .bss.encoder_source_layers_cache
                0x20011e40        0x4 C:\QMK_MSYS\tmp\cchXQqT6.ltrans0.ltrans.o
 .bss.source_layers_cache
                0x20011e44       0x3c C:\QMK_MSYS\tmp\cchXQqT6.ltrans0.ltrans.o
 .bss.oled_active
                0x20011e80        0x1 C:\QMK_MSYS\tmp\cchXQqT6.ltrans0.ltrans.o
 *fill*         0x20011e81        0x3 
 .bss.keyboard_idle_timer
                0x20011e84        0x4 C:\QMK_MSYS\tmp\cchXQqT6.ltrans0.ltrans.o
 .bss.anim_off_timer
                0x20011e88        0x4 C:\QMK_MSYS\tmp\cchXQqT6.ltrans0.ltrans.o
 .bss.anim_timer
                0x20011e8c        0x4 C:\QMK_MSYS\tmp\cchXQqT6.ltrans0.ltrans.o
 .bss.active_td
                0x20011e90        0x2 C:\QMK_MSYS\tmp\cchXQqT6.ltrans0.ltrans.o
 .bss.last_tap_time
                0x20011e92        0x2 C:\QMK_MSYS\tmp\cchXQqT6.ltrans0.ltrans.o
 .bss.sc_last   0x20011e94        0x1 C:\QMK_MSYS\tmp\cchXQqT6.ltrans0.ltrans.o
 *fill*         0x20011e95        0x1 
 .bss.keymap_config
                0x20011e96        0x2 C:\QMK_MSYS\tmp\cchXQqT6.ltrans0.ltrans.o
 .bss.grave_esc_was_shifted
                0x20011e98        0x1 C:\QMK_MSYS\tmp\cchXQqT6.ltrans0.ltrans.o
 *fill*         0x20011e99        0x7 
 .bss.rgb_matrix_config
                0x20011ea0        0x8 C:\QMK_MSYS\tmp\cchXQqT6.ltrans0.ltrans.o
 .bss.programmable_button_report
                0x20011ea8        0x4 C:\QMK_MSYS\tmp\cchXQqT6.ltrans0.ltrans.o
 .bss.real_mods
                0x20011eac        0x1 C:\QMK_MSYS\tmp\cchXQqT6.ltrans0.ltrans.o
 *fill*         0x20011ead        0x1 
 .bss.default_layer_state
                0x20011eae        0x2 C:\QMK_MSYS\tmp\cchXQqT6.ltrans0.ltrans.o
 .bss.layer_state
                0x20011eb0        0x2 C:\QMK_MSYS\tmp\cchXQqT6.ltrans0.ltrans.o
 .bss.weak_mods
                0x20011eb2        0x1 C:\QMK_MSYS\tmp\cchXQqT6.ltrans0.ltrans.o
 .bss.waiting_buffer_head
                0x20011eb3        0x1 C:\QMK_MSYS\tmp\cchXQqT6.ltrans0.ltrans.o
 .bss.waiting_buffer_tail
                0x20011eb4        0x1 C:\QMK_MSYS\tmp\cchXQqT6.ltrans0.ltrans.o
 *fill*         0x20011eb5        0x1 
 .bss.waiting_buffer
                0x20011eb6       0x40 C:\QMK_MSYS\tmp\cchXQqT6.ltrans0.ltrans.o
 .bss.tapping_key
                0x20011ef6        0x8 C:\QMK_MSYS\tmp\cchXQqT6.ltrans0.ltrans.o
 .bss.is_initialised.0
                0x20011efe        0x1 .build/obj_vessel_base/i2c_master.a(i2c_master.o)
 *(COMMON)
 *fill*         0x20011eff        0x1 
 COMMON         0x20011f00       0x38 C:\QMK_MSYS\tmp\cchXQqT6.ltrans0.ltrans.o
                0x20011f00                I2CD1
                0x20011f38                        . = ALIGN (0x4)
                0x20011f38                        __bss_end__ = .
                [!provide]                        PROVIDE (end = .)
                0x20000000                        __ram0_base__ = ORIGIN (ram0)
                0x00020000                        __ram0_size__ = LENGTH (ram0)
                0x20020000                        __ram0_end__ = (__ram0_base__ + __ram0_size__)
                0x20000000                        __ram1_base__ = ORIGIN (ram1)
                0x0001c000                        __ram1_size__ = LENGTH (ram1)
                0x2001c000                        __ram1_end__ = (__ram1_base__ + __ram1_size__)
                0x00000000                        __ram2_base__ = ORIGIN (ram2)
                0x00004000                        __ram2_size__ = LENGTH (ram2)
                0x00004000                        __ram2_end__ = (__ram2_base__ + __ram2_size__)
                0x00000000                        __ram3_base__ = ORIGIN (ram3)
                0x00000000                        __ram3_size__ = LENGTH (ram3)
                0x00000000                        __ram3_end__ = (__ram3_base__ + __ram3_size__)
                0x00000000                        __ram4_base__ = ORIGIN (ram4)
                0x00000000                        __ram4_size__ = LENGTH (ram4)
                0x00000000                        __ram4_end__ = (__ram4_base__ + __ram4_size__)
                0x00000000                        __ram5_base__ = ORIGIN (ram5)
                0x00000000                        __ram5_size__ = LENGTH (ram5)
                0x00000000                        __ram5_end__ = (__ram5_base__ + __ram5_size__)
                0x00000000                        __ram6_base__ = ORIGIN (ram6)
                0x00000000                        __ram6_size__ = LENGTH (ram6)
                0x00000000                        __ram6_end__ = (__ram6_base__ + __ram6_size__)
                0x00000000                        __ram7_base__ = ORIGIN (ram7)
                0x00000000                        __ram7_size__ = LENGTH (ram7)
                0x00000000                        __ram7_end__ = (__ram7_base__ + __ram7_size__)
                0x08000000                        __flash0_base__ = ORIGIN (flash0)
                0x00080000                        __flash0_size__ = LENGTH (flash0)
                0x08080000                        __flash0_end__ = (__flash0_base__ + __flash0_size__)
                0x00000000                        __flash1_base__ = ORIGIN (flash1)
                0x00000000                        __flash1_size__ = LENGTH (flash1)
                0x00000000                        __flash1_end__ = (__flash1_base__ + __flash1_size__)
                0x00000000                        __flash2_base__ = ORIGIN (flash2)
                0x00000000                        __flash2_size__ = LENGTH (flash2)
                0x00000000                        __flash2_end__ = (__flash2_base__ + __flash2_size__)
                0x00000000                        __flash3_base__ = ORIGIN (flash3)
                0x00000000                        __flash3_size__ = LENGTH (flash3)
                0x00000000                        __flash3_end__ = (__flash3_base__ + __flash3_size__)
                0x00000000                        __flash4_base__ = ORIGIN (flash4)
                0x00000000                        __flash4_size__ = LENGTH (flash4)
                0x00000000                        __flash4_end__ = (__flash4_base__ + __flash4_size__)
                0x00000000                        __flash5_base__ = ORIGIN (flash5)
                0x00000000                        __flash5_size__ = LENGTH (flash5)
                0x00000000                        __flash5_end__ = (__flash5_base__ + __flash5_size__)
                0x00000000                        __flash6_base__ = ORIGIN (flash6)
                0x00000000                        __flash6_size__ = LENGTH (flash6)
                0x00000000                        __flash6_end__ = (__flash6_base__ + __flash6_size__)
                0x00000000                        __flash7_base__ = ORIGIN (flash7)
                0x00000000                        __flash7_size__ = LENGTH (flash7)
                0x00000000                        __flash7_end__ = (__flash7_base__ + __flash7_size__)

.ram0_init      0x20011f38        0x0 load address 0x0800f780
                0x0800f780                        __ram0_init_text__ = LOADADDR (.ram0_init)
                0x20011f38                        __ram0_init__ = .
 *(.ram0_init)
 *(.ram0_init.*)
                0x20011f38                        . = ALIGN (0x4)

.ram0           0x20011f38        0x0 load address 0x0800f780
                0x20011f38                        __ram0_clear__ = .
 *(.ram0_clear)
 *(.ram0_clear.*)
                0x20011f38                        . = ALIGN (0x4)
                0x20011f38                        __ram0_noinit__ = .
 *(.ram0)
 *(.ram0.*)
                0x20011f38                        . = ALIGN (0x4)
                0x20011f38                        __ram0_free__ = .

.ram1_init      0x20000000        0x0 load address 0x0800f780
                0x0800f780                        __ram1_init_text__ = LOADADDR (.ram1_init)
                0x20000000                        __ram1_init__ = .
 *(.ram1_init)
 *(.ram1_init.*)
                0x20000000                        . = ALIGN (0x4)

.ram1           0x20000000        0x0 load address 0x0800f780
                0x20000000                        __ram1_clear__ = .
 *(.ram1_clear)
 *(.ram1_clear.*)
                0x20000000                        . = ALIGN (0x4)
                0x20000000                        __ram1_noinit__ = .
 *(.ram1)
 *(.ram1.*)
                0x20000000                        . = ALIGN (0x4)
                0x20000000                        __ram1_free__ = .

.ram2_init      0x00000000        0x0 load address 0x0800f780
                0x0800f780                        __ram2_init_text__ = LOADADDR (.ram2_init)
                0x00000000                        __ram2_init__ = .
 *(.ram2_init)
 *(.ram2_init.*)
                0x00000000                        . = ALIGN (0x4)

.ram2           0x00000000        0x0 load address 0x0800f780
                0x00000000                        __ram2_clear__ = .
 *(.ram2_clear)
 *(.ram2_clear.*)
                0x00000000                        . = ALIGN (0x4)
                0x00000000                        __ram2_noinit__ = .
 *(.ram2)
 *(.ram2.*)
                0x00000000                        . = ALIGN (0x4)
                0x00000000                        __ram2_free__ = .

.ram3_init      0x00000000        0x0 load address 0x0800f780
                0x0800f780                        __ram3_init_text__ = LOADADDR (.ram3_init)
                0x00000000                        __ram3_init__ = .
 *(.ram3_init)
 *(.ram3_init.*)
                0x00000000                        . = ALIGN (0x4)

.ram3           0x00000000        0x0 load address 0x0800f780
                0x00000000                        __ram3_clear__ = .
 *(.ram3_clear)
 *(.ram3_clear.*)
                0x00000000                        . = ALIGN (0x4)
                0x00000000                        __ram3_noinit__ = .
 *(.ram3)
 *(.ram3.*)
                0x00000000                        . = ALIGN (0x4)
                0x00000000                        __ram3_free__ = .

.ram4_init      0x00000000        0x0 load address 0x0800f780
                0x0800f780                        __ram4_init_text__ = LOADADDR (.ram4_init)
                0x00000000                        __ram4_init__ = .
 *(.ram4_init)
 *(.ram4_init.*)
                0x00000000                        . = ALIGN (0x4)

.ram4           0x00000000        0x0 load address 0x0800f780
                0x00000000                        __ram4_clear__ = .
 *(.ram4_clear)
 *(.ram4_clear.*)
                0x00000000                        . = ALIGN (0x4)
                0x00000000                        __ram4_noinit__ = .
 *(.ram4)
 *(.ram4.*)
                0x00000000                        . = ALIGN (0x4)
                0x00000000                        __ram4_free__ = .

.ram5_init      0x00000000        0x0 load address 0x0800f780
                0x0800f780                        __ram5_init_text__ = LOADADDR (.ram5_init)
                0x00000000                        __ram5_init__ = .
 *(.ram5_init)
 *(.ram5_init.*)
                0x00000000                        . = ALIGN (0x4)

.ram5           0x00000000        0x0 load address 0x0800f780
                0x00000000                        __ram5_clear__ = .
 *(.ram5_clear)
 *(.ram5_clear.*)
                0x00000000                        . = ALIGN (0x4)
                0x00000000                        __ram5_noinit__ = .
 *(.ram5)
 *(.ram5.*)
                0x00000000                        . = ALIGN (0x4)
                0x00000000                        __ram5_free__ = .

.ram6_init      0x00000000        0x0 load address 0x0800f780
                0x0800f780                        __ram6_init_text__ = LOADADDR (.ram6_init)
                0x00000000                        __ram6_init__ = .
 *(.ram6_init)
 *(.ram6_init.*)
                0x00000000                        . = ALIGN (0x4)

.ram6           0x00000000        0x0 load address 0x0800f780
                0x00000000                        __ram6_clear__ = .
 *(.ram6_clear)
 *(.ram6_clear.*)
                0x00000000                        . = ALIGN (0x4)
                0x00000000                        __ram6_noinit__ = .
 *(.ram6)
 *(.ram6.*)
                0x00000000                        . = ALIGN (0x4)
                0x00000000                        __ram6_free__ = .

.ram7_init      0x00000000        0x0 load address 0x0800f780
                0x0800f780                        __ram7_init_text__ = LOADADDR (.ram7_init)
                0x00000000                        __ram7_init__ = .
 *(.ram7_init)
 *(.ram7_init.*)
                0x00000000                        . = ALIGN (0x4)

.ram7           0x00000000        0x0 load address 0x0800f780
                0x00000000                        __ram7_clear__ = .
 *(.ram7_clear)
 *(.ram7_clear.*)
                0x00000000                        . = ALIGN (0x4)
                0x00000000                        __ram7_noinit__ = .
 *(.ram7)
 *(.ram7.*)
                0x00000000                        . = ALIGN (0x4)
                0x00000000                        __ram7_free__ = .

.flash0         0x0800f780        0x0
                0x0800f780                        __flash0_init__ = .
 *(.flash0_init)
 *(.flash0_init.*)
                0x0800f780                        __flash0_free__ = .

.flash1         0x00000000        0x0
                0x00000000                        __flash1_init__ = .
 *(.flash1_init)
 *(.flash1_init.*)
                0x00000000                        __flash1_free__ = .

.flash2         0x00000000        0x0
                0x00000000                        __flash2_init__ = .
 *(.flash2_init)
 *(.flash2_init.*)
                0x00000000                        __flash2_free__ = .

.flash3         0x00000000        0x0
                0x00000000                        __flash3_init__ = .
 *(.flash3_init)
 *(.flash3_init.*)
                0x00000000                        __flash3_free__ = .

.flash4         0x00000000        0x0
                0x00000000                        __flash4_init__ = .
 *(.flash4_init)
 *(.flash4_init.*)
                0x00000000                        __flash4_free__ = .

.flash5         0x00000000        0x0
                0x00000000                        __flash5_init__ = .
 *(.flash5_init)
 *(.flash5_init.*)
                0x00000000                        __flash5_free__ = .

.flash6         0x00000000        0x0
                0x00000000                        __flash6_init__ = .
 *(.flash6_init)
 *(.flash6_init.*)
                0x00000000                        __flash6_free__ = .

.flash7         0x00000000        0x0
                0x00000000                        __flash7_init__ = .
 *(.flash7_init)
 *(.flash7_init.*)
                0x00000000                        __flash7_free__ = .

.heap           0x20011f38     0xe0c8
                0x20011f38                        . = ALIGN (0x8)
                0x20011f38                        __heap_base__ = .
                0x20020000                        . = (ORIGIN (HEAP_RAM) + LENGTH (HEAP_RAM))
 *fill*         0x20011f38     0xe0c8 
                0x20020000                        __heap_end__ = .
OUTPUT(.build/vessel_base.elf elf32-littlearm)
LOAD linker stubs

.debug_info     0x00000000    0x657ac
 .debug_info    0x00000000    0x13593 C:\QMK_MSYS\tmp\cchXQqT6.ltrans0.ltrans.o
 .debug_info    0x00013593      0x2c1 C:\QMK_MSYS\tmp\ccMndiui.debug.temp.o
                0x00013593                vessel.c.ad2b50f5
 .debug_info    0x00013854     0x3086 C:\QMK_MSYS\tmp\ccasmfpM.debug.temp.o
                0x00013854                keymap_introspection.c.c18b4ea2
 .debug_info    0x000168da     0x2d48 C:\QMK_MSYS\tmp\cc4deco1.debug.temp.o
                0x000168da                quantum.c.1f49cfa1
 .debug_info    0x00019622      0x2b8 C:\QMK_MSYS\tmp\cccw8nFv.debug.temp.o
                0x00019622                led.c.96805105
 .debug_info    0x000198da     0x3161 C:\QMK_MSYS\tmp\ccOuT7LJ.debug.temp.o
                0x000198da                action.c.5a71f8de
 .debug_info    0x0001ca3b      0x8b5 C:\QMK_MSYS\tmp\ccoa1H7X.debug.temp.o
                0x0001ca3b                action_layer.c.ea125c75
 .debug_info    0x0001d2f0     0x294d C:\QMK_MSYS\tmp\cce2Mpnc.debug.temp.o
                0x0001d2f0                action_tapping.c.a9f9c57a
 .debug_info    0x0001fc3d      0x4cb C:\QMK_MSYS\tmp\ccmx6ARq.debug.temp.o
                0x0001fc3d                action_util.c.2fe5628c
 .debug_info    0x00020108      0x34d C:\QMK_MSYS\tmp\ccs1VMhF.debug.temp.o
                0x00020108                eeconfig.c.d892d3c7
 .debug_info    0x00020455      0x8c6 C:\QMK_MSYS\tmp\cccoT1TT.debug.temp.o
                0x00020455                keyboard.c.4d07a61a
 .debug_info    0x00020d1b     0x2c08 C:\QMK_MSYS\tmp\ccYZ9Et8.debug.temp.o
                0x00020d1b                keymap_common.c.82daeef3
 .debug_info    0x00023923     0x24de C:\QMK_MSYS\tmp\ccKJyyMq.debug.temp.o
                0x00023923                keycode_config.c.e6b30304
 .debug_info    0x00025e01      0x113 C:\QMK_MSYS\tmp\ccOpoZr1.debug.temp.o
                0x00025e01                debug.c.dac38868
 .debug_info    0x00025f14       0xac C:\QMK_MSYS\tmp\cccVh7Rj.debug.temp.o
                0x00025f14                sendchar.c.512f54ad
 .debug_info    0x00025fc0      0x113 C:\QMK_MSYS\tmp\ccYOVncC.debug.temp.o
                0x00025fc0                print.c.a70acbed
 .debug_info    0x000260d3      0x2a1 C:\QMK_MSYS\tmp\ccK2PbMU.debug.temp.o
                0x000260d3                matrix_common.c.929416f6
 .debug_info    0x00026374      0x538 C:\QMK_MSYS\tmp\ccQSqSid.debug.temp.o
                0x00026374                matrix.c.1720d8bc
 .debug_info    0x000268ac      0x2d0 C:\QMK_MSYS\tmp\ccSOvWMv.debug.temp.o
                0x000268ac                sym_eager_pk.c.445c83e6
 .debug_info    0x00026b7c       0xc6 C:\QMK_MSYS\tmp\ccgeiitO.debug.temp.o
                0x00026b7c                main.c.10e8e0d5
 .debug_info    0x00026c42      0x7f4 C:\QMK_MSYS\tmp\cc8Mz186.debug.temp.o
                0x00026c42                printf.c.3604aa7e
 .debug_info    0x00027436      0x2f8 C:\QMK_MSYS\tmp\ccGPrLQo.debug.temp.o
                0x00027436                eeprom_driver.c.7899de1e
 .debug_info    0x0002772e      0x1ad C:\QMK_MSYS\tmp\ccoBU7tG.debug.temp.o
                0x0002772e                eeprom_transient.c.6d5d3bac
 .debug_info    0x000278db      0x1ee C:\QMK_MSYS\tmp\ccYssG5X.debug.temp.o
                0x000278db                color.c.b9eda139
 .debug_info    0x00027ac9     0x2613 C:\QMK_MSYS\tmp\cc84iN5f.debug.temp.o
                0x00027ac9                rgb_matrix.c.f8e42409
 .debug_info    0x0002a0dc      0x222 C:\QMK_MSYS\tmp\ccaR4n0x.debug.temp.o
                0x0002a0dc                rgb_matrix_drivers.c.e9581d23
 .debug_info    0x0002a2fe     0x2714 C:\QMK_MSYS\tmp\ccCUU38P.debug.temp.o
                0x0002a2fe                process_rgb.c.6be45cf3
 .debug_info    0x0002ca12       0xcd C:\QMK_MSYS\tmp\ccmj5Wg8.debug.temp.o
                0x0002ca12                led_tables.c.be63c460
 .debug_info    0x0002cadf       0x89 C:\QMK_MSYS\tmp\cc8wVEiq.debug.temp.o
                0x0002cadf                lib8tion.c.24064e02
 .debug_info    0x0002cb68      0xaaa C:\QMK_MSYS\tmp\ccSLYenH.debug.temp.o
                0x0002cb68                oled_driver.c.03c46173
 .debug_info    0x0002d612     0x2889 C:\QMK_MSYS\tmp\cc29RKnY.debug.temp.o
                0x0002d612                encoder.c.862a36a6
 .debug_info    0x0002fe9b      0x412 C:\QMK_MSYS\tmp\ccqxbkCf.debug.temp.o
                0x0002fe9b                encoder_quadrature.c.abfe60f7
 .debug_info    0x000302ad      0x33a C:\QMK_MSYS\tmp\ccUrqJ2w.debug.temp.o
                0x000302ad                ws2812_bitbang.c.3b5de182
 .debug_info    0x000305e7      0x163 C:\QMK_MSYS\tmp\ccG537mO.debug.temp.o
                0x000305e7                bootmagic.c.32c6fa44
 .debug_info    0x0003074a     0x25c9 C:\QMK_MSYS\tmp\cccZZvV5.debug.temp.o
                0x0003074a                process_grave_esc.c.565a0518
 .debug_info    0x00032d13     0x2636 C:\QMK_MSYS\tmp\cc8PJrsn.debug.temp.o
                0x00032d13                process_magic.c.9819539e
 .debug_info    0x00035349      0x3e9 C:\QMK_MSYS\tmp\ccIZWGTE.debug.temp.o
                0x00035349                process_programmable_button.c.4385649c
 .debug_info    0x00035732      0x15c C:\QMK_MSYS\tmp\cc8nUmrV.debug.temp.o
                0x00035732                programmable_button.c.24342d01
 .debug_info    0x0003588e     0x25af C:\QMK_MSYS\tmp\ccw6TSBs.debug.temp.o
                0x0003588e                process_space_cadet.c.e6b38ab8
 .debug_info    0x00037e3d      0x973 C:\QMK_MSYS\tmp\ccsnFIeJ.debug.temp.o
                0x00037e3d                process_tap_dance.c.c1aa9423
 .debug_info    0x000387b0      0x629 C:\QMK_MSYS\tmp\ccaPNr4Z.debug.temp.o
                0x000387b0                host.c.95f6821f
 .debug_info    0x00038dd9     0x26c9 C:\QMK_MSYS\tmp\cciuobZg.debug.temp.o
                0x00038dd9                report.c.49edc757
 .debug_info    0x0003b4a2      0x178 C:\QMK_MSYS\tmp\ccsytQAB.debug.temp.o
                0x0003b4a2                usb_device_state.c.ab457b8c
 .debug_info    0x0003b61a      0x119 C:\QMK_MSYS\tmp\cc8HolSg.debug.temp.o
                0x0003b61a                suspend.c.45b03014
 .debug_info    0x0003b733       0x93 C:\QMK_MSYS\tmp\ccWN46cC.debug.temp.o
                0x0003b733                platform.c.75b38d9b
 .debug_info    0x0003b7c6      0x156 C:\QMK_MSYS\tmp\ccc9IsfX.debug.temp.o
                0x0003b7c6                suspend.c.45ff1edc
 .debug_info    0x0003b91c      0x22a C:\QMK_MSYS\tmp\cc6gAfgi.debug.temp.o
                0x0003b91c                timer.c.a1882be3
 .debug_info    0x0003bb46      0x563 C:\QMK_MSYS\tmp\ccM929jC.debug.temp.o
                0x0003bb46                stm32_dfu.c.7a7f347d
 .debug_info    0x0003c0a9     0x200a C:\QMK_MSYS\tmp\ccm7LIlW.debug.temp.o
                0x0003c0a9                usb_main.c.ddddf4a0
 .debug_info    0x0003e0b3     0x15c1 C:\QMK_MSYS\tmp\cc4YVBxg.debug.temp.o
                0x0003e0b3                chibios.c.1f101483
 .debug_info    0x0003f674      0x6c2 C:\QMK_MSYS\tmp\cc4Z73GA.debug.temp.o
                0x0003f674                usb_descriptor.c.5c56bd7d
 .debug_info    0x0003fd36     0x1c58 C:\QMK_MSYS\tmp\cccb7ZLU.debug.temp.o
                0x0003fd36                usb_driver.c.b43c6abf
 .debug_info    0x0004198e     0x1812 C:\QMK_MSYS\tmp\ccwICi4e.debug.temp.o
                0x0004198e                usb_endpoints.c.e264e99d
 .debug_info    0x000431a0     0x1c22 C:\QMK_MSYS\tmp\ccMloLwz.debug.temp.o
                0x000431a0                usb_report_handling.c.3f8ff105
 .debug_info    0x00044dc2      0x296 C:\QMK_MSYS\tmp\ccG4x2qc.debug.temp.o
                0x00044dc2                crt1.c.d91a7ff2
 .debug_info    0x00045058      0xc89 C:\QMK_MSYS\tmp\ccy1h0bw.debug.temp.o
                0x00045058                chsys.c.e1cceeb9
 .debug_info    0x00045ce1      0x76b C:\QMK_MSYS\tmp\ccETjqTP.debug.temp.o
                0x00045ce1                chrfcu.c.0ee2363e
 .debug_info    0x0004644c      0xde3 C:\QMK_MSYS\tmp\cc4X53xM.debug.temp.o
                0x0004644c                chvt.c.9ca644bc
 .debug_info    0x0004722f      0xc88 C:\QMK_MSYS\tmp\cc8s0jj5.debug.temp.o
                0x0004722f                chschd.c.d7d315fb
 .debug_info    0x00047eb7      0x9ae C:\QMK_MSYS\tmp\ccGLUYho.debug.temp.o
                0x00047eb7                chinstances.c.dde95498
 .debug_info    0x00048865      0xedb C:\QMK_MSYS\tmp\ccoFfdsH.debug.temp.o
                0x00048865                chthreads.c.1907b3b3
 .debug_info    0x00049740      0xa8f C:\QMK_MSYS\tmp\ccWF6BUm.debug.temp.o
                0x00049740                chmtx.c.7c37b9ae
 .debug_info    0x0004a1cf     0x114d C:\QMK_MSYS\tmp\ccyaeabe.debug.temp.o
                0x0004a1cf                chcore.c.611b1345
 .debug_info    0x0004b31c      0x2c7 C:\QMK_MSYS\tmp\ccgEWBuj.debug.temp.o
                0x0004b31c                chmemcore.c.b911b887
 .debug_info    0x0004b5e3       0xb9 C:\QMK_MSYS\tmp\ccGCLfVP.debug.temp.o
                0x0004b5e3                hal.c.60d2b943
 .debug_info    0x0004b69c      0x2e2 C:\QMK_MSYS\tmp\ccO1zI1b.debug.temp.o
                0x0004b69c                hal_st.c.b009195e
 .debug_info    0x0004b97e      0x95a C:\QMK_MSYS\tmp\ccwFmL2x.debug.temp.o
                0x0004b97e                hal_buffers.c.6346f151
 .debug_info    0x0004c2d8      0xe4b C:\QMK_MSYS\tmp\ccSymwj0.debug.temp.o
                0x0004c2d8                hal_i2c.c.705c8aa6
 .debug_info    0x0004d123     0x19b8 C:\QMK_MSYS\tmp\ccKpiHB6.debug.temp.o
                0x0004d123                hal_usb.c.e3bb5528
 .debug_info    0x0004eadb      0x45b C:\QMK_MSYS\tmp\ccgfvfMj.debug.temp.o
                0x0004eadb                nvic.c.2e17abde
 .debug_info    0x0004ef36      0x29f C:\QMK_MSYS\tmp\ccO3hIUH.debug.temp.o
                0x0004ef36                stm32_isr.c.ee93e3f6
 .debug_info    0x0004f1d5      0x5b2 C:\QMK_MSYS\tmp\ccS2x1X5.debug.temp.o
                0x0004f1d5                hal_lld.c.1057573d
 .debug_info    0x0004f787      0x7f7 C:\QMK_MSYS\tmp\cc8qLvrs.debug.temp.o
                0x0004f787                stm32_dma.c.50695bfc
 .debug_info    0x0004ff7e      0x248 C:\QMK_MSYS\tmp\cck1d5rd.debug.temp.o
                0x0004ff7e                hal_pal_lld.c.30a12c0f
 .debug_info    0x000501c6     0x1522 C:\QMK_MSYS\tmp\ccsu478A.debug.temp.o
                0x000501c6                hal_i2c_lld.c.9dcad401
 .debug_info    0x000516e8     0x1c49 C:\QMK_MSYS\tmp\ccaVzTzm.debug.temp.o
                0x000516e8                hal_usb_lld.c.d0e09510
 .debug_info    0x00053331      0x509 C:\QMK_MSYS\tmp\ccG5hVhR.debug.temp.o
                0x00053331                hal_st_lld.c.736eaf43
 .debug_info    0x0005383a      0x49b C:\QMK_MSYS\tmp\cc2xLbM0.debug.temp.o
                0x0005383a                board.c.dd86ae9d
 .debug_info    0x00053cd5      0xb4a C:\QMK_MSYS\tmp\ccOue1MD.debug.temp.o
                0x00053cd5                syscalls.c.aed0d427
 .debug_info    0x0005481f      0xbeb C:\QMK_MSYS\tmp\cccYmH44.debug.temp.o
                0x0005481f                syscall_fallbacks.c.de2c9ce9
 .debug_info    0x0005540a     0x14bd .build/obj_vessel_base/i2c_master.a(i2c_master.o)
 .debug_info    0x000568c7       0x24 c:/qmk_msys/mingw64/bin/../lib/gcc/arm-none-eabi/12.2.0/thumb/v7e-m+fp/hard\libgcc.a(_aeabi_uldivmod.o)
 .debug_info    0x000568eb      0x6fd c:/qmk_msys/mingw64/bin/../lib/gcc/arm-none-eabi/12.2.0/thumb/v7e-m+fp/hard\libgcc.a(_udivmoddi4.o)
 .debug_info    0x00056fe8       0x39 c:/qmk_msys/mingw64/bin/../lib/gcc/arm-none-eabi/12.2.0/thumb/v7e-m+fp/hard\libgcc.a(_dvmd_tls.o)
 .debug_info    0x00057021      0x85b c:/qmk_msys/mingw64/bin/../lib/gcc/arm-none-eabi/12.2.0/../../../../arm-none-eabi/lib/thumb/v7e-m+fp/hard\libg_nano.a(libc_a-rand.o)
 .debug_info    0x0005787c      0x715 c:/qmk_msys/mingw64/bin/../lib/gcc/arm-none-eabi/12.2.0/../../../../arm-none-eabi/lib/thumb/v7e-m+fp/hard\libg_nano.a(libc_a-impure.o)
 .debug_info    0x00057f91       0x33 c:/qmk_msys/mingw64/bin/../lib/gcc/arm-none-eabi/12.2.0/../../../../arm-none-eabi/lib/thumb/v7e-m+fp/hard\libg_nano.a(libc_a-memcpy.o)
 .debug_info    0x00057fc4      0x81d c:/qmk_msys/mingw64/bin/../lib/gcc/arm-none-eabi/12.2.0/../../../../arm-none-eabi/lib/thumb/v7e-m+fp/hard\libg_nano.a(libc_a-assert.o)
 .debug_info    0x000587e1      0x794 c:/qmk_msys/mingw64/bin/../lib/gcc/arm-none-eabi/12.2.0/../../../../arm-none-eabi/lib/thumb/v7e-m+fp/hard\libg_nano.a(libc_a-malloc.o)
 .debug_info    0x00058f75      0x9c1 c:/qmk_msys/mingw64/bin/../lib/gcc/arm-none-eabi/12.2.0/../../../../arm-none-eabi/lib/thumb/v7e-m+fp/hard\libg_nano.a(libc_a-mallocr.o)
 .debug_info    0x00059936      0x76b c:/qmk_msys/mingw64/bin/../lib/gcc/arm-none-eabi/12.2.0/../../../../arm-none-eabi/lib/thumb/v7e-m+fp/hard\libg_nano.a(libc_a-mlock.o)
 .debug_info    0x0005a0a1      0x855 c:/qmk_msys/mingw64/bin/../lib/gcc/arm-none-eabi/12.2.0/../../../../arm-none-eabi/lib/thumb/v7e-m+fp/hard\libg_nano.a(libc_a-fprintf.o)
 .debug_info    0x0005a8f6      0x20a c:/qmk_msys/mingw64/bin/../lib/gcc/arm-none-eabi/12.2.0/../../../../arm-none-eabi/lib/thumb/v7e-m+fp/hard\libg_nano.a(libc_a-lock.o)
 .debug_info    0x0005ab00       0xd8 c:/qmk_msys/mingw64/bin/../lib/gcc/arm-none-eabi/12.2.0/../../../../arm-none-eabi/lib/thumb/v7e-m+fp/hard\libg_nano.a(libc_a-abort.o)
 .debug_info    0x0005abd8      0x877 c:/qmk_msys/mingw64/bin/../lib/gcc/arm-none-eabi/12.2.0/../../../../arm-none-eabi/lib/thumb/v7e-m+fp/hard\libg_nano.a(libc_a-freer.o)
 .debug_info    0x0005b44f     0x10cb c:/qmk_msys/mingw64/bin/../lib/gcc/arm-none-eabi/12.2.0/../../../../arm-none-eabi/lib/thumb/v7e-m+fp/hard\libg_nano.a(libc_a-nano-vfprintf.o)
 .debug_info    0x0005c51a      0xde1 c:/qmk_msys/mingw64/bin/../lib/gcc/arm-none-eabi/12.2.0/../../../../arm-none-eabi/lib/thumb/v7e-m+fp/hard\libg_nano.a(libc_a-nano-vfprintf_i.o)
 .debug_info    0x0005d2fb     0x10be c:/qmk_msys/mingw64/bin/../lib/gcc/arm-none-eabi/12.2.0/../../../../arm-none-eabi/lib/thumb/v7e-m+fp/hard\libg_nano.a(libc_a-findfp.o)
 .debug_info    0x0005e3b9      0xafb c:/qmk_msys/mingw64/bin/../lib/gcc/arm-none-eabi/12.2.0/../../../../arm-none-eabi/lib/thumb/v7e-m+fp/hard\libg_nano.a(libc_a-fvwrite.o)
 .debug_info    0x0005eeb4      0x7d2 c:/qmk_msys/mingw64/bin/../lib/gcc/arm-none-eabi/12.2.0/../../../../arm-none-eabi/lib/thumb/v7e-m+fp/hard\libg_nano.a(libc_a-fwalk.o)
 .debug_info    0x0005f686      0xa4e c:/qmk_msys/mingw64/bin/../lib/gcc/arm-none-eabi/12.2.0/../../../../arm-none-eabi/lib/thumb/v7e-m+fp/hard\libg_nano.a(libc_a-stdio.o)
 .debug_info    0x000600d4      0x861 c:/qmk_msys/mingw64/bin/../lib/gcc/arm-none-eabi/12.2.0/../../../../arm-none-eabi/lib/thumb/v7e-m+fp/hard\libg_nano.a(libc_a-wbuf.o)
 .debug_info    0x00060935      0x7bb c:/qmk_msys/mingw64/bin/../lib/gcc/arm-none-eabi/12.2.0/../../../../arm-none-eabi/lib/thumb/v7e-m+fp/hard\libg_nano.a(libc_a-wsetup.o)
 .debug_info    0x000610f0      0x148 c:/qmk_msys/mingw64/bin/../lib/gcc/arm-none-eabi/12.2.0/../../../../arm-none-eabi/lib/thumb/v7e-m+fp/hard\libg_nano.a(libc_a-memmove.o)
 .debug_info    0x00061238      0x135 c:/qmk_msys/mingw64/bin/../lib/gcc/arm-none-eabi/12.2.0/../../../../arm-none-eabi/lib/thumb/v7e-m+fp/hard\libg_nano.a(libc_a-memset.o)
 .debug_info    0x0006136d      0xc31 c:/qmk_msys/mingw64/bin/../lib/gcc/arm-none-eabi/12.2.0/../../../../arm-none-eabi/lib/thumb/v7e-m+fp/hard\libg_nano.a(libc_a-signal.o)
 .debug_info    0x00061f9e      0x7dd c:/qmk_msys/mingw64/bin/../lib/gcc/arm-none-eabi/12.2.0/../../../../arm-none-eabi/lib/thumb/v7e-m+fp/hard\libg_nano.a(libc_a-signalr.o)
 .debug_info    0x0006277b       0x25 c:/qmk_msys/mingw64/bin/../lib/gcc/arm-none-eabi/12.2.0/../../../../arm-none-eabi/lib/thumb/v7e-m+fp/hard\libg_nano.a(libc_a-memchr.o)
 .debug_info    0x000627a0      0x8d1 c:/qmk_msys/mingw64/bin/../lib/gcc/arm-none-eabi/12.2.0/../../../../arm-none-eabi/lib/thumb/v7e-m+fp/hard\libg_nano.a(libc_a-reallocr.o)
 .debug_info    0x00063071      0x9ef c:/qmk_msys/mingw64/bin/../lib/gcc/arm-none-eabi/12.2.0/../../../../arm-none-eabi/lib/thumb/v7e-m+fp/hard\libg_nano.a(libc_a-fflush.o)
 .debug_info    0x00063a60      0xbea c:/qmk_msys/mingw64/bin/../lib/gcc/arm-none-eabi/12.2.0/../../../../arm-none-eabi/lib/thumb/v7e-m+fp/hard\libg_nano.a(libc_a-makebuf.o)
 .debug_info    0x0006464a      0x8a3 c:/qmk_msys/mingw64/bin/../lib/gcc/arm-none-eabi/12.2.0/../../../../arm-none-eabi/lib/thumb/v7e-m+fp/hard\libg_nano.a(libc_a-reent.o)
 .debug_info    0x00064eed      0x794 c:/qmk_msys/mingw64/bin/../lib/gcc/arm-none-eabi/12.2.0/../../../../arm-none-eabi/lib/thumb/v7e-m+fp/hard\libg_nano.a(libc_a-msizer.o)
 .debug_info    0x00065681      0x12b c:/qmk_msys/mingw64/bin/../lib/gcc/arm-none-eabi/12.2.0/../../../../arm-none-eabi/lib/thumb/v7e-m+fp/hard\libg_nano.a(libc_a-memcmp.o)

.debug_abbrev   0x00000000     0xc63d
 .debug_abbrev  0x00000000      0x3e1 C:\QMK_MSYS\tmp\cchXQqT6.ltrans0.ltrans.o
 .debug_abbrev  0x000003e1      0x114 C:\QMK_MSYS\tmp\ccMndiui.debug.temp.o
 .debug_abbrev  0x000004f5      0x2f3 C:\QMK_MSYS\tmp\ccasmfpM.debug.temp.o
 .debug_abbrev  0x000007e8      0x263 C:\QMK_MSYS\tmp\cc4deco1.debug.temp.o
 .debug_abbrev  0x00000a4b      0x148 C:\QMK_MSYS\tmp\cccw8nFv.debug.temp.o
 .debug_abbrev  0x00000b93      0x2f3 C:\QMK_MSYS\tmp\ccOuT7LJ.debug.temp.o
 .debug_abbrev  0x00000e86      0x245 C:\QMK_MSYS\tmp\ccoa1H7X.debug.temp.o
 .debug_abbrev  0x000010cb      0x224 C:\QMK_MSYS\tmp\cce2Mpnc.debug.temp.o
 .debug_abbrev  0x000012ef      0x1f9 C:\QMK_MSYS\tmp\ccmx6ARq.debug.temp.o
 .debug_abbrev  0x000014e8      0x16b C:\QMK_MSYS\tmp\ccs1VMhF.debug.temp.o
 .debug_abbrev  0x00001653      0x2c9 C:\QMK_MSYS\tmp\cccoT1TT.debug.temp.o
 .debug_abbrev  0x0000191c      0x1a8 C:\QMK_MSYS\tmp\ccYZ9Et8.debug.temp.o
 .debug_abbrev  0x00001ac4      0x10e C:\QMK_MSYS\tmp\ccKJyyMq.debug.temp.o
 .debug_abbrev  0x00001bd2       0x9e C:\QMK_MSYS\tmp\ccOpoZr1.debug.temp.o
 .debug_abbrev  0x00001c70       0x57 C:\QMK_MSYS\tmp\cccVh7Rj.debug.temp.o
 .debug_abbrev  0x00001cc7       0xa4 C:\QMK_MSYS\tmp\ccYOVncC.debug.temp.o
 .debug_abbrev  0x00001d6b      0x14e C:\QMK_MSYS\tmp\ccK2PbMU.debug.temp.o
 .debug_abbrev  0x00001eb9      0x240 C:\QMK_MSYS\tmp\ccQSqSid.debug.temp.o
 .debug_abbrev  0x000020f9      0x132 C:\QMK_MSYS\tmp\ccSOvWMv.debug.temp.o
 .debug_abbrev  0x0000222b       0x5e C:\QMK_MSYS\tmp\ccgeiitO.debug.temp.o
 .debug_abbrev  0x00002289      0x18f C:\QMK_MSYS\tmp\cc8Mz186.debug.temp.o
 .debug_abbrev  0x00002418      0x10e C:\QMK_MSYS\tmp\ccGPrLQo.debug.temp.o
 .debug_abbrev  0x00002526       0xfa C:\QMK_MSYS\tmp\ccoBU7tG.debug.temp.o
 .debug_abbrev  0x00002620       0xf9 C:\QMK_MSYS\tmp\ccYssG5X.debug.temp.o
 .debug_abbrev  0x00002719      0x3ac C:\QMK_MSYS\tmp\cc84iN5f.debug.temp.o
 .debug_abbrev  0x00002ac5      0x157 C:\QMK_MSYS\tmp\ccaR4n0x.debug.temp.o
 .debug_abbrev  0x00002c1c      0x14a C:\QMK_MSYS\tmp\ccCUU38P.debug.temp.o
 .debug_abbrev  0x00002d66       0x75 C:\QMK_MSYS\tmp\ccmj5Wg8.debug.temp.o
 .debug_abbrev  0x00002ddb       0x46 C:\QMK_MSYS\tmp\cc8wVEiq.debug.temp.o
 .debug_abbrev  0x00002e21      0x20d C:\QMK_MSYS\tmp\ccSLYenH.debug.temp.o
 .debug_abbrev  0x0000302e      0x1ff C:\QMK_MSYS\tmp\cc29RKnY.debug.temp.o
 .debug_abbrev  0x0000322d      0x181 C:\QMK_MSYS\tmp\ccqxbkCf.debug.temp.o
 .debug_abbrev  0x000033ae      0x188 C:\QMK_MSYS\tmp\ccUrqJ2w.debug.temp.o
 .debug_abbrev  0x00003536       0xc9 C:\QMK_MSYS\tmp\ccG537mO.debug.temp.o
 .debug_abbrev  0x000035ff      0x16a C:\QMK_MSYS\tmp\cccZZvV5.debug.temp.o
 .debug_abbrev  0x00003769      0x14d C:\QMK_MSYS\tmp\cc8PJrsn.debug.temp.o
 .debug_abbrev  0x000038b6      0x105 C:\QMK_MSYS\tmp\ccIZWGTE.debug.temp.o
 .debug_abbrev  0x000039bb       0xc0 C:\QMK_MSYS\tmp\cc8nUmrV.debug.temp.o
 .debug_abbrev  0x00003a7b      0x14f C:\QMK_MSYS\tmp\ccw6TSBs.debug.temp.o
 .debug_abbrev  0x00003bca      0x1f2 C:\QMK_MSYS\tmp\ccsnFIeJ.debug.temp.o
 .debug_abbrev  0x00003dbc      0x1b9 C:\QMK_MSYS\tmp\ccaPNr4Z.debug.temp.o
 .debug_abbrev  0x00003f75      0x1b0 C:\QMK_MSYS\tmp\cciuobZg.debug.temp.o
 .debug_abbrev  0x00004125       0xcc C:\QMK_MSYS\tmp\ccsytQAB.debug.temp.o
 .debug_abbrev  0x000041f1       0xa4 C:\QMK_MSYS\tmp\cc8HolSg.debug.temp.o
 .debug_abbrev  0x00004295       0x5d C:\QMK_MSYS\tmp\ccWN46cC.debug.temp.o
 .debug_abbrev  0x000042f2       0x9f C:\QMK_MSYS\tmp\ccc9IsfX.debug.temp.o
 .debug_abbrev  0x00004391      0x12e C:\QMK_MSYS\tmp\cc6gAfgi.debug.temp.o
 .debug_abbrev  0x000044bf      0x1f1 C:\QMK_MSYS\tmp\ccM929jC.debug.temp.o
 .debug_abbrev  0x000046b0      0x43c C:\QMK_MSYS\tmp\ccm7LIlW.debug.temp.o
 .debug_abbrev  0x00004aec      0x294 C:\QMK_MSYS\tmp\cc4YVBxg.debug.temp.o
 .debug_abbrev  0x00004d80      0x148 C:\QMK_MSYS\tmp\cc4Z73GA.debug.temp.o
 .debug_abbrev  0x00004ec8      0x2fe C:\QMK_MSYS\tmp\cccb7ZLU.debug.temp.o
 .debug_abbrev  0x000051c6      0x243 C:\QMK_MSYS\tmp\ccwICi4e.debug.temp.o
 .debug_abbrev  0x00005409      0x34e C:\QMK_MSYS\tmp\ccMloLwz.debug.temp.o
 .debug_abbrev  0x00005757       0xec C:\QMK_MSYS\tmp\ccG4x2qc.debug.temp.o
 .debug_abbrev  0x00005843      0x2ed C:\QMK_MSYS\tmp\ccy1h0bw.debug.temp.o
 .debug_abbrev  0x00005b30      0x157 C:\QMK_MSYS\tmp\ccETjqTP.debug.temp.o
 .debug_abbrev  0x00005c87      0x2ae C:\QMK_MSYS\tmp\cc4X53xM.debug.temp.o
 .debug_abbrev  0x00005f35      0x250 C:\QMK_MSYS\tmp\cc8s0jj5.debug.temp.o
 .debug_abbrev  0x00006185      0x253 C:\QMK_MSYS\tmp\ccGLUYho.debug.temp.o
 .debug_abbrev  0x000063d8      0x2f8 C:\QMK_MSYS\tmp\ccoFfdsH.debug.temp.o
 .debug_abbrev  0x000066d0      0x2af C:\QMK_MSYS\tmp\ccWF6BUm.debug.temp.o
 .debug_abbrev  0x0000697f      0x276 C:\QMK_MSYS\tmp\ccyaeabe.debug.temp.o
 .debug_abbrev  0x00006bf5      0x15d C:\QMK_MSYS\tmp\ccgEWBuj.debug.temp.o
 .debug_abbrev  0x00006d52       0x6e C:\QMK_MSYS\tmp\ccGCLfVP.debug.temp.o
 .debug_abbrev  0x00006dc0      0x15c C:\QMK_MSYS\tmp\ccO1zI1b.debug.temp.o
 .debug_abbrev  0x00006f1c      0x209 C:\QMK_MSYS\tmp\ccwFmL2x.debug.temp.o
 .debug_abbrev  0x00007125      0x28c C:\QMK_MSYS\tmp\ccSymwj0.debug.temp.o
 .debug_abbrev  0x000073b1      0x333 C:\QMK_MSYS\tmp\ccKpiHB6.debug.temp.o
 .debug_abbrev  0x000076e4      0x13e C:\QMK_MSYS\tmp\ccgfvfMj.debug.temp.o
 .debug_abbrev  0x00007822       0x88 C:\QMK_MSYS\tmp\ccO3hIUH.debug.temp.o
 .debug_abbrev  0x000078aa      0x111 C:\QMK_MSYS\tmp\ccS2x1X5.debug.temp.o
 .debug_abbrev  0x000079bb      0x204 C:\QMK_MSYS\tmp\cc8qLvrs.debug.temp.o
 .debug_abbrev  0x00007bbf       0xf2 C:\QMK_MSYS\tmp\cck1d5rd.debug.temp.o
 .debug_abbrev  0x00007cb1      0x327 C:\QMK_MSYS\tmp\ccsu478A.debug.temp.o
 .debug_abbrev  0x00007fd8      0x364 C:\QMK_MSYS\tmp\ccaVzTzm.debug.temp.o
 .debug_abbrev  0x0000833c      0x11d C:\QMK_MSYS\tmp\ccG5hVhR.debug.temp.o
 .debug_abbrev  0x00008459      0x168 C:\QMK_MSYS\tmp\cc2xLbM0.debug.temp.o
 .debug_abbrev  0x000085c1      0x247 C:\QMK_MSYS\tmp\ccOue1MD.debug.temp.o
 .debug_abbrev  0x00008808      0x212 C:\QMK_MSYS\tmp\cccYmH44.debug.temp.o
 .debug_abbrev  0x00008a1a      0x31b .build/obj_vessel_base/i2c_master.a(i2c_master.o)
 .debug_abbrev  0x00008d35       0x14 c:/qmk_msys/mingw64/bin/../lib/gcc/arm-none-eabi/12.2.0/thumb/v7e-m+fp/hard\libgcc.a(_aeabi_uldivmod.o)
 .debug_abbrev  0x00008d49      0x16a c:/qmk_msys/mingw64/bin/../lib/gcc/arm-none-eabi/12.2.0/thumb/v7e-m+fp/hard\libgcc.a(_udivmoddi4.o)
 .debug_abbrev  0x00008eb3       0x1f c:/qmk_msys/mingw64/bin/../lib/gcc/arm-none-eabi/12.2.0/thumb/v7e-m+fp/hard\libgcc.a(_dvmd_tls.o)
 .debug_abbrev  0x00008ed2      0x220 c:/qmk_msys/mingw64/bin/../lib/gcc/arm-none-eabi/12.2.0/../../../../arm-none-eabi/lib/thumb/v7e-m+fp/hard\libg_nano.a(libc_a-rand.o)
 .debug_abbrev  0x000090f2      0x149 c:/qmk_msys/mingw64/bin/../lib/gcc/arm-none-eabi/12.2.0/../../../../arm-none-eabi/lib/thumb/v7e-m+fp/hard\libg_nano.a(libc_a-impure.o)
 .debug_abbrev  0x0000923b       0x28 c:/qmk_msys/mingw64/bin/../lib/gcc/arm-none-eabi/12.2.0/../../../../arm-none-eabi/lib/thumb/v7e-m+fp/hard\libg_nano.a(libc_a-memcpy.o)
 .debug_abbrev  0x00009263      0x1ea c:/qmk_msys/mingw64/bin/../lib/gcc/arm-none-eabi/12.2.0/../../../../arm-none-eabi/lib/thumb/v7e-m+fp/hard\libg_nano.a(libc_a-assert.o)
 .debug_abbrev  0x0000944d      0x1cf c:/qmk_msys/mingw64/bin/../lib/gcc/arm-none-eabi/12.2.0/../../../../arm-none-eabi/lib/thumb/v7e-m+fp/hard\libg_nano.a(libc_a-malloc.o)
 .debug_abbrev  0x0000961c      0x24a c:/qmk_msys/mingw64/bin/../lib/gcc/arm-none-eabi/12.2.0/../../../../arm-none-eabi/lib/thumb/v7e-m+fp/hard\libg_nano.a(libc_a-mallocr.o)
 .debug_abbrev  0x00009866      0x1bf c:/qmk_msys/mingw64/bin/../lib/gcc/arm-none-eabi/12.2.0/../../../../arm-none-eabi/lib/thumb/v7e-m+fp/hard\libg_nano.a(libc_a-mlock.o)
 .debug_abbrev  0x00009a25      0x21d c:/qmk_msys/mingw64/bin/../lib/gcc/arm-none-eabi/12.2.0/../../../../arm-none-eabi/lib/thumb/v7e-m+fp/hard\libg_nano.a(libc_a-fprintf.o)
 .debug_abbrev  0x00009c42      0x115 c:/qmk_msys/mingw64/bin/../lib/gcc/arm-none-eabi/12.2.0/../../../../arm-none-eabi/lib/thumb/v7e-m+fp/hard\libg_nano.a(libc_a-lock.o)
 .debug_abbrev  0x00009d57       0x99 c:/qmk_msys/mingw64/bin/../lib/gcc/arm-none-eabi/12.2.0/../../../../arm-none-eabi/lib/thumb/v7e-m+fp/hard\libg_nano.a(libc_a-abort.o)
 .debug_abbrev  0x00009df0      0x249 c:/qmk_msys/mingw64/bin/../lib/gcc/arm-none-eabi/12.2.0/../../../../arm-none-eabi/lib/thumb/v7e-m+fp/hard\libg_nano.a(libc_a-freer.o)
 .debug_abbrev  0x0000a039      0x377 c:/qmk_msys/mingw64/bin/../lib/gcc/arm-none-eabi/12.2.0/../../../../arm-none-eabi/lib/thumb/v7e-m+fp/hard\libg_nano.a(libc_a-nano-vfprintf.o)
 .debug_abbrev  0x0000a3b0      0x28d c:/qmk_msys/mingw64/bin/../lib/gcc/arm-none-eabi/12.2.0/../../../../arm-none-eabi/lib/thumb/v7e-m+fp/hard\libg_nano.a(libc_a-nano-vfprintf_i.o)
 .debug_abbrev  0x0000a63d      0x446 c:/qmk_msys/mingw64/bin/../lib/gcc/arm-none-eabi/12.2.0/../../../../arm-none-eabi/lib/thumb/v7e-m+fp/hard\libg_nano.a(libc_a-findfp.o)
 .debug_abbrev  0x0000aa83      0x21b c:/qmk_msys/mingw64/bin/../lib/gcc/arm-none-eabi/12.2.0/../../../../arm-none-eabi/lib/thumb/v7e-m+fp/hard\libg_nano.a(libc_a-fvwrite.o)
 .debug_abbrev  0x0000ac9e      0x19b c:/qmk_msys/mingw64/bin/../lib/gcc/arm-none-eabi/12.2.0/../../../../arm-none-eabi/lib/thumb/v7e-m+fp/hard\libg_nano.a(libc_a-fwalk.o)
 .debug_abbrev  0x0000ae39      0x224 c:/qmk_msys/mingw64/bin/../lib/gcc/arm-none-eabi/12.2.0/../../../../arm-none-eabi/lib/thumb/v7e-m+fp/hard\libg_nano.a(libc_a-stdio.o)
 .debug_abbrev  0x0000b05d      0x236 c:/qmk_msys/mingw64/bin/../lib/gcc/arm-none-eabi/12.2.0/../../../../arm-none-eabi/lib/thumb/v7e-m+fp/hard\libg_nano.a(libc_a-wbuf.o)
 .debug_abbrev  0x0000b293      0x1e2 c:/qmk_msys/mingw64/bin/../lib/gcc/arm-none-eabi/12.2.0/../../../../arm-none-eabi/lib/thumb/v7e-m+fp/hard\libg_nano.a(libc_a-wsetup.o)
 .debug_abbrev  0x0000b475       0xc3 c:/qmk_msys/mingw64/bin/../lib/gcc/arm-none-eabi/12.2.0/../../../../arm-none-eabi/lib/thumb/v7e-m+fp/hard\libg_nano.a(libc_a-memmove.o)
 .debug_abbrev  0x0000b538       0xb7 c:/qmk_msys/mingw64/bin/../lib/gcc/arm-none-eabi/12.2.0/../../../../arm-none-eabi/lib/thumb/v7e-m+fp/hard\libg_nano.a(libc_a-memset.o)
 .debug_abbrev  0x0000b5ef      0x2d7 c:/qmk_msys/mingw64/bin/../lib/gcc/arm-none-eabi/12.2.0/../../../../arm-none-eabi/lib/thumb/v7e-m+fp/hard\libg_nano.a(libc_a-signal.o)
 .debug_abbrev  0x0000b8c6      0x1fd c:/qmk_msys/mingw64/bin/../lib/gcc/arm-none-eabi/12.2.0/../../../../arm-none-eabi/lib/thumb/v7e-m+fp/hard\libg_nano.a(libc_a-signalr.o)
 .debug_abbrev  0x0000bac3       0x14 c:/qmk_msys/mingw64/bin/../lib/gcc/arm-none-eabi/12.2.0/../../../../arm-none-eabi/lib/thumb/v7e-m+fp/hard\libg_nano.a(libc_a-memchr.o)
 .debug_abbrev  0x0000bad7      0x20c c:/qmk_msys/mingw64/bin/../lib/gcc/arm-none-eabi/12.2.0/../../../../arm-none-eabi/lib/thumb/v7e-m+fp/hard\libg_nano.a(libc_a-reallocr.o)
 .debug_abbrev  0x0000bce3      0x2a9 c:/qmk_msys/mingw64/bin/../lib/gcc/arm-none-eabi/12.2.0/../../../../arm-none-eabi/lib/thumb/v7e-m+fp/hard\libg_nano.a(libc_a-fflush.o)
 .debug_abbrev  0x0000bf8c      0x29d c:/qmk_msys/mingw64/bin/../lib/gcc/arm-none-eabi/12.2.0/../../../../arm-none-eabi/lib/thumb/v7e-m+fp/hard\libg_nano.a(libc_a-makebuf.o)
 .debug_abbrev  0x0000c229      0x1ee c:/qmk_msys/mingw64/bin/../lib/gcc/arm-none-eabi/12.2.0/../../../../arm-none-eabi/lib/thumb/v7e-m+fp/hard\libg_nano.a(libc_a-reent.o)
 .debug_abbrev  0x0000c417      0x196 c:/qmk_msys/mingw64/bin/../lib/gcc/arm-none-eabi/12.2.0/../../../../arm-none-eabi/lib/thumb/v7e-m+fp/hard\libg_nano.a(libc_a-msizer.o)
 .debug_abbrev  0x0000c5ad       0x90 c:/qmk_msys/mingw64/bin/../lib/gcc/arm-none-eabi/12.2.0/../../../../arm-none-eabi/lib/thumb/v7e-m+fp/hard\libg_nano.a(libc_a-memcmp.o)

.debug_loclists
                0x00000000     0xfc22
 .debug_loclists
                0x00000000     0xc7fd C:\QMK_MSYS\tmp\cchXQqT6.ltrans0.ltrans.o
 .debug_loclists
                0x0000c7fd      0x378 .build/obj_vessel_base/i2c_master.a(i2c_master.o)
 .debug_loclists
                0x0000cb75      0x768 c:/qmk_msys/mingw64/bin/../lib/gcc/arm-none-eabi/12.2.0/thumb/v7e-m+fp/hard\libgcc.a(_udivmoddi4.o)
 .debug_loclists
                0x0000d2dd       0x71 c:/qmk_msys/mingw64/bin/../lib/gcc/arm-none-eabi/12.2.0/../../../../arm-none-eabi/lib/thumb/v7e-m+fp/hard\libg_nano.a(libc_a-rand.o)
 .debug_loclists
                0x0000d34e       0xd0 c:/qmk_msys/mingw64/bin/../lib/gcc/arm-none-eabi/12.2.0/../../../../arm-none-eabi/lib/thumb/v7e-m+fp/hard\libg_nano.a(libc_a-assert.o)
 .debug_loclists
                0x0000d41e       0x3e c:/qmk_msys/mingw64/bin/../lib/gcc/arm-none-eabi/12.2.0/../../../../arm-none-eabi/lib/thumb/v7e-m+fp/hard\libg_nano.a(libc_a-malloc.o)
 .debug_loclists
                0x0000d45c      0x223 c:/qmk_msys/mingw64/bin/../lib/gcc/arm-none-eabi/12.2.0/../../../../arm-none-eabi/lib/thumb/v7e-m+fp/hard\libg_nano.a(libc_a-mallocr.o)
 .debug_loclists
                0x0000d67f       0x30 c:/qmk_msys/mingw64/bin/../lib/gcc/arm-none-eabi/12.2.0/../../../../arm-none-eabi/lib/thumb/v7e-m+fp/hard\libg_nano.a(libc_a-mlock.o)
 .debug_loclists
                0x0000d6af       0x59 c:/qmk_msys/mingw64/bin/../lib/gcc/arm-none-eabi/12.2.0/../../../../arm-none-eabi/lib/thumb/v7e-m+fp/hard\libg_nano.a(libc_a-fprintf.o)
 .debug_loclists
                0x0000d708       0x1e c:/qmk_msys/mingw64/bin/../lib/gcc/arm-none-eabi/12.2.0/../../../../arm-none-eabi/lib/thumb/v7e-m+fp/hard\libg_nano.a(libc_a-lock.o)
 .debug_loclists
                0x0000d726      0x146 c:/qmk_msys/mingw64/bin/../lib/gcc/arm-none-eabi/12.2.0/../../../../arm-none-eabi/lib/thumb/v7e-m+fp/hard\libg_nano.a(libc_a-freer.o)
 .debug_loclists
                0x0000d86c      0x592 c:/qmk_msys/mingw64/bin/../lib/gcc/arm-none-eabi/12.2.0/../../../../arm-none-eabi/lib/thumb/v7e-m+fp/hard\libg_nano.a(libc_a-nano-vfprintf.o)
 .debug_loclists
                0x0000ddfe      0x3a5 c:/qmk_msys/mingw64/bin/../lib/gcc/arm-none-eabi/12.2.0/../../../../arm-none-eabi/lib/thumb/v7e-m+fp/hard\libg_nano.a(libc_a-nano-vfprintf_i.o)
 .debug_loclists
                0x0000e1a3      0x264 c:/qmk_msys/mingw64/bin/../lib/gcc/arm-none-eabi/12.2.0/../../../../arm-none-eabi/lib/thumb/v7e-m+fp/hard\libg_nano.a(libc_a-findfp.o)
 .debug_loclists
                0x0000e407      0x424 c:/qmk_msys/mingw64/bin/../lib/gcc/arm-none-eabi/12.2.0/../../../../arm-none-eabi/lib/thumb/v7e-m+fp/hard\libg_nano.a(libc_a-fvwrite.o)
 .debug_loclists
                0x0000e82b       0x79 c:/qmk_msys/mingw64/bin/../lib/gcc/arm-none-eabi/12.2.0/../../../../arm-none-eabi/lib/thumb/v7e-m+fp/hard\libg_nano.a(libc_a-fwalk.o)
 .debug_loclists
                0x0000e8a4      0x1e1 c:/qmk_msys/mingw64/bin/../lib/gcc/arm-none-eabi/12.2.0/../../../../arm-none-eabi/lib/thumb/v7e-m+fp/hard\libg_nano.a(libc_a-stdio.o)
 .debug_loclists
                0x0000ea85       0xf2 c:/qmk_msys/mingw64/bin/../lib/gcc/arm-none-eabi/12.2.0/../../../../arm-none-eabi/lib/thumb/v7e-m+fp/hard\libg_nano.a(libc_a-wbuf.o)
 .debug_loclists
                0x0000eb77       0x61 c:/qmk_msys/mingw64/bin/../lib/gcc/arm-none-eabi/12.2.0/../../../../arm-none-eabi/lib/thumb/v7e-m+fp/hard\libg_nano.a(libc_a-wsetup.o)
 .debug_loclists
                0x0000ebd8      0x209 c:/qmk_msys/mingw64/bin/../lib/gcc/arm-none-eabi/12.2.0/../../../../arm-none-eabi/lib/thumb/v7e-m+fp/hard\libg_nano.a(libc_a-memmove.o)
 .debug_loclists
                0x0000ede1      0x1b6 c:/qmk_msys/mingw64/bin/../lib/gcc/arm-none-eabi/12.2.0/../../../../arm-none-eabi/lib/thumb/v7e-m+fp/hard\libg_nano.a(libc_a-memset.o)
 .debug_loclists
                0x0000ef97      0x516 c:/qmk_msys/mingw64/bin/../lib/gcc/arm-none-eabi/12.2.0/../../../../arm-none-eabi/lib/thumb/v7e-m+fp/hard\libg_nano.a(libc_a-signal.o)
 .debug_loclists
                0x0000f4ad       0x71 c:/qmk_msys/mingw64/bin/../lib/gcc/arm-none-eabi/12.2.0/../../../../arm-none-eabi/lib/thumb/v7e-m+fp/hard\libg_nano.a(libc_a-signalr.o)
 .debug_loclists
                0x0000f51e       0xf2 c:/qmk_msys/mingw64/bin/../lib/gcc/arm-none-eabi/12.2.0/../../../../arm-none-eabi/lib/thumb/v7e-m+fp/hard\libg_nano.a(libc_a-reallocr.o)
 .debug_loclists
                0x0000f610      0x240 c:/qmk_msys/mingw64/bin/../lib/gcc/arm-none-eabi/12.2.0/../../../../arm-none-eabi/lib/thumb/v7e-m+fp/hard\libg_nano.a(libc_a-fflush.o)
 .debug_loclists
                0x0000f850      0x1a2 c:/qmk_msys/mingw64/bin/../lib/gcc/arm-none-eabi/12.2.0/../../../../arm-none-eabi/lib/thumb/v7e-m+fp/hard\libg_nano.a(libc_a-makebuf.o)
 .debug_loclists
                0x0000f9f2       0x7a c:/qmk_msys/mingw64/bin/../lib/gcc/arm-none-eabi/12.2.0/../../../../arm-none-eabi/lib/thumb/v7e-m+fp/hard\libg_nano.a(libc_a-reent.o)
 .debug_loclists
                0x0000fa6c       0x53 c:/qmk_msys/mingw64/bin/../lib/gcc/arm-none-eabi/12.2.0/../../../../arm-none-eabi/lib/thumb/v7e-m+fp/hard\libg_nano.a(libc_a-msizer.o)
 .debug_loclists
                0x0000fabf      0x163 c:/qmk_msys/mingw64/bin/../lib/gcc/arm-none-eabi/12.2.0/../../../../arm-none-eabi/lib/thumb/v7e-m+fp/hard\libg_nano.a(libc_a-memcmp.o)

.debug_aranges  0x00000000      0xcc0
 .debug_aranges
                0x00000000      0x848 C:\QMK_MSYS\tmp\cchXQqT6.ltrans0.ltrans.o
 .debug_aranges
                0x00000848       0x60 .build/obj_vessel_base/i2c_master.a(i2c_master.o)
 .debug_aranges
                0x000008a8       0x20 c:/qmk_msys/mingw64/bin/../lib/gcc/arm-none-eabi/12.2.0/thumb/v7e-m+fp/hard\libgcc.a(_aeabi_uldivmod.o)
 .debug_aranges
                0x000008c8       0x20 c:/qmk_msys/mingw64/bin/../lib/gcc/arm-none-eabi/12.2.0/thumb/v7e-m+fp/hard\libgcc.a(_udivmoddi4.o)
 .debug_aranges
                0x000008e8       0x20 c:/qmk_msys/mingw64/bin/../lib/gcc/arm-none-eabi/12.2.0/thumb/v7e-m+fp/hard\libgcc.a(_dvmd_tls.o)
 .debug_aranges
                0x00000908       0x20 c:/qmk_msys/mingw64/bin/../lib/gcc/arm-none-eabi/12.2.0/../../../../arm-none-eabi/lib/thumb/v7e-m+fp/hard\libg_nano.a(libc_a-rand.o)
 .debug_aranges
                0x00000928       0x18 c:/qmk_msys/mingw64/bin/../lib/gcc/arm-none-eabi/12.2.0/../../../../arm-none-eabi/lib/thumb/v7e-m+fp/hard\libg_nano.a(libc_a-impure.o)
 .debug_aranges
                0x00000940       0x20 c:/qmk_msys/mingw64/bin/../lib/gcc/arm-none-eabi/12.2.0/../../../../arm-none-eabi/lib/thumb/v7e-m+fp/hard\libg_nano.a(libc_a-memcpy.o)
 .debug_aranges
                0x00000960       0x20 c:/qmk_msys/mingw64/bin/../lib/gcc/arm-none-eabi/12.2.0/../../../../arm-none-eabi/lib/thumb/v7e-m+fp/hard\libg_nano.a(libc_a-assert.o)
 .debug_aranges
                0x00000980       0x20 c:/qmk_msys/mingw64/bin/../lib/gcc/arm-none-eabi/12.2.0/../../../../arm-none-eabi/lib/thumb/v7e-m+fp/hard\libg_nano.a(libc_a-malloc.o)
 .debug_aranges
                0x000009a0       0x20 c:/qmk_msys/mingw64/bin/../lib/gcc/arm-none-eabi/12.2.0/../../../../arm-none-eabi/lib/thumb/v7e-m+fp/hard\libg_nano.a(libc_a-mallocr.o)
 .debug_aranges
                0x000009c0       0x20 c:/qmk_msys/mingw64/bin/../lib/gcc/arm-none-eabi/12.2.0/../../../../arm-none-eabi/lib/thumb/v7e-m+fp/hard\libg_nano.a(libc_a-mlock.o)
 .debug_aranges
                0x000009e0       0x20 c:/qmk_msys/mingw64/bin/../lib/gcc/arm-none-eabi/12.2.0/../../../../arm-none-eabi/lib/thumb/v7e-m+fp/hard\libg_nano.a(libc_a-fprintf.o)
 .debug_aranges
                0x00000a00       0x20 c:/qmk_msys/mingw64/bin/../lib/gcc/arm-none-eabi/12.2.0/../../../../arm-none-eabi/lib/thumb/v7e-m+fp/hard\libg_nano.a(libc_a-lock.o)
 .debug_aranges
                0x00000a20       0x20 c:/qmk_msys/mingw64/bin/../lib/gcc/arm-none-eabi/12.2.0/../../../../arm-none-eabi/lib/thumb/v7e-m+fp/hard\libg_nano.a(libc_a-abort.o)
 .debug_aranges
                0x00000a40       0x20 c:/qmk_msys/mingw64/bin/../lib/gcc/arm-none-eabi/12.2.0/../../../../arm-none-eabi/lib/thumb/v7e-m+fp/hard\libg_nano.a(libc_a-freer.o)
 .debug_aranges
                0x00000a60       0x20 c:/qmk_msys/mingw64/bin/../lib/gcc/arm-none-eabi/12.2.0/../../../../arm-none-eabi/lib/thumb/v7e-m+fp/hard\libg_nano.a(libc_a-nano-vfprintf.o)
 .debug_aranges
                0x00000a80       0x20 c:/qmk_msys/mingw64/bin/../lib/gcc/arm-none-eabi/12.2.0/../../../../arm-none-eabi/lib/thumb/v7e-m+fp/hard\libg_nano.a(libc_a-nano-vfprintf_i.o)
 .debug_aranges
                0x00000aa0       0x20 c:/qmk_msys/mingw64/bin/../lib/gcc/arm-none-eabi/12.2.0/../../../../arm-none-eabi/lib/thumb/v7e-m+fp/hard\libg_nano.a(libc_a-findfp.o)
 .debug_aranges
                0x00000ac0       0x20 c:/qmk_msys/mingw64/bin/../lib/gcc/arm-none-eabi/12.2.0/../../../../arm-none-eabi/lib/thumb/v7e-m+fp/hard\libg_nano.a(libc_a-fvwrite.o)
 .debug_aranges
                0x00000ae0       0x20 c:/qmk_msys/mingw64/bin/../lib/gcc/arm-none-eabi/12.2.0/../../../../arm-none-eabi/lib/thumb/v7e-m+fp/hard\libg_nano.a(libc_a-fwalk.o)
 .debug_aranges
                0x00000b00       0x20 c:/qmk_msys/mingw64/bin/../lib/gcc/arm-none-eabi/12.2.0/../../../../arm-none-eabi/lib/thumb/v7e-m+fp/hard\libg_nano.a(libc_a-stdio.o)
 .debug_aranges
                0x00000b20       0x20 c:/qmk_msys/mingw64/bin/../lib/gcc/arm-none-eabi/12.2.0/../../../../arm-none-eabi/lib/thumb/v7e-m+fp/hard\libg_nano.a(libc_a-wbuf.o)
 .debug_aranges
                0x00000b40       0x20 c:/qmk_msys/mingw64/bin/../lib/gcc/arm-none-eabi/12.2.0/../../../../arm-none-eabi/lib/thumb/v7e-m+fp/hard\libg_nano.a(libc_a-wsetup.o)
 .debug_aranges
                0x00000b60       0x20 c:/qmk_msys/mingw64/bin/../lib/gcc/arm-none-eabi/12.2.0/../../../../arm-none-eabi/lib/thumb/v7e-m+fp/hard\libg_nano.a(libc_a-memmove.o)
 .debug_aranges
                0x00000b80       0x20 c:/qmk_msys/mingw64/bin/../lib/gcc/arm-none-eabi/12.2.0/../../../../arm-none-eabi/lib/thumb/v7e-m+fp/hard\libg_nano.a(libc_a-memset.o)
 .debug_aranges
                0x00000ba0       0x20 c:/qmk_msys/mingw64/bin/../lib/gcc/arm-none-eabi/12.2.0/../../../../arm-none-eabi/lib/thumb/v7e-m+fp/hard\libg_nano.a(libc_a-signal.o)
 .debug_aranges
                0x00000bc0       0x20 c:/qmk_msys/mingw64/bin/../lib/gcc/arm-none-eabi/12.2.0/../../../../arm-none-eabi/lib/thumb/v7e-m+fp/hard\libg_nano.a(libc_a-signalr.o)
 .debug_aranges
                0x00000be0       0x20 c:/qmk_msys/mingw64/bin/../lib/gcc/arm-none-eabi/12.2.0/../../../../arm-none-eabi/lib/thumb/v7e-m+fp/hard\libg_nano.a(libc_a-memchr.o)
 .debug_aranges
                0x00000c00       0x20 c:/qmk_msys/mingw64/bin/../lib/gcc/arm-none-eabi/12.2.0/../../../../arm-none-eabi/lib/thumb/v7e-m+fp/hard\libg_nano.a(libc_a-reallocr.o)
 .debug_aranges
                0x00000c20       0x20 c:/qmk_msys/mingw64/bin/../lib/gcc/arm-none-eabi/12.2.0/../../../../arm-none-eabi/lib/thumb/v7e-m+fp/hard\libg_nano.a(libc_a-fflush.o)
 .debug_aranges
                0x00000c40       0x20 c:/qmk_msys/mingw64/bin/../lib/gcc/arm-none-eabi/12.2.0/../../../../arm-none-eabi/lib/thumb/v7e-m+fp/hard\libg_nano.a(libc_a-makebuf.o)
 .debug_aranges
                0x00000c60       0x20 c:/qmk_msys/mingw64/bin/../lib/gcc/arm-none-eabi/12.2.0/../../../../arm-none-eabi/lib/thumb/v7e-m+fp/hard\libg_nano.a(libc_a-reent.o)
 .debug_aranges
                0x00000c80       0x20 c:/qmk_msys/mingw64/bin/../lib/gcc/arm-none-eabi/12.2.0/../../../../arm-none-eabi/lib/thumb/v7e-m+fp/hard\libg_nano.a(libc_a-msizer.o)
 .debug_aranges
                0x00000ca0       0x20 c:/qmk_msys/mingw64/bin/../lib/gcc/arm-none-eabi/12.2.0/../../../../arm-none-eabi/lib/thumb/v7e-m+fp/hard\libg_nano.a(libc_a-memcmp.o)

.debug_rnglists
                0x00000000     0x263b
 .debug_rnglists
                0x00000000     0x22d3 C:\QMK_MSYS\tmp\cchXQqT6.ltrans0.ltrans.o
 .debug_rnglists
                0x000022d3       0x63 .build/obj_vessel_base/i2c_master.a(i2c_master.o)
 .debug_rnglists
                0x00002336       0x6d c:/qmk_msys/mingw64/bin/../lib/gcc/arm-none-eabi/12.2.0/thumb/v7e-m+fp/hard\libgcc.a(_udivmoddi4.o)
 .debug_rnglists
                0x000023a3       0x3c c:/qmk_msys/mingw64/bin/../lib/gcc/arm-none-eabi/12.2.0/../../../../arm-none-eabi/lib/thumb/v7e-m+fp/hard\libg_nano.a(libc_a-rand.o)
 .debug_rnglists
                0x000023df       0x19 c:/qmk_msys/mingw64/bin/../lib/gcc/arm-none-eabi/12.2.0/../../../../arm-none-eabi/lib/thumb/v7e-m+fp/hard\libg_nano.a(libc_a-mallocr.o)
 .debug_rnglists
                0x000023f8       0x13 c:/qmk_msys/mingw64/bin/../lib/gcc/arm-none-eabi/12.2.0/../../../../arm-none-eabi/lib/thumb/v7e-m+fp/hard\libg_nano.a(libc_a-freer.o)
 .debug_rnglists
                0x0000240b       0x1c c:/qmk_msys/mingw64/bin/../lib/gcc/arm-none-eabi/12.2.0/../../../../arm-none-eabi/lib/thumb/v7e-m+fp/hard\libg_nano.a(libc_a-nano-vfprintf.o)
 .debug_rnglists
                0x00002427       0x61 c:/qmk_msys/mingw64/bin/../lib/gcc/arm-none-eabi/12.2.0/../../../../arm-none-eabi/lib/thumb/v7e-m+fp/hard\libg_nano.a(libc_a-nano-vfprintf_i.o)
 .debug_rnglists
                0x00002488       0x9f c:/qmk_msys/mingw64/bin/../lib/gcc/arm-none-eabi/12.2.0/../../../../arm-none-eabi/lib/thumb/v7e-m+fp/hard\libg_nano.a(libc_a-findfp.o)
 .debug_rnglists
                0x00002527       0x2b c:/qmk_msys/mingw64/bin/../lib/gcc/arm-none-eabi/12.2.0/../../../../arm-none-eabi/lib/thumb/v7e-m+fp/hard\libg_nano.a(libc_a-fvwrite.o)
 .debug_rnglists
                0x00002552       0x18 c:/qmk_msys/mingw64/bin/../lib/gcc/arm-none-eabi/12.2.0/../../../../arm-none-eabi/lib/thumb/v7e-m+fp/hard\libg_nano.a(libc_a-wbuf.o)
 .debug_rnglists
                0x0000256a       0x1b c:/qmk_msys/mingw64/bin/../lib/gcc/arm-none-eabi/12.2.0/../../../../arm-none-eabi/lib/thumb/v7e-m+fp/hard\libg_nano.a(libc_a-wsetup.o)
 .debug_rnglists
                0x00002585       0x65 c:/qmk_msys/mingw64/bin/../lib/gcc/arm-none-eabi/12.2.0/../../../../arm-none-eabi/lib/thumb/v7e-m+fp/hard\libg_nano.a(libc_a-signal.o)
 .debug_rnglists
                0x000025ea       0x34 c:/qmk_msys/mingw64/bin/../lib/gcc/arm-none-eabi/12.2.0/../../../../arm-none-eabi/lib/thumb/v7e-m+fp/hard\libg_nano.a(libc_a-fflush.o)
 .debug_rnglists
                0x0000261e       0x1d c:/qmk_msys/mingw64/bin/../lib/gcc/arm-none-eabi/12.2.0/../../../../arm-none-eabi/lib/thumb/v7e-m+fp/hard\libg_nano.a(libc_a-makebuf.o)

.debug_line     0x00000000    0x16d1f
 .debug_line    0x00000000     0xe404 C:\QMK_MSYS\tmp\cchXQqT6.ltrans0.ltrans.o
 .debug_line    0x0000e404       0x71 C:\QMK_MSYS\tmp\ccMndiui.debug.temp.o
 .debug_line    0x0000e475       0xcf C:\QMK_MSYS\tmp\ccasmfpM.debug.temp.o
 .debug_line    0x0000e544       0xc8 C:\QMK_MSYS\tmp\cc4deco1.debug.temp.o
 .debug_line    0x0000e60c       0x6c C:\QMK_MSYS\tmp\cccw8nFv.debug.temp.o
 .debug_line    0x0000e678       0xb1 C:\QMK_MSYS\tmp\ccOuT7LJ.debug.temp.o
 .debug_line    0x0000e729       0x77 C:\QMK_MSYS\tmp\ccoa1H7X.debug.temp.o
 .debug_line    0x0000e7a0       0x65 C:\QMK_MSYS\tmp\cce2Mpnc.debug.temp.o
 .debug_line    0x0000e805       0x7b C:\QMK_MSYS\tmp\ccmx6ARq.debug.temp.o
 .debug_line    0x0000e880       0x6c C:\QMK_MSYS\tmp\ccs1VMhF.debug.temp.o
 .debug_line    0x0000e8ec       0xd4 C:\QMK_MSYS\tmp\cccoT1TT.debug.temp.o
 .debug_line    0x0000e9c0       0x85 C:\QMK_MSYS\tmp\ccYZ9Et8.debug.temp.o
 .debug_line    0x0000ea45       0x5b C:\QMK_MSYS\tmp\ccKJyyMq.debug.temp.o
 .debug_line    0x0000eaa0       0x51 C:\QMK_MSYS\tmp\ccOpoZr1.debug.temp.o
 .debug_line    0x0000eaf1       0x4c C:\QMK_MSYS\tmp\cccVh7Rj.debug.temp.o
 .debug_line    0x0000eb3d       0x51 C:\QMK_MSYS\tmp\ccYOVncC.debug.temp.o
 .debug_line    0x0000eb8e       0x76 C:\QMK_MSYS\tmp\ccK2PbMU.debug.temp.o
 .debug_line    0x0000ec04       0x9f C:\QMK_MSYS\tmp\ccQSqSid.debug.temp.o
 .debug_line    0x0000eca3       0x70 C:\QMK_MSYS\tmp\ccSOvWMv.debug.temp.o
 .debug_line    0x0000ed13       0x3f C:\QMK_MSYS\tmp\ccgeiitO.debug.temp.o
 .debug_line    0x0000ed52       0x64 C:\QMK_MSYS\tmp\cc8Mz186.debug.temp.o
 .debug_line    0x0000edb6       0x67 C:\QMK_MSYS\tmp\ccGPrLQo.debug.temp.o
 .debug_line    0x0000ee1d       0x5e C:\QMK_MSYS\tmp\ccoBU7tG.debug.temp.o
 .debug_line    0x0000ee7b       0x56 C:\QMK_MSYS\tmp\ccYssG5X.debug.temp.o
 .debug_line    0x0000eed1      0x185 C:\QMK_MSYS\tmp\cc84iN5f.debug.temp.o
 .debug_line    0x0000f056       0x63 C:\QMK_MSYS\tmp\ccaR4n0x.debug.temp.o
 .debug_line    0x0000f0b9       0x72 C:\QMK_MSYS\tmp\ccCUU38P.debug.temp.o
 .debug_line    0x0000f12b       0x51 C:\QMK_MSYS\tmp\ccmj5Wg8.debug.temp.o
 .debug_line    0x0000f17c       0x4c C:\QMK_MSYS\tmp\cc8wVEiq.debug.temp.o
 .debug_line    0x0000f1c8       0x7a C:\QMK_MSYS\tmp\ccSLYenH.debug.temp.o
 .debug_line    0x0000f242       0x92 C:\QMK_MSYS\tmp\cc29RKnY.debug.temp.o
 .debug_line    0x0000f2d4       0x83 C:\QMK_MSYS\tmp\ccqxbkCf.debug.temp.o
 .debug_line    0x0000f357       0x7e C:\QMK_MSYS\tmp\ccUrqJ2w.debug.temp.o
 .debug_line    0x0000f3d5       0x71 C:\QMK_MSYS\tmp\ccG537mO.debug.temp.o
 .debug_line    0x0000f446       0x72 C:\QMK_MSYS\tmp\cccZZvV5.debug.temp.o
 .debug_line    0x0000f4b8       0x69 C:\QMK_MSYS\tmp\cc8PJrsn.debug.temp.o
 .debug_line    0x0000f521       0x64 C:\QMK_MSYS\tmp\ccIZWGTE.debug.temp.o
 .debug_line    0x0000f585       0x55 C:\QMK_MSYS\tmp\cc8nUmrV.debug.temp.o
 .debug_line    0x0000f5da       0x68 C:\QMK_MSYS\tmp\ccw6TSBs.debug.temp.o
 .debug_line    0x0000f642       0xa1 C:\QMK_MSYS\tmp\ccsnFIeJ.debug.temp.o
 .debug_line    0x0000f6e3       0x68 C:\QMK_MSYS\tmp\ccaPNr4Z.debug.temp.o
 .debug_line    0x0000f74b       0x80 C:\QMK_MSYS\tmp\cciuobZg.debug.temp.o
 .debug_line    0x0000f7cb       0x51 C:\QMK_MSYS\tmp\ccsytQAB.debug.temp.o
 .debug_line    0x0000f81c       0x55 C:\QMK_MSYS\tmp\cc8HolSg.debug.temp.o
 .debug_line    0x0000f871       0x4c C:\QMK_MSYS\tmp\ccWN46cC.debug.temp.o
 .debug_line    0x0000f8bd       0x7f C:\QMK_MSYS\tmp\ccc9IsfX.debug.temp.o
 .debug_line    0x0000f93c       0x7a C:\QMK_MSYS\tmp\cc6gAfgi.debug.temp.o
 .debug_line    0x0000f9b6       0x5f C:\QMK_MSYS\tmp\ccM929jC.debug.temp.o
 .debug_line    0x0000fa15      0x112 C:\QMK_MSYS\tmp\ccm7LIlW.debug.temp.o
 .debug_line    0x0000fb27       0xe4 C:\QMK_MSYS\tmp\cc4YVBxg.debug.temp.o
 .debug_line    0x0000fc0b       0x71 C:\QMK_MSYS\tmp\cc4Z73GA.debug.temp.o
 .debug_line    0x0000fc7c       0xda C:\QMK_MSYS\tmp\cccb7ZLU.debug.temp.o
 .debug_line    0x0000fd56       0xcc C:\QMK_MSYS\tmp\ccwICi4e.debug.temp.o
 .debug_line    0x0000fe22      0x105 C:\QMK_MSYS\tmp\ccMloLwz.debug.temp.o
 .debug_line    0x0000ff27       0x4c C:\QMK_MSYS\tmp\ccG4x2qc.debug.temp.o
 .debug_line    0x0000ff73       0xc3 C:\QMK_MSYS\tmp\ccy1h0bw.debug.temp.o
 .debug_line    0x00010036       0x8f C:\QMK_MSYS\tmp\ccETjqTP.debug.temp.o
 .debug_line    0x000100c5       0xa6 C:\QMK_MSYS\tmp\cc4X53xM.debug.temp.o
 .debug_line    0x0001016b       0x9d C:\QMK_MSYS\tmp\cc8s0jj5.debug.temp.o
 .debug_line    0x00010208       0xa2 C:\QMK_MSYS\tmp\ccGLUYho.debug.temp.o
 .debug_line    0x000102aa       0xb9 C:\QMK_MSYS\tmp\ccoFfdsH.debug.temp.o
 .debug_line    0x00010363       0xa2 C:\QMK_MSYS\tmp\ccWF6BUm.debug.temp.o
 .debug_line    0x00010405       0xa2 C:\QMK_MSYS\tmp\ccyaeabe.debug.temp.o
 .debug_line    0x000104a7       0x79 C:\QMK_MSYS\tmp\ccgEWBuj.debug.temp.o
 .debug_line    0x00010520       0x71 C:\QMK_MSYS\tmp\ccGCLfVP.debug.temp.o
 .debug_line    0x00010591       0x67 C:\QMK_MSYS\tmp\ccO1zI1b.debug.temp.o
 .debug_line    0x000105f8       0xa4 C:\QMK_MSYS\tmp\ccwFmL2x.debug.temp.o
 .debug_line    0x0001069c       0xce C:\QMK_MSYS\tmp\ccSymwj0.debug.temp.o
 .debug_line    0x0001076a       0xd4 C:\QMK_MSYS\tmp\ccKpiHB6.debug.temp.o
 .debug_line    0x0001083e       0x55 C:\QMK_MSYS\tmp\ccgfvfMj.debug.temp.o
 .debug_line    0x00010893      0x113 C:\QMK_MSYS\tmp\ccO3hIUH.debug.temp.o
 .debug_line    0x000109a6       0x71 C:\QMK_MSYS\tmp\ccS2x1X5.debug.temp.o
 .debug_line    0x00010a17       0x87 C:\QMK_MSYS\tmp\cc8qLvrs.debug.temp.o
 .debug_line    0x00010a9e       0x56 C:\QMK_MSYS\tmp\cck1d5rd.debug.temp.o
 .debug_line    0x00010af4       0xe7 C:\QMK_MSYS\tmp\ccsu478A.debug.temp.o
 .debug_line    0x00010bdb       0xdd C:\QMK_MSYS\tmp\ccaVzTzm.debug.temp.o
 .debug_line    0x00010cb8       0x82 C:\QMK_MSYS\tmp\ccG5hVhR.debug.temp.o
 .debug_line    0x00010d3a       0x67 C:\QMK_MSYS\tmp\cc2xLbM0.debug.temp.o
 .debug_line    0x00010da1       0x93 C:\QMK_MSYS\tmp\ccOue1MD.debug.temp.o
 .debug_line    0x00010e34       0x78 C:\QMK_MSYS\tmp\cccYmH44.debug.temp.o
 .debug_line    0x00010eac      0x5ce .build/obj_vessel_base/i2c_master.a(i2c_master.o)
 .debug_line    0x0001147a       0x4e c:/qmk_msys/mingw64/bin/../lib/gcc/arm-none-eabi/12.2.0/thumb/v7e-m+fp/hard\libgcc.a(_aeabi_uldivmod.o)
 .debug_line    0x000114c8      0x54b c:/qmk_msys/mingw64/bin/../lib/gcc/arm-none-eabi/12.2.0/thumb/v7e-m+fp/hard\libgcc.a(_udivmoddi4.o)
 .debug_line    0x00011a13       0x4a c:/qmk_msys/mingw64/bin/../lib/gcc/arm-none-eabi/12.2.0/thumb/v7e-m+fp/hard\libgcc.a(_dvmd_tls.o)
 .debug_line    0x00011a5d      0x2aa c:/qmk_msys/mingw64/bin/../lib/gcc/arm-none-eabi/12.2.0/../../../../arm-none-eabi/lib/thumb/v7e-m+fp/hard\libg_nano.a(libc_a-rand.o)
 .debug_line    0x00011d07       0xfb c:/qmk_msys/mingw64/bin/../lib/gcc/arm-none-eabi/12.2.0/../../../../arm-none-eabi/lib/thumb/v7e-m+fp/hard\libg_nano.a(libc_a-impure.o)
 .debug_line    0x00011e02       0xb9 c:/qmk_msys/mingw64/bin/../lib/gcc/arm-none-eabi/12.2.0/../../../../arm-none-eabi/lib/thumb/v7e-m+fp/hard\libg_nano.a(libc_a-memcpy.o)
 .debug_line    0x00011ebb      0x1aa c:/qmk_msys/mingw64/bin/../lib/gcc/arm-none-eabi/12.2.0/../../../../arm-none-eabi/lib/thumb/v7e-m+fp/hard\libg_nano.a(libc_a-assert.o)
 .debug_line    0x00012065      0x175 c:/qmk_msys/mingw64/bin/../lib/gcc/arm-none-eabi/12.2.0/../../../../arm-none-eabi/lib/thumb/v7e-m+fp/hard\libg_nano.a(libc_a-malloc.o)
 .debug_line    0x000121da      0x42a c:/qmk_msys/mingw64/bin/../lib/gcc/arm-none-eabi/12.2.0/../../../../arm-none-eabi/lib/thumb/v7e-m+fp/hard\libg_nano.a(libc_a-mallocr.o)
 .debug_line    0x00012604      0x162 c:/qmk_msys/mingw64/bin/../lib/gcc/arm-none-eabi/12.2.0/../../../../arm-none-eabi/lib/thumb/v7e-m+fp/hard\libg_nano.a(libc_a-mlock.o)
 .debug_line    0x00012766      0x1b4 c:/qmk_msys/mingw64/bin/../lib/gcc/arm-none-eabi/12.2.0/../../../../arm-none-eabi/lib/thumb/v7e-m+fp/hard\libg_nano.a(libc_a-fprintf.o)
 .debug_line    0x0001291a       0xd7 c:/qmk_msys/mingw64/bin/../lib/gcc/arm-none-eabi/12.2.0/../../../../arm-none-eabi/lib/thumb/v7e-m+fp/hard\libg_nano.a(libc_a-lock.o)
 .debug_line    0x000129f1      0x110 c:/qmk_msys/mingw64/bin/../lib/gcc/arm-none-eabi/12.2.0/../../../../arm-none-eabi/lib/thumb/v7e-m+fp/hard\libg_nano.a(libc_a-abort.o)
 .debug_line    0x00012b01      0x2d5 c:/qmk_msys/mingw64/bin/../lib/gcc/arm-none-eabi/12.2.0/../../../../arm-none-eabi/lib/thumb/v7e-m+fp/hard\libg_nano.a(libc_a-freer.o)
 .debug_line    0x00012dd6      0x6f0 c:/qmk_msys/mingw64/bin/../lib/gcc/arm-none-eabi/12.2.0/../../../../arm-none-eabi/lib/thumb/v7e-m+fp/hard\libg_nano.a(libc_a-nano-vfprintf.o)
 .debug_line    0x000134c6      0x752 c:/qmk_msys/mingw64/bin/../lib/gcc/arm-none-eabi/12.2.0/../../../../arm-none-eabi/lib/thumb/v7e-m+fp/hard\libg_nano.a(libc_a-nano-vfprintf_i.o)
 .debug_line    0x00013c18      0x63e c:/qmk_msys/mingw64/bin/../lib/gcc/arm-none-eabi/12.2.0/../../../../arm-none-eabi/lib/thumb/v7e-m+fp/hard\libg_nano.a(libc_a-findfp.o)
 .debug_line    0x00014256      0x60a c:/qmk_msys/mingw64/bin/../lib/gcc/arm-none-eabi/12.2.0/../../../../arm-none-eabi/lib/thumb/v7e-m+fp/hard\libg_nano.a(libc_a-fvwrite.o)
 .debug_line    0x00014860      0x1d4 c:/qmk_msys/mingw64/bin/../lib/gcc/arm-none-eabi/12.2.0/../../../../arm-none-eabi/lib/thumb/v7e-m+fp/hard\libg_nano.a(libc_a-fwalk.o)
 .debug_line    0x00014a34      0x235 c:/qmk_msys/mingw64/bin/../lib/gcc/arm-none-eabi/12.2.0/../../../../arm-none-eabi/lib/thumb/v7e-m+fp/hard\libg_nano.a(libc_a-stdio.o)
 .debug_line    0x00014c69      0x267 c:/qmk_msys/mingw64/bin/../lib/gcc/arm-none-eabi/12.2.0/../../../../arm-none-eabi/lib/thumb/v7e-m+fp/hard\libg_nano.a(libc_a-wbuf.o)
 .debug_line    0x00014ed0      0x2da c:/qmk_msys/mingw64/bin/../lib/gcc/arm-none-eabi/12.2.0/../../../../arm-none-eabi/lib/thumb/v7e-m+fp/hard\libg_nano.a(libc_a-wsetup.o)
 .debug_line    0x000151aa      0x207 c:/qmk_msys/mingw64/bin/../lib/gcc/arm-none-eabi/12.2.0/../../../../arm-none-eabi/lib/thumb/v7e-m+fp/hard\libg_nano.a(libc_a-memmove.o)
 .debug_line    0x000153b1      0x1cd c:/qmk_msys/mingw64/bin/../lib/gcc/arm-none-eabi/12.2.0/../../../../arm-none-eabi/lib/thumb/v7e-m+fp/hard\libg_nano.a(libc_a-memset.o)
 .debug_line    0x0001557e      0x61c c:/qmk_msys/mingw64/bin/../lib/gcc/arm-none-eabi/12.2.0/../../../../arm-none-eabi/lib/thumb/v7e-m+fp/hard\libg_nano.a(libc_a-signal.o)
 .debug_line    0x00015b9a      0x1cb c:/qmk_msys/mingw64/bin/../lib/gcc/arm-none-eabi/12.2.0/../../../../arm-none-eabi/lib/thumb/v7e-m+fp/hard\libg_nano.a(libc_a-signalr.o)
 .debug_line    0x00015d65       0x84 c:/qmk_msys/mingw64/bin/../lib/gcc/arm-none-eabi/12.2.0/../../../../arm-none-eabi/lib/thumb/v7e-m+fp/hard\libg_nano.a(libc_a-memchr.o)
 .debug_line    0x00015de9      0x1f8 c:/qmk_msys/mingw64/bin/../lib/gcc/arm-none-eabi/12.2.0/../../../../arm-none-eabi/lib/thumb/v7e-m+fp/hard\libg_nano.a(libc_a-reallocr.o)
 .debug_line    0x00015fe1      0x425 c:/qmk_msys/mingw64/bin/../lib/gcc/arm-none-eabi/12.2.0/../../../../arm-none-eabi/lib/thumb/v7e-m+fp/hard\libg_nano.a(libc_a-fflush.o)
 .debug_line    0x00016406      0x397 c:/qmk_msys/mingw64/bin/../lib/gcc/arm-none-eabi/12.2.0/../../../../arm-none-eabi/lib/thumb/v7e-m+fp/hard\libg_nano.a(libc_a-makebuf.o)
 .debug_line    0x0001679d      0x285 c:/qmk_msys/mingw64/bin/../lib/gcc/arm-none-eabi/12.2.0/../../../../arm-none-eabi/lib/thumb/v7e-m+fp/hard\libg_nano.a(libc_a-reent.o)
 .debug_line    0x00016a22      0x180 c:/qmk_msys/mingw64/bin/../lib/gcc/arm-none-eabi/12.2.0/../../../../arm-none-eabi/lib/thumb/v7e-m+fp/hard\libg_nano.a(libc_a-msizer.o)
 .debug_line    0x00016ba2      0x17d c:/qmk_msys/mingw64/bin/../lib/gcc/arm-none-eabi/12.2.0/../../../../arm-none-eabi/lib/thumb/v7e-m+fp/hard\libg_nano.a(libc_a-memcmp.o)

.debug_str      0x00000000    0x101aa
 .debug_str     0x00000000      0x241 C:\QMK_MSYS\tmp\cchXQqT6.ltrans0.ltrans.o
 .debug_str     0x00000000      0x30d C:\QMK_MSYS\tmp\ccMndiui.debug.temp.o
 .debug_str     0x00000000     0x4fe2 C:\QMK_MSYS\tmp\ccasmfpM.debug.temp.o
 .debug_str     0x00000000     0x4b74 C:\QMK_MSYS\tmp\cc4deco1.debug.temp.o
 .debug_str     0x00000000      0x3aa C:\QMK_MSYS\tmp\cccw8nFv.debug.temp.o
 .debug_str     0x00000000     0x4e0f C:\QMK_MSYS\tmp\ccOuT7LJ.debug.temp.o
 .debug_str     0x00000000      0x6a8 C:\QMK_MSYS\tmp\ccoa1H7X.debug.temp.o
 .debug_str     0x00000000     0x4636 C:\QMK_MSYS\tmp\cce2Mpnc.debug.temp.o
 .debug_str     0x00000000      0x5a0 C:\QMK_MSYS\tmp\ccmx6ARq.debug.temp.o
 .debug_str     0x00000000      0x51a C:\QMK_MSYS\tmp\ccs1VMhF.debug.temp.o
 .debug_str     0x00000000      0xaea C:\QMK_MSYS\tmp\cccoT1TT.debug.temp.o
 .debug_str     0x00000000     0x4bd4 C:\QMK_MSYS\tmp\ccYZ9Et8.debug.temp.o
 .debug_str     0x00000000     0x4343 C:\QMK_MSYS\tmp\ccKJyyMq.debug.temp.o
 .debug_str     0x00000000      0x249 C:\QMK_MSYS\tmp\ccOpoZr1.debug.temp.o
 .debug_str     0x00000000      0x20c C:\QMK_MSYS\tmp\cccVh7Rj.debug.temp.o
 .debug_str     0x00000000      0x264 C:\QMK_MSYS\tmp\ccYOVncC.debug.temp.o
 .debug_str     0x00000000      0x3d5 C:\QMK_MSYS\tmp\ccK2PbMU.debug.temp.o
 .debug_str     0x00000000      0x4f0 C:\QMK_MSYS\tmp\ccQSqSid.debug.temp.o
 .debug_str     0x00000000      0x39b C:\QMK_MSYS\tmp\ccSOvWMv.debug.temp.o
 .debug_str     0x00000000      0x29c C:\QMK_MSYS\tmp\ccgeiitO.debug.temp.o
 .debug_str     0x00000000      0x4ec C:\QMK_MSYS\tmp\cc8Mz186.debug.temp.o
 .debug_str     0x00000000      0x335 C:\QMK_MSYS\tmp\ccGPrLQo.debug.temp.o
 .debug_str     0x00000000      0x2a9 C:\QMK_MSYS\tmp\ccoBU7tG.debug.temp.o
 .debug_str     0x00000000      0x270 C:\QMK_MSYS\tmp\ccYssG5X.debug.temp.o
 .debug_str     0x00000000     0x1a84 C:\QMK_MSYS\tmp\cc84iN5f.debug.temp.o
 .debug_str     0x00000000      0x2bf C:\QMK_MSYS\tmp\ccaR4n0x.debug.temp.o
 .debug_str     0x00000000     0x4948 C:\QMK_MSYS\tmp\ccCUU38P.debug.temp.o
 .debug_str     0x00000000      0x20c C:\QMK_MSYS\tmp\ccmj5Wg8.debug.temp.o
 .debug_str     0x00000000      0x1fd C:\QMK_MSYS\tmp\cc8wVEiq.debug.temp.o
 .debug_str     0x00000000      0x8db C:\QMK_MSYS\tmp\ccSLYenH.debug.temp.o
 .debug_str     0x00000000     0x455e C:\QMK_MSYS\tmp\cc29RKnY.debug.temp.o
 .debug_str     0x00000000      0x489 C:\QMK_MSYS\tmp\ccqxbkCf.debug.temp.o
 .debug_str     0x00000000      0x358 C:\QMK_MSYS\tmp\ccUrqJ2w.debug.temp.o
 .debug_str     0x00000000      0x2ea C:\QMK_MSYS\tmp\ccG537mO.debug.temp.o
 .debug_str     0x00000000     0x43ee C:\QMK_MSYS\tmp\cccZZvV5.debug.temp.o
 .debug_str     0x00000000     0x443c C:\QMK_MSYS\tmp\cc8PJrsn.debug.temp.o
 .debug_str     0x00000000      0x6e0 C:\QMK_MSYS\tmp\ccIZWGTE.debug.temp.o
 .debug_str     0x00000000      0x351 C:\QMK_MSYS\tmp\cc8nUmrV.debug.temp.o
 .debug_str     0x00000000     0x4394 C:\QMK_MSYS\tmp\ccw6TSBs.debug.temp.o
 .debug_str     0x00000000      0xa6b C:\QMK_MSYS\tmp\ccsnFIeJ.debug.temp.o
 .debug_str     0x00000000      0x5ed C:\QMK_MSYS\tmp\ccaPNr4Z.debug.temp.o
 .debug_str     0x00000000     0x4407 C:\QMK_MSYS\tmp\cciuobZg.debug.temp.o
 .debug_str     0x00000000      0x38b C:\QMK_MSYS\tmp\ccsytQAB.debug.temp.o
 .debug_str     0x00000000      0x2d8 C:\QMK_MSYS\tmp\cc8HolSg.debug.temp.o
 .debug_str     0x00000000      0x21b C:\QMK_MSYS\tmp\ccWN46cC.debug.temp.o
 .debug_str     0x00000000      0x333 C:\QMK_MSYS\tmp\ccc9IsfX.debug.temp.o
 .debug_str     0x00000000      0x388 C:\QMK_MSYS\tmp\cc6gAfgi.debug.temp.o
 .debug_str     0x00000000      0x496 C:\QMK_MSYS\tmp\ccM929jC.debug.temp.o
 .debug_str     0x00000000     0x1670 C:\QMK_MSYS\tmp\ccm7LIlW.debug.temp.o
 .debug_str     0x00000000      0xf22 C:\QMK_MSYS\tmp\cc4YVBxg.debug.temp.o
 .debug_str     0x00000000      0xa7b C:\QMK_MSYS\tmp\cc4Z73GA.debug.temp.o
 .debug_str     0x00000000     0x122b C:\QMK_MSYS\tmp\cccb7ZLU.debug.temp.o
 .debug_str     0x00000000     0x10ff C:\QMK_MSYS\tmp\ccwICi4e.debug.temp.o
 .debug_str     0x00000000     0x123f C:\QMK_MSYS\tmp\ccMloLwz.debug.temp.o
 .debug_str     0x00000000      0x4a3 C:\QMK_MSYS\tmp\ccG4x2qc.debug.temp.o
 .debug_str     0x00000000      0x909 C:\QMK_MSYS\tmp\ccy1h0bw.debug.temp.o
 .debug_str     0x00000000      0x574 C:\QMK_MSYS\tmp\ccETjqTP.debug.temp.o
 .debug_str     0x00000000      0x85a C:\QMK_MSYS\tmp\cc4X53xM.debug.temp.o
 .debug_str     0x00000000      0x7c6 C:\QMK_MSYS\tmp\cc8s0jj5.debug.temp.o
 .debug_str     0x00000000      0x70e C:\QMK_MSYS\tmp\ccGLUYho.debug.temp.o
 .debug_str     0x00000000      0x8b9 C:\QMK_MSYS\tmp\ccoFfdsH.debug.temp.o
 .debug_str     0x00000000      0x6c3 C:\QMK_MSYS\tmp\ccWF6BUm.debug.temp.o
 .debug_str     0x00000000      0xde7 C:\QMK_MSYS\tmp\ccyaeabe.debug.temp.o
 .debug_str     0x00000000      0x33c C:\QMK_MSYS\tmp\ccgEWBuj.debug.temp.o
 .debug_str     0x00000000      0x247 C:\QMK_MSYS\tmp\ccGCLfVP.debug.temp.o
 .debug_str     0x00000000      0x338 C:\QMK_MSYS\tmp\ccO1zI1b.debug.temp.o
 .debug_str     0x00000000      0x613 C:\QMK_MSYS\tmp\ccwFmL2x.debug.temp.o
 .debug_str     0x00000000      0x927 C:\QMK_MSYS\tmp\ccSymwj0.debug.temp.o
 .debug_str     0x00000000      0xfda C:\QMK_MSYS\tmp\ccKpiHB6.debug.temp.o
 .debug_str     0x00000000      0x37e C:\QMK_MSYS\tmp\ccgfvfMj.debug.temp.o
 .debug_str     0x00000000      0x6e9 C:\QMK_MSYS\tmp\ccO3hIUH.debug.temp.o
 .debug_str     0x00000000      0x464 C:\QMK_MSYS\tmp\ccS2x1X5.debug.temp.o
 .debug_str     0x00000000      0x5be C:\QMK_MSYS\tmp\cc8qLvrs.debug.temp.o
 .debug_str     0x00000000      0x2fd C:\QMK_MSYS\tmp\cck1d5rd.debug.temp.o
 .debug_str     0x00000000     0x11a7 C:\QMK_MSYS\tmp\ccsu478A.debug.temp.o
 .debug_str     0x00000000     0x116f C:\QMK_MSYS\tmp\ccaVzTzm.debug.temp.o
 .debug_str     0x00000000      0x4a4 C:\QMK_MSYS\tmp\ccG5hVhR.debug.temp.o
 .debug_str     0x00000000      0x49f C:\QMK_MSYS\tmp\cc2xLbM0.debug.temp.o
 .debug_str     0x00000000      0x705 C:\QMK_MSYS\tmp\ccOue1MD.debug.temp.o
 .debug_str     0x00000000      0x767 C:\QMK_MSYS\tmp\cccYmH44.debug.temp.o
 .debug_str     0x00000000    0x101aa .build/obj_vessel_base/i2c_master.a(i2c_master.o)
                                0x986 (size before relaxing)
 .debug_str     0x000101aa       0xb4 c:/qmk_msys/mingw64/bin/../lib/gcc/arm-none-eabi/12.2.0/thumb/v7e-m+fp/hard\libgcc.a(_aeabi_uldivmod.o)
 .debug_str     0x000101aa      0x6bd c:/qmk_msys/mingw64/bin/../lib/gcc/arm-none-eabi/12.2.0/thumb/v7e-m+fp/hard\libgcc.a(_udivmoddi4.o)
 .debug_str     0x000101aa       0xd4 c:/qmk_msys/mingw64/bin/../lib/gcc/arm-none-eabi/12.2.0/thumb/v7e-m+fp/hard\libgcc.a(_dvmd_tls.o)
 .debug_str     0x000101aa      0x4cb c:/qmk_msys/mingw64/bin/../lib/gcc/arm-none-eabi/12.2.0/../../../../arm-none-eabi/lib/thumb/v7e-m+fp/hard\libg_nano.a(libc_a-rand.o)
 .debug_str     0x000101aa      0x4a7 c:/qmk_msys/mingw64/bin/../lib/gcc/arm-none-eabi/12.2.0/../../../../arm-none-eabi/lib/thumb/v7e-m+fp/hard\libg_nano.a(libc_a-impure.o)
 .debug_str     0x000101aa       0xa3 c:/qmk_msys/mingw64/bin/../lib/gcc/arm-none-eabi/12.2.0/../../../../arm-none-eabi/lib/thumb/v7e-m+fp/hard\libg_nano.a(libc_a-memcpy.o)
 .debug_str     0x000101aa      0x4e0 c:/qmk_msys/mingw64/bin/../lib/gcc/arm-none-eabi/12.2.0/../../../../arm-none-eabi/lib/thumb/v7e-m+fp/hard\libg_nano.a(libc_a-assert.o)
 .debug_str     0x000101aa      0x4cc c:/qmk_msys/mingw64/bin/../lib/gcc/arm-none-eabi/12.2.0/../../../../arm-none-eabi/lib/thumb/v7e-m+fp/hard\libg_nano.a(libc_a-malloc.o)
 .debug_str     0x000101aa      0x588 c:/qmk_msys/mingw64/bin/../lib/gcc/arm-none-eabi/12.2.0/../../../../arm-none-eabi/lib/thumb/v7e-m+fp/hard\libg_nano.a(libc_a-mallocr.o)
 .debug_str     0x000101aa      0x529 c:/qmk_msys/mingw64/bin/../lib/gcc/arm-none-eabi/12.2.0/../../../../arm-none-eabi/lib/thumb/v7e-m+fp/hard\libg_nano.a(libc_a-mlock.o)
 .debug_str     0x000101aa      0x4e5 c:/qmk_msys/mingw64/bin/../lib/gcc/arm-none-eabi/12.2.0/../../../../arm-none-eabi/lib/thumb/v7e-m+fp/hard\libg_nano.a(libc_a-fprintf.o)
 .debug_str     0x000101aa      0x2fa c:/qmk_msys/mingw64/bin/../lib/gcc/arm-none-eabi/12.2.0/../../../../arm-none-eabi/lib/thumb/v7e-m+fp/hard\libg_nano.a(libc_a-lock.o)
 .debug_str     0x000101aa      0x18a c:/qmk_msys/mingw64/bin/../lib/gcc/arm-none-eabi/12.2.0/../../../../arm-none-eabi/lib/thumb/v7e-m+fp/hard\libg_nano.a(libc_a-abort.o)
 .debug_str     0x000101aa      0x527 c:/qmk_msys/mingw64/bin/../lib/gcc/arm-none-eabi/12.2.0/../../../../arm-none-eabi/lib/thumb/v7e-m+fp/hard\libg_nano.a(libc_a-freer.o)
 .debug_str     0x000101aa      0x858 c:/qmk_msys/mingw64/bin/../lib/gcc/arm-none-eabi/12.2.0/../../../../arm-none-eabi/lib/thumb/v7e-m+fp/hard\libg_nano.a(libc_a-nano-vfprintf.o)
 .debug_str     0x000101aa      0x786 c:/qmk_msys/mingw64/bin/../lib/gcc/arm-none-eabi/12.2.0/../../../../arm-none-eabi/lib/thumb/v7e-m+fp/hard\libg_nano.a(libc_a-nano-vfprintf_i.o)
 .debug_str     0x000101aa      0x72a c:/qmk_msys/mingw64/bin/../lib/gcc/arm-none-eabi/12.2.0/../../../../arm-none-eabi/lib/thumb/v7e-m+fp/hard\libg_nano.a(libc_a-findfp.o)
 .debug_str     0x000101aa      0x54b c:/qmk_msys/mingw64/bin/../lib/gcc/arm-none-eabi/12.2.0/../../../../arm-none-eabi/lib/thumb/v7e-m+fp/hard\libg_nano.a(libc_a-fvwrite.o)
 .debug_str     0x000101aa      0x4b7 c:/qmk_msys/mingw64/bin/../lib/gcc/arm-none-eabi/12.2.0/../../../../arm-none-eabi/lib/thumb/v7e-m+fp/hard\libg_nano.a(libc_a-fwalk.o)
 .debug_str     0x000101aa      0x514 c:/qmk_msys/mingw64/bin/../lib/gcc/arm-none-eabi/12.2.0/../../../../arm-none-eabi/lib/thumb/v7e-m+fp/hard\libg_nano.a(libc_a-stdio.o)
 .debug_str     0x000101aa      0x4dd c:/qmk_msys/mingw64/bin/../lib/gcc/arm-none-eabi/12.2.0/../../../../arm-none-eabi/lib/thumb/v7e-m+fp/hard\libg_nano.a(libc_a-wbuf.o)
 .debug_str     0x000101aa      0x4d8 c:/qmk_msys/mingw64/bin/../lib/gcc/arm-none-eabi/12.2.0/../../../../arm-none-eabi/lib/thumb/v7e-m+fp/hard\libg_nano.a(libc_a-wsetup.o)
 .debug_str     0x000101aa      0x1ba c:/qmk_msys/mingw64/bin/../lib/gcc/arm-none-eabi/12.2.0/../../../../arm-none-eabi/lib/thumb/v7e-m+fp/hard\libg_nano.a(libc_a-memmove.o)
 .debug_str     0x000101aa      0x19b c:/qmk_msys/mingw64/bin/../lib/gcc/arm-none-eabi/12.2.0/../../../../arm-none-eabi/lib/thumb/v7e-m+fp/hard\libg_nano.a(libc_a-memset.o)
 .debug_str     0x000101aa      0x52e c:/qmk_msys/mingw64/bin/../lib/gcc/arm-none-eabi/12.2.0/../../../../arm-none-eabi/lib/thumb/v7e-m+fp/hard\libg_nano.a(libc_a-signal.o)
 .debug_str     0x000101aa      0x4c3 c:/qmk_msys/mingw64/bin/../lib/gcc/arm-none-eabi/12.2.0/../../../../arm-none-eabi/lib/thumb/v7e-m+fp/hard\libg_nano.a(libc_a-signalr.o)
 .debug_str     0x000101aa       0x95 c:/qmk_msys/mingw64/bin/../lib/gcc/arm-none-eabi/12.2.0/../../../../arm-none-eabi/lib/thumb/v7e-m+fp/hard\libg_nano.a(libc_a-memchr.o)
 .debug_str     0x000101aa      0x51d c:/qmk_msys/mingw64/bin/../lib/gcc/arm-none-eabi/12.2.0/../../../../arm-none-eabi/lib/thumb/v7e-m+fp/hard\libg_nano.a(libc_a-reallocr.o)
 .debug_str     0x000101aa      0x572 c:/qmk_msys/mingw64/bin/../lib/gcc/arm-none-eabi/12.2.0/../../../../arm-none-eabi/lib/thumb/v7e-m+fp/hard\libg_nano.a(libc_a-fflush.o)
 .debug_str     0x000101aa      0x63a c:/qmk_msys/mingw64/bin/../lib/gcc/arm-none-eabi/12.2.0/../../../../arm-none-eabi/lib/thumb/v7e-m+fp/hard\libg_nano.a(libc_a-makebuf.o)
 .debug_str     0x000101aa      0x4c6 c:/qmk_msys/mingw64/bin/../lib/gcc/arm-none-eabi/12.2.0/../../../../arm-none-eabi/lib/thumb/v7e-m+fp/hard\libg_nano.a(libc_a-reent.o)
 .debug_str     0x000101aa      0x4f0 c:/qmk_msys/mingw64/bin/../lib/gcc/arm-none-eabi/12.2.0/../../../../arm-none-eabi/lib/thumb/v7e-m+fp/hard\libg_nano.a(libc_a-msizer.o)
 .debug_str     0x000101aa      0x187 c:/qmk_msys/mingw64/bin/../lib/gcc/arm-none-eabi/12.2.0/../../../../arm-none-eabi/lib/thumb/v7e-m+fp/hard\libg_nano.a(libc_a-memcmp.o)

.comment        0x00000000       0x12
 .comment       0x00000000       0x13 C:\QMK_MSYS\tmp\cchXQqT6.ltrans0.ltrans.o
 .comment       0x00000000       0x12 .build/obj_vessel_base/i2c_master.a(i2c_master.o)
                                 0x13 (size before relaxing)
 .comment       0x00000012       0x13 c:/qmk_msys/mingw64/bin/../lib/gcc/arm-none-eabi/12.2.0/thumb/v7e-m+fp/hard\libgcc.a(_udivmoddi4.o)
 .comment       0x00000012       0x13 c:/qmk_msys/mingw64/bin/../lib/gcc/arm-none-eabi/12.2.0/../../../../arm-none-eabi/lib/thumb/v7e-m+fp/hard\libg_nano.a(libc_a-rand.o)
 .comment       0x00000012       0x13 c:/qmk_msys/mingw64/bin/../lib/gcc/arm-none-eabi/12.2.0/../../../../arm-none-eabi/lib/thumb/v7e-m+fp/hard\libg_nano.a(libc_a-impure.o)
 .comment       0x00000012       0x13 c:/qmk_msys/mingw64/bin/../lib/gcc/arm-none-eabi/12.2.0/../../../../arm-none-eabi/lib/thumb/v7e-m+fp/hard\libg_nano.a(libc_a-assert.o)
 .comment       0x00000012       0x13 c:/qmk_msys/mingw64/bin/../lib/gcc/arm-none-eabi/12.2.0/../../../../arm-none-eabi/lib/thumb/v7e-m+fp/hard\libg_nano.a(libc_a-malloc.o)
 .comment       0x00000012       0x13 c:/qmk_msys/mingw64/bin/../lib/gcc/arm-none-eabi/12.2.0/../../../../arm-none-eabi/lib/thumb/v7e-m+fp/hard\libg_nano.a(libc_a-mallocr.o)
 .comment       0x00000012       0x13 c:/qmk_msys/mingw64/bin/../lib/gcc/arm-none-eabi/12.2.0/../../../../arm-none-eabi/lib/thumb/v7e-m+fp/hard\libg_nano.a(libc_a-mlock.o)
 .comment       0x00000012       0x13 c:/qmk_msys/mingw64/bin/../lib/gcc/arm-none-eabi/12.2.0/../../../../arm-none-eabi/lib/thumb/v7e-m+fp/hard\libg_nano.a(libc_a-fprintf.o)
 .comment       0x00000012       0x13 c:/qmk_msys/mingw64/bin/../lib/gcc/arm-none-eabi/12.2.0/../../../../arm-none-eabi/lib/thumb/v7e-m+fp/hard\libg_nano.a(libc_a-lock.o)
 .comment       0x00000012       0x13 c:/qmk_msys/mingw64/bin/../lib/gcc/arm-none-eabi/12.2.0/../../../../arm-none-eabi/lib/thumb/v7e-m+fp/hard\libg_nano.a(libc_a-abort.o)
 .comment       0x00000012       0x13 c:/qmk_msys/mingw64/bin/../lib/gcc/arm-none-eabi/12.2.0/../../../../arm-none-eabi/lib/thumb/v7e-m+fp/hard\libg_nano.a(libc_a-freer.o)
 .comment       0x00000012       0x13 c:/qmk_msys/mingw64/bin/../lib/gcc/arm-none-eabi/12.2.0/../../../../arm-none-eabi/lib/thumb/v7e-m+fp/hard\libg_nano.a(libc_a-nano-vfprintf.o)
 .comment       0x00000012       0x13 c:/qmk_msys/mingw64/bin/../lib/gcc/arm-none-eabi/12.2.0/../../../../arm-none-eabi/lib/thumb/v7e-m+fp/hard\libg_nano.a(libc_a-nano-vfprintf_i.o)
 .comment       0x00000012       0x13 c:/qmk_msys/mingw64/bin/../lib/gcc/arm-none-eabi/12.2.0/../../../../arm-none-eabi/lib/thumb/v7e-m+fp/hard\libg_nano.a(libc_a-findfp.o)
 .comment       0x00000012       0x13 c:/qmk_msys/mingw64/bin/../lib/gcc/arm-none-eabi/12.2.0/../../../../arm-none-eabi/lib/thumb/v7e-m+fp/hard\libg_nano.a(libc_a-fvwrite.o)
 .comment       0x00000012       0x13 c:/qmk_msys/mingw64/bin/../lib/gcc/arm-none-eabi/12.2.0/../../../../arm-none-eabi/lib/thumb/v7e-m+fp/hard\libg_nano.a(libc_a-fwalk.o)
 .comment       0x00000012       0x13 c:/qmk_msys/mingw64/bin/../lib/gcc/arm-none-eabi/12.2.0/../../../../arm-none-eabi/lib/thumb/v7e-m+fp/hard\libg_nano.a(libc_a-stdio.o)
 .comment       0x00000012       0x13 c:/qmk_msys/mingw64/bin/../lib/gcc/arm-none-eabi/12.2.0/../../../../arm-none-eabi/lib/thumb/v7e-m+fp/hard\libg_nano.a(libc_a-wbuf.o)
 .comment       0x00000012       0x13 c:/qmk_msys/mingw64/bin/../lib/gcc/arm-none-eabi/12.2.0/../../../../arm-none-eabi/lib/thumb/v7e-m+fp/hard\libg_nano.a(libc_a-wsetup.o)
 .comment       0x00000012       0x13 c:/qmk_msys/mingw64/bin/../lib/gcc/arm-none-eabi/12.2.0/../../../../arm-none-eabi/lib/thumb/v7e-m+fp/hard\libg_nano.a(libc_a-memmove.o)
 .comment       0x00000012       0x13 c:/qmk_msys/mingw64/bin/../lib/gcc/arm-none-eabi/12.2.0/../../../../arm-none-eabi/lib/thumb/v7e-m+fp/hard\libg_nano.a(libc_a-memset.o)
 .comment       0x00000012       0x13 c:/qmk_msys/mingw64/bin/../lib/gcc/arm-none-eabi/12.2.0/../../../../arm-none-eabi/lib/thumb/v7e-m+fp/hard\libg_nano.a(libc_a-signal.o)
 .comment       0x00000012       0x13 c:/qmk_msys/mingw64/bin/../lib/gcc/arm-none-eabi/12.2.0/../../../../arm-none-eabi/lib/thumb/v7e-m+fp/hard\libg_nano.a(libc_a-signalr.o)
 .comment       0x00000012       0x13 c:/qmk_msys/mingw64/bin/../lib/gcc/arm-none-eabi/12.2.0/../../../../arm-none-eabi/lib/thumb/v7e-m+fp/hard\libg_nano.a(libc_a-reallocr.o)
 .comment       0x00000012       0x13 c:/qmk_msys/mingw64/bin/../lib/gcc/arm-none-eabi/12.2.0/../../../../arm-none-eabi/lib/thumb/v7e-m+fp/hard\libg_nano.a(libc_a-fflush.o)
 .comment       0x00000012       0x13 c:/qmk_msys/mingw64/bin/../lib/gcc/arm-none-eabi/12.2.0/../../../../arm-none-eabi/lib/thumb/v7e-m+fp/hard\libg_nano.a(libc_a-makebuf.o)
 .comment       0x00000012       0x13 c:/qmk_msys/mingw64/bin/../lib/gcc/arm-none-eabi/12.2.0/../../../../arm-none-eabi/lib/thumb/v7e-m+fp/hard\libg_nano.a(libc_a-reent.o)
 .comment       0x00000012       0x13 c:/qmk_msys/mingw64/bin/../lib/gcc/arm-none-eabi/12.2.0/../../../../arm-none-eabi/lib/thumb/v7e-m+fp/hard\libg_nano.a(libc_a-msizer.o)
 .comment       0x00000012       0x13 c:/qmk_msys/mingw64/bin/../lib/gcc/arm-none-eabi/12.2.0/../../../../arm-none-eabi/lib/thumb/v7e-m+fp/hard\libg_nano.a(libc_a-memcmp.o)

.ARM.attributes
                0x00000000       0x32
 .ARM.attributes
                0x00000000       0x30 C:\QMK_MSYS\tmp\cchXQqT6.ltrans0.ltrans.o
 .ARM.attributes
                0x00000030       0x32 .build/obj_vessel_base/i2c_master.a(i2c_master.o)
 .ARM.attributes
                0x00000062       0x25 .build/obj_vessel_base/./lib/chibios/os/common/startup/ARMCMx/compilers/GCC/crt0_v7m.o
 .ARM.attributes
                0x00000087       0x25 .build/obj_vessel_base/./lib/chibios/os/common/startup/ARMCMx/compilers/GCC/vectors.o
 .ARM.attributes
                0x000000ac       0x25 .build/obj_vessel_base/./lib/chibios/os/common/ports/ARMv7-M/compilers/GCC/chcoreasm.o
 .ARM.attributes
                0x000000d1       0x22 c:/qmk_msys/mingw64/bin/../lib/gcc/arm-none-eabi/12.2.0/thumb/v7e-m+fp/hard\libgcc.a(_aeabi_uldivmod.o)
 .ARM.attributes
                0x000000f3       0x34 c:/qmk_msys/mingw64/bin/../lib/gcc/arm-none-eabi/12.2.0/thumb/v7e-m+fp/hard\libgcc.a(_udivmoddi4.o)
 .ARM.attributes
                0x00000127       0x22 c:/qmk_msys/mingw64/bin/../lib/gcc/arm-none-eabi/12.2.0/thumb/v7e-m+fp/hard\libgcc.a(_dvmd_tls.o)
 .ARM.attributes
                0x00000149       0x34 c:/qmk_msys/mingw64/bin/../lib/gcc/arm-none-eabi/12.2.0/../../../../arm-none-eabi/lib/thumb/v7e-m+fp/hard\libg_nano.a(libc_a-rand.o)
 .ARM.attributes
                0x0000017d       0x34 c:/qmk_msys/mingw64/bin/../lib/gcc/arm-none-eabi/12.2.0/../../../../arm-none-eabi/lib/thumb/v7e-m+fp/hard\libg_nano.a(libc_a-impure.o)
 .ARM.attributes
                0x000001b1       0x20 c:/qmk_msys/mingw64/bin/../lib/gcc/arm-none-eabi/12.2.0/../../../../arm-none-eabi/lib/thumb/v7e-m+fp/hard\libg_nano.a(libc_a-memcpy.o)
 .ARM.attributes
                0x000001d1       0x34 c:/qmk_msys/mingw64/bin/../lib/gcc/arm-none-eabi/12.2.0/../../../../arm-none-eabi/lib/thumb/v7e-m+fp/hard\libg_nano.a(libc_a-assert.o)
 .ARM.attributes
                0x00000205       0x34 c:/qmk_msys/mingw64/bin/../lib/gcc/arm-none-eabi/12.2.0/../../../../arm-none-eabi/lib/thumb/v7e-m+fp/hard\libg_nano.a(libc_a-malloc.o)
 .ARM.attributes
                0x00000239       0x34 c:/qmk_msys/mingw64/bin/../lib/gcc/arm-none-eabi/12.2.0/../../../../arm-none-eabi/lib/thumb/v7e-m+fp/hard\libg_nano.a(libc_a-mallocr.o)
 .ARM.attributes
                0x0000026d       0x34 c:/qmk_msys/mingw64/bin/../lib/gcc/arm-none-eabi/12.2.0/../../../../arm-none-eabi/lib/thumb/v7e-m+fp/hard\libg_nano.a(libc_a-mlock.o)
 .ARM.attributes
                0x000002a1       0x34 c:/qmk_msys/mingw64/bin/../lib/gcc/arm-none-eabi/12.2.0/../../../../arm-none-eabi/lib/thumb/v7e-m+fp/hard\libg_nano.a(libc_a-fprintf.o)
 .ARM.attributes
                0x000002d5       0x34 c:/qmk_msys/mingw64/bin/../lib/gcc/arm-none-eabi/12.2.0/../../../../arm-none-eabi/lib/thumb/v7e-m+fp/hard\libg_nano.a(libc_a-lock.o)
 .ARM.attributes
                0x00000309       0x34 c:/qmk_msys/mingw64/bin/../lib/gcc/arm-none-eabi/12.2.0/../../../../arm-none-eabi/lib/thumb/v7e-m+fp/hard\libg_nano.a(libc_a-abort.o)
 .ARM.attributes
                0x0000033d       0x34 c:/qmk_msys/mingw64/bin/../lib/gcc/arm-none-eabi/12.2.0/../../../../arm-none-eabi/lib/thumb/v7e-m+fp/hard\libg_nano.a(libc_a-freer.o)
 .ARM.attributes
                0x00000371       0x34 c:/qmk_msys/mingw64/bin/../lib/gcc/arm-none-eabi/12.2.0/../../../../arm-none-eabi/lib/thumb/v7e-m+fp/hard\libg_nano.a(libc_a-nano-vfprintf.o)
 .ARM.attributes
                0x000003a5       0x34 c:/qmk_msys/mingw64/bin/../lib/gcc/arm-none-eabi/12.2.0/../../../../arm-none-eabi/lib/thumb/v7e-m+fp/hard\libg_nano.a(libc_a-nano-vfprintf_i.o)
 .ARM.attributes
                0x000003d9       0x34 c:/qmk_msys/mingw64/bin/../lib/gcc/arm-none-eabi/12.2.0/../../../../arm-none-eabi/lib/thumb/v7e-m+fp/hard\libg_nano.a(libc_a-findfp.o)
 .ARM.attributes
                0x0000040d       0x34 c:/qmk_msys/mingw64/bin/../lib/gcc/arm-none-eabi/12.2.0/../../../../arm-none-eabi/lib/thumb/v7e-m+fp/hard\libg_nano.a(libc_a-fvwrite.o)
 .ARM.attributes
                0x00000441       0x34 c:/qmk_msys/mingw64/bin/../lib/gcc/arm-none-eabi/12.2.0/../../../../arm-none-eabi/lib/thumb/v7e-m+fp/hard\libg_nano.a(libc_a-fwalk.o)
 .ARM.attributes
                0x00000475       0x34 c:/qmk_msys/mingw64/bin/../lib/gcc/arm-none-eabi/12.2.0/../../../../arm-none-eabi/lib/thumb/v7e-m+fp/hard\libg_nano.a(libc_a-stdio.o)
 .ARM.attributes
                0x000004a9       0x34 c:/qmk_msys/mingw64/bin/../lib/gcc/arm-none-eabi/12.2.0/../../../../arm-none-eabi/lib/thumb/v7e-m+fp/hard\libg_nano.a(libc_a-wbuf.o)
 .ARM.attributes
                0x000004dd       0x34 c:/qmk_msys/mingw64/bin/../lib/gcc/arm-none-eabi/12.2.0/../../../../arm-none-eabi/lib/thumb/v7e-m+fp/hard\libg_nano.a(libc_a-wsetup.o)
 .ARM.attributes
                0x00000511       0x34 c:/qmk_msys/mingw64/bin/../lib/gcc/arm-none-eabi/12.2.0/../../../../arm-none-eabi/lib/thumb/v7e-m+fp/hard\libg_nano.a(libc_a-memmove.o)
 .ARM.attributes
                0x00000545       0x34 c:/qmk_msys/mingw64/bin/../lib/gcc/arm-none-eabi/12.2.0/../../../../arm-none-eabi/lib/thumb/v7e-m+fp/hard\libg_nano.a(libc_a-memset.o)
 .ARM.attributes
                0x00000579       0x34 c:/qmk_msys/mingw64/bin/../lib/gcc/arm-none-eabi/12.2.0/../../../../arm-none-eabi/lib/thumb/v7e-m+fp/hard\libg_nano.a(libc_a-signal.o)
 .ARM.attributes
                0x000005ad       0x34 c:/qmk_msys/mingw64/bin/../lib/gcc/arm-none-eabi/12.2.0/../../../../arm-none-eabi/lib/thumb/v7e-m+fp/hard\libg_nano.a(libc_a-signalr.o)
 .ARM.attributes
                0x000005e1       0x1c c:/qmk_msys/mingw64/bin/../lib/gcc/arm-none-eabi/12.2.0/../../../../arm-none-eabi/lib/thumb/v7e-m+fp/hard\libg_nano.a(libc_a-memchr.o)
 .ARM.attributes
                0x000005fd       0x34 c:/qmk_msys/mingw64/bin/../lib/gcc/arm-none-eabi/12.2.0/../../../../arm-none-eabi/lib/thumb/v7e-m+fp/hard\libg_nano.a(libc_a-reallocr.o)
 .ARM.attributes
                0x00000631       0x34 c:/qmk_msys/mingw64/bin/../lib/gcc/arm-none-eabi/12.2.0/../../../../arm-none-eabi/lib/thumb/v7e-m+fp/hard\libg_nano.a(libc_a-fflush.o)
 .ARM.attributes
                0x00000665       0x34 c:/qmk_msys/mingw64/bin/../lib/gcc/arm-none-eabi/12.2.0/../../../../arm-none-eabi/lib/thumb/v7e-m+fp/hard\libg_nano.a(libc_a-makebuf.o)
 .ARM.attributes
                0x00000699       0x34 c:/qmk_msys/mingw64/bin/../lib/gcc/arm-none-eabi/12.2.0/../../../../arm-none-eabi/lib/thumb/v7e-m+fp/hard\libg_nano.a(libc_a-reent.o)
 .ARM.attributes
                0x000006cd       0x34 c:/qmk_msys/mingw64/bin/../lib/gcc/arm-none-eabi/12.2.0/../../../../arm-none-eabi/lib/thumb/v7e-m+fp/hard\libg_nano.a(libc_a-msizer.o)
 .ARM.attributes
                0x00000701       0x34 c:/qmk_msys/mingw64/bin/../lib/gcc/arm-none-eabi/12.2.0/../../../../arm-none-eabi/lib/thumb/v7e-m+fp/hard\libg_nano.a(libc_a-memcmp.o)

.debug_frame    0x00000000     0x27e4
 .debug_frame   0x00000000     0x1bec C:\QMK_MSYS\tmp\cchXQqT6.ltrans0.ltrans.o
 .debug_frame   0x00001bec      0x178 .build/obj_vessel_base/i2c_master.a(i2c_master.o)
 .debug_frame   0x00001d64       0x2c c:/qmk_msys/mingw64/bin/../lib/gcc/arm-none-eabi/12.2.0/thumb/v7e-m+fp/hard\libgcc.a(_aeabi_uldivmod.o)
 .debug_frame   0x00001d90       0x34 c:/qmk_msys/mingw64/bin/../lib/gcc/arm-none-eabi/12.2.0/thumb/v7e-m+fp/hard\libgcc.a(_udivmoddi4.o)
 .debug_frame   0x00001dc4       0x44 c:/qmk_msys/mingw64/bin/../lib/gcc/arm-none-eabi/12.2.0/../../../../arm-none-eabi/lib/thumb/v7e-m+fp/hard\libg_nano.a(libc_a-rand.o)
 .debug_frame   0x00001e08       0x40 c:/qmk_msys/mingw64/bin/../lib/gcc/arm-none-eabi/12.2.0/../../../../arm-none-eabi/lib/thumb/v7e-m+fp/hard\libg_nano.a(libc_a-assert.o)
 .debug_frame   0x00001e48       0x30 c:/qmk_msys/mingw64/bin/../lib/gcc/arm-none-eabi/12.2.0/../../../../arm-none-eabi/lib/thumb/v7e-m+fp/hard\libg_nano.a(libc_a-malloc.o)
 .debug_frame   0x00001e78       0x5c c:/qmk_msys/mingw64/bin/../lib/gcc/arm-none-eabi/12.2.0/../../../../arm-none-eabi/lib/thumb/v7e-m+fp/hard\libg_nano.a(libc_a-mallocr.o)
 .debug_frame   0x00001ed4       0x30 c:/qmk_msys/mingw64/bin/../lib/gcc/arm-none-eabi/12.2.0/../../../../arm-none-eabi/lib/thumb/v7e-m+fp/hard\libg_nano.a(libc_a-mlock.o)
 .debug_frame   0x00001f04       0x70 c:/qmk_msys/mingw64/bin/../lib/gcc/arm-none-eabi/12.2.0/../../../../arm-none-eabi/lib/thumb/v7e-m+fp/hard\libg_nano.a(libc_a-fprintf.o)
 .debug_frame   0x00001f74       0xb0 c:/qmk_msys/mingw64/bin/../lib/gcc/arm-none-eabi/12.2.0/../../../../arm-none-eabi/lib/thumb/v7e-m+fp/hard\libg_nano.a(libc_a-lock.o)
 .debug_frame   0x00002024       0x28 c:/qmk_msys/mingw64/bin/../lib/gcc/arm-none-eabi/12.2.0/../../../../arm-none-eabi/lib/thumb/v7e-m+fp/hard\libg_nano.a(libc_a-abort.o)
 .debug_frame   0x0000204c       0x58 c:/qmk_msys/mingw64/bin/../lib/gcc/arm-none-eabi/12.2.0/../../../../arm-none-eabi/lib/thumb/v7e-m+fp/hard\libg_nano.a(libc_a-freer.o)
 .debug_frame   0x000020a4       0xbc c:/qmk_msys/mingw64/bin/../lib/gcc/arm-none-eabi/12.2.0/../../../../arm-none-eabi/lib/thumb/v7e-m+fp/hard\libg_nano.a(libc_a-nano-vfprintf.o)
 .debug_frame   0x00002160       0x6c c:/qmk_msys/mingw64/bin/../lib/gcc/arm-none-eabi/12.2.0/../../../../arm-none-eabi/lib/thumb/v7e-m+fp/hard\libg_nano.a(libc_a-nano-vfprintf_i.o)
 .debug_frame   0x000021cc      0x13c c:/qmk_msys/mingw64/bin/../lib/gcc/arm-none-eabi/12.2.0/../../../../arm-none-eabi/lib/thumb/v7e-m+fp/hard\libg_nano.a(libc_a-findfp.o)
 .debug_frame   0x00002308       0x64 c:/qmk_msys/mingw64/bin/../lib/gcc/arm-none-eabi/12.2.0/../../../../arm-none-eabi/lib/thumb/v7e-m+fp/hard\libg_nano.a(libc_a-fvwrite.o)
 .debug_frame   0x0000236c       0x34 c:/qmk_msys/mingw64/bin/../lib/gcc/arm-none-eabi/12.2.0/../../../../arm-none-eabi/lib/thumb/v7e-m+fp/hard\libg_nano.a(libc_a-fwalk.o)
 .debug_frame   0x000023a0       0x8c c:/qmk_msys/mingw64/bin/../lib/gcc/arm-none-eabi/12.2.0/../../../../arm-none-eabi/lib/thumb/v7e-m+fp/hard\libg_nano.a(libc_a-stdio.o)
 .debug_frame   0x0000242c       0x4c c:/qmk_msys/mingw64/bin/../lib/gcc/arm-none-eabi/12.2.0/../../../../arm-none-eabi/lib/thumb/v7e-m+fp/hard\libg_nano.a(libc_a-wbuf.o)
 .debug_frame   0x00002478       0x2c c:/qmk_msys/mingw64/bin/../lib/gcc/arm-none-eabi/12.2.0/../../../../arm-none-eabi/lib/thumb/v7e-m+fp/hard\libg_nano.a(libc_a-wsetup.o)
 .debug_frame   0x000024a4       0x40 c:/qmk_msys/mingw64/bin/../lib/gcc/arm-none-eabi/12.2.0/../../../../arm-none-eabi/lib/thumb/v7e-m+fp/hard\libg_nano.a(libc_a-memmove.o)
 .debug_frame   0x000024e4       0x2c c:/qmk_msys/mingw64/bin/../lib/gcc/arm-none-eabi/12.2.0/../../../../arm-none-eabi/lib/thumb/v7e-m+fp/hard\libg_nano.a(libc_a-memset.o)
 .debug_frame   0x00002510      0x118 c:/qmk_msys/mingw64/bin/../lib/gcc/arm-none-eabi/12.2.0/../../../../arm-none-eabi/lib/thumb/v7e-m+fp/hard\libg_nano.a(libc_a-signal.o)
 .debug_frame   0x00002628       0x3c c:/qmk_msys/mingw64/bin/../lib/gcc/arm-none-eabi/12.2.0/../../../../arm-none-eabi/lib/thumb/v7e-m+fp/hard\libg_nano.a(libc_a-signalr.o)
 .debug_frame   0x00002664       0x38 c:/qmk_msys/mingw64/bin/../lib/gcc/arm-none-eabi/12.2.0/../../../../arm-none-eabi/lib/thumb/v7e-m+fp/hard\libg_nano.a(libc_a-reallocr.o)
 .debug_frame   0x0000269c       0x5c c:/qmk_msys/mingw64/bin/../lib/gcc/arm-none-eabi/12.2.0/../../../../arm-none-eabi/lib/thumb/v7e-m+fp/hard\libg_nano.a(libc_a-fflush.o)
 .debug_frame   0x000026f8       0x60 c:/qmk_msys/mingw64/bin/../lib/gcc/arm-none-eabi/12.2.0/../../../../arm-none-eabi/lib/thumb/v7e-m+fp/hard\libg_nano.a(libc_a-makebuf.o)
 .debug_frame   0x00002758       0x40 c:/qmk_msys/mingw64/bin/../lib/gcc/arm-none-eabi/12.2.0/../../../../arm-none-eabi/lib/thumb/v7e-m+fp/hard\libg_nano.a(libc_a-reent.o)
 .debug_frame   0x00002798       0x20 c:/qmk_msys/mingw64/bin/../lib/gcc/arm-none-eabi/12.2.0/../../../../arm-none-eabi/lib/thumb/v7e-m+fp/hard\libg_nano.a(libc_a-msizer.o)
 .debug_frame   0x000027b8       0x2c c:/qmk_msys/mingw64/bin/../lib/gcc/arm-none-eabi/12.2.0/../../../../arm-none-eabi/lib/thumb/v7e-m+fp/hard\libg_nano.a(libc_a-memcmp.o)

.debug_line_str
                0x00000000     0x1d0b
 .debug_line_str
                0x00000000      0x15f C:\QMK_MSYS\tmp\ccMndiui.debug.temp.o
 .debug_line_str
                0x00000000      0x278 C:\QMK_MSYS\tmp\ccasmfpM.debug.temp.o
 .debug_line_str
                0x00000000      0x26c C:\QMK_MSYS\tmp\cc4deco1.debug.temp.o
 .debug_line_str
                0x00000000       0xff C:\QMK_MSYS\tmp\cccw8nFv.debug.temp.o
 .debug_line_str
                0x00000000      0x1ec C:\QMK_MSYS\tmp\ccOuT7LJ.debug.temp.o
 .debug_line_str
                0x00000000      0x157 C:\QMK_MSYS\tmp\ccoa1H7X.debug.temp.o
 .debug_line_str
                0x00000000      0x108 C:\QMK_MSYS\tmp\cce2Mpnc.debug.temp.o
 .debug_line_str
                0x00000000      0x186 C:\QMK_MSYS\tmp\ccmx6ARq.debug.temp.o
 .debug_line_str
                0x00000000      0x143 C:\QMK_MSYS\tmp\ccs1VMhF.debug.temp.o
 .debug_line_str
                0x00000000      0x257 C:\QMK_MSYS\tmp\cccoT1TT.debug.temp.o
 .debug_line_str
                0x00000000      0x18f C:\QMK_MSYS\tmp\ccYZ9Et8.debug.temp.o
 .debug_line_str
                0x00000000       0xf4 C:\QMK_MSYS\tmp\ccKJyyMq.debug.temp.o
 .debug_line_str
                0x00000000       0xd2 C:\QMK_MSYS\tmp\ccOpoZr1.debug.temp.o
 .debug_line_str
                0x00000000       0xd0 C:\QMK_MSYS\tmp\cccVh7Rj.debug.temp.o
 .debug_line_str
                0x00000000       0xd5 C:\QMK_MSYS\tmp\ccYOVncC.debug.temp.o
 .debug_line_str
                0x00000000      0x155 C:\QMK_MSYS\tmp\ccK2PbMU.debug.temp.o
 .debug_line_str
                0x00000000      0x23d C:\QMK_MSYS\tmp\ccQSqSid.debug.temp.o
 .debug_line_str
                0x00000000      0x172 C:\QMK_MSYS\tmp\ccSOvWMv.debug.temp.o
 .debug_line_str
                0x00000000       0x48 C:\QMK_MSYS\tmp\ccgeiitO.debug.temp.o
 .debug_line_str
                0x00000000      0x137 C:\QMK_MSYS\tmp\cc8Mz186.debug.temp.o
 .debug_line_str
                0x00000000      0x160 C:\QMK_MSYS\tmp\ccGPrLQo.debug.temp.o
 .debug_line_str
                0x00000000      0x153 C:\QMK_MSYS\tmp\ccoBU7tG.debug.temp.o
 .debug_line_str
                0x00000000       0xcf C:\QMK_MSYS\tmp\ccYssG5X.debug.temp.o
 .debug_line_str
                0x00000000      0x5fb C:\QMK_MSYS\tmp\cc84iN5f.debug.temp.o
 .debug_line_str
                0x00000000      0x120 C:\QMK_MSYS\tmp\ccaR4n0x.debug.temp.o
 .debug_line_str
                0x00000000      0x147 C:\QMK_MSYS\tmp\ccCUU38P.debug.temp.o
 .debug_line_str
                0x00000000       0xd1 C:\QMK_MSYS\tmp\ccmj5Wg8.debug.temp.o
 .debug_line_str
                0x00000000       0xca C:\QMK_MSYS\tmp\cc8wVEiq.debug.temp.o
 .debug_line_str
                0x00000000      0x197 C:\QMK_MSYS\tmp\ccSLYenH.debug.temp.o
 .debug_line_str
                0x00000000      0x1cc C:\QMK_MSYS\tmp\cc29RKnY.debug.temp.o
 .debug_line_str
                0x00000000      0x1b1 C:\QMK_MSYS\tmp\ccqxbkCf.debug.temp.o
 .debug_line_str
                0x00000000      0x1d1 C:\QMK_MSYS\tmp\ccUrqJ2w.debug.temp.o
 .debug_line_str
                0x00000000      0x138 C:\QMK_MSYS\tmp\ccG537mO.debug.temp.o
 .debug_line_str
                0x00000000      0x14e C:\QMK_MSYS\tmp\cccZZvV5.debug.temp.o
 .debug_line_str
                0x00000000      0x12d C:\QMK_MSYS\tmp\cc8PJrsn.debug.temp.o
 .debug_line_str
                0x00000000      0x143 C:\QMK_MSYS\tmp\ccIZWGTE.debug.temp.o
 .debug_line_str
                0x00000000       0xef C:\QMK_MSYS\tmp\cc8nUmrV.debug.temp.o
 .debug_line_str
                0x00000000      0x12f C:\QMK_MSYS\tmp\ccw6TSBs.debug.temp.o
 .debug_line_str
                0x00000000      0x1f3 C:\QMK_MSYS\tmp\ccsnFIeJ.debug.temp.o
 .debug_line_str
                0x00000000      0x109 C:\QMK_MSYS\tmp\ccaPNr4Z.debug.temp.o
 .debug_line_str
                0x00000000      0x191 C:\QMK_MSYS\tmp\cciuobZg.debug.temp.o
 .debug_line_str
                0x00000000       0xf7 C:\QMK_MSYS\tmp\ccsytQAB.debug.temp.o
 .debug_line_str
                0x00000000       0xd3 C:\QMK_MSYS\tmp\cc8HolSg.debug.temp.o
 .debug_line_str
                0x00000000       0x9c C:\QMK_MSYS\tmp\ccWN46cC.debug.temp.o
 .debug_line_str
                0x00000000      0x163 C:\QMK_MSYS\tmp\ccc9IsfX.debug.temp.o
 .debug_line_str
                0x00000000      0x198 C:\QMK_MSYS\tmp\cc6gAfgi.debug.temp.o
 .debug_line_str
                0x00000000      0x142 C:\QMK_MSYS\tmp\ccM929jC.debug.temp.o
 .debug_line_str
                0x00000000      0x3db C:\QMK_MSYS\tmp\ccm7LIlW.debug.temp.o
 .debug_line_str
                0x00000000      0x2f5 C:\QMK_MSYS\tmp\cc4YVBxg.debug.temp.o
 .debug_line_str
                0x00000000      0x1b7 C:\QMK_MSYS\tmp\cc4Z73GA.debug.temp.o
 .debug_line_str
                0x00000000      0x307 C:\QMK_MSYS\tmp\cccb7ZLU.debug.temp.o
 .debug_line_str
                0x00000000      0x2c9 C:\QMK_MSYS\tmp\ccwICi4e.debug.temp.o
 .debug_line_str
                0x00000000      0x3a9 C:\QMK_MSYS\tmp\ccMloLwz.debug.temp.o
 .debug_line_str
                0x00000000      0x10e C:\QMK_MSYS\tmp\ccG4x2qc.debug.temp.o
 .debug_line_str
                0x00000000      0x27b C:\QMK_MSYS\tmp\ccy1h0bw.debug.temp.o
 .debug_line_str
                0x00000000      0x1a4 C:\QMK_MSYS\tmp\ccETjqTP.debug.temp.o
 .debug_line_str
                0x00000000      0x212 C:\QMK_MSYS\tmp\cc4X53xM.debug.temp.o
 .debug_line_str
                0x00000000      0x1e8 C:\QMK_MSYS\tmp\cc8s0jj5.debug.temp.o
 .debug_line_str
                0x00000000      0x1ef C:\QMK_MSYS\tmp\ccGLUYho.debug.temp.o
 .debug_line_str
                0x00000000      0x273 C:\QMK_MSYS\tmp\ccoFfdsH.debug.temp.o
 .debug_line_str
                0x00000000      0x1f4 C:\QMK_MSYS\tmp\ccWF6BUm.debug.temp.o
 .debug_line_str
                0x00000000      0x21a C:\QMK_MSYS\tmp\ccyaeabe.debug.temp.o
 .debug_line_str
                0x00000000      0x1db C:\QMK_MSYS\tmp\ccgEWBuj.debug.temp.o
 .debug_line_str
                0x00000000      0x15d C:\QMK_MSYS\tmp\ccGCLfVP.debug.temp.o
 .debug_line_str
                0x00000000      0x16c C:\QMK_MSYS\tmp\ccO1zI1b.debug.temp.o
 .debug_line_str
                0x00000000      0x269 C:\QMK_MSYS\tmp\ccwFmL2x.debug.temp.o
 .debug_line_str
                0x00000000      0x313 C:\QMK_MSYS\tmp\ccSymwj0.debug.temp.o
 .debug_line_str
                0x00000000      0x2fd C:\QMK_MSYS\tmp\ccKpiHB6.debug.temp.o
 .debug_line_str
                0x00000000      0x132 C:\QMK_MSYS\tmp\ccgfvfMj.debug.temp.o
 .debug_line_str
                0x00000000      0x430 C:\QMK_MSYS\tmp\ccO3hIUH.debug.temp.o
 .debug_line_str
                0x00000000      0x1c5 C:\QMK_MSYS\tmp\ccS2x1X5.debug.temp.o
 .debug_line_str
                0x00000000      0x225 C:\QMK_MSYS\tmp\cc8qLvrs.debug.temp.o
 .debug_line_str
                0x00000000      0x125 C:\QMK_MSYS\tmp\cck1d5rd.debug.temp.o
 .debug_line_str
                0x00000000      0x36f C:\QMK_MSYS\tmp\ccsu478A.debug.temp.o
 .debug_line_str
                0x00000000      0x35a C:\QMK_MSYS\tmp\ccaVzTzm.debug.temp.o
 .debug_line_str
                0x00000000      0x22a C:\QMK_MSYS\tmp\ccG5hVhR.debug.temp.o
 .debug_line_str
                0x00000000      0x1a9 C:\QMK_MSYS\tmp\cc2xLbM0.debug.temp.o
 .debug_line_str
                0x00000000      0x1dd C:\QMK_MSYS\tmp\ccOue1MD.debug.temp.o
 .debug_line_str
                0x00000000      0x164 C:\QMK_MSYS\tmp\cccYmH44.debug.temp.o
 .debug_line_str
                0x00000000     0x1d0b c:/qmk_msys/mingw64/bin/../lib/gcc/arm-none-eabi/12.2.0/thumb/v7e-m+fp/hard\libgcc.a(_aeabi_uldivmod.o)
                                 0xa8 (size before relaxing)
 .debug_line_str
                0x00001d0b       0xac c:/qmk_msys/mingw64/bin/../lib/gcc/arm-none-eabi/12.2.0/thumb/v7e-m+fp/hard\libgcc.a(_dvmd_tls.o)
 .debug_line_str
                0x00001d0b       0x90 c:/qmk_msys/mingw64/bin/../lib/gcc/arm-none-eabi/12.2.0/../../../../arm-none-eabi/lib/thumb/v7e-m+fp/hard\libg_nano.a(libc_a-memcpy.o)
 .debug_line_str
                0x00001d0b       0x89 c:/qmk_msys/mingw64/bin/../lib/gcc/arm-none-eabi/12.2.0/../../../../arm-none-eabi/lib/thumb/v7e-m+fp/hard\libg_nano.a(libc_a-memchr.o)

Cross Reference Table

Symbol                                            File
BAND_PINWHEEL_SAT                                 .build/obj_vessel_base/quantum/rgb_matrix/rgb_matrix.o (symbol from plugin)
BAND_PINWHEEL_VAL                                 .build/obj_vessel_base/quantum/rgb_matrix/rgb_matrix.o (symbol from plugin)
BAND_SAT                                          .build/obj_vessel_base/quantum/rgb_matrix/rgb_matrix.o (symbol from plugin)
BAND_SPIRAL_SAT                                   .build/obj_vessel_base/quantum/rgb_matrix/rgb_matrix.o (symbol from plugin)
BAND_SPIRAL_VAL                                   .build/obj_vessel_base/quantum/rgb_matrix/rgb_matrix.o (symbol from plugin)
BAND_VAL                                          .build/obj_vessel_base/quantum/rgb_matrix/rgb_matrix.o (symbol from plugin)
BREATHING                                         .build/obj_vessel_base/quantum/rgb_matrix/rgb_matrix.o (symbol from plugin)
BusFault_Handler                                  .build/obj_vessel_base/./lib/chibios/os/common/startup/ARMCMx/compilers/GCC/vectors.o
CIE1931_CURVE                                     .build/obj_vessel_base/quantum/led_tables.o (symbol from plugin)
                                                  .build/obj_vessel_base/quantum/color.o (symbol from plugin)
CYCLE_ALL                                         .build/obj_vessel_base/quantum/rgb_matrix/rgb_matrix.o (symbol from plugin)
CYCLE_LEFT_RIGHT                                  .build/obj_vessel_base/quantum/rgb_matrix/rgb_matrix.o (symbol from plugin)
CYCLE_OUT_IN                                      .build/obj_vessel_base/quantum/rgb_matrix/rgb_matrix.o (symbol from plugin)
CYCLE_OUT_IN_DUAL                                 .build/obj_vessel_base/quantum/rgb_matrix/rgb_matrix.o (symbol from plugin)
CYCLE_PINWHEEL                                    .build/obj_vessel_base/quantum/rgb_matrix/rgb_matrix.o (symbol from plugin)
CYCLE_SPIRAL                                      .build/obj_vessel_base/quantum/rgb_matrix/rgb_matrix.o (symbol from plugin)
CYCLE_UP_DOWN                                     .build/obj_vessel_base/quantum/rgb_matrix/rgb_matrix.o (symbol from plugin)
ConfigurationDescriptor                           .build/obj_vessel_base/usb_descriptor.o (symbol from plugin)
DUAL_BEACON                                       .build/obj_vessel_base/quantum/rgb_matrix/rgb_matrix.o (symbol from plugin)
DebugMon_Handler                                  .build/obj_vessel_base/./lib/chibios/os/common/startup/ARMCMx/compilers/GCC/vectors.o
DeviceDescriptor                                  .build/obj_vessel_base/usb_descriptor.o (symbol from plugin)
FLOWER_BLOOMING                                   .build/obj_vessel_base/quantum/rgb_matrix/rgb_matrix.o (symbol from plugin)
GRADIENT_LEFT_RIGHT                               .build/obj_vessel_base/quantum/rgb_matrix/rgb_matrix.o (symbol from plugin)
HUE_BREATHING                                     .build/obj_vessel_base/quantum/rgb_matrix/rgb_matrix.o (symbol from plugin)
HUE_PENDULUM                                      .build/obj_vessel_base/quantum/rgb_matrix/rgb_matrix.o (symbol from plugin)
HUE_WAVE                                          .build/obj_vessel_base/quantum/rgb_matrix/rgb_matrix.o (symbol from plugin)
HardFault_Handler                                 .build/obj_vessel_base/./lib/chibios/os/common/startup/ARMCMx/compilers/GCC/vectors.o
I2CD1                                             C:\QMK_MSYS\tmp\cchXQqT6.ltrans0.ltrans.o
                                                  .build/obj_vessel_base/lib/chibios/os/hal/ports/STM32/LLD/I2Cv1/hal_i2c_lld.o (symbol from plugin)
                                                  .build/obj_vessel_base/i2c_master.a(i2c_master.o)
KeyboardReport                                    .build/obj_vessel_base/usb_descriptor.o (symbol from plugin)
LanguageString                                    .build/obj_vessel_base/usb_descriptor.o (symbol from plugin)
MULTISPLASH                                       .build/obj_vessel_base/quantum/rgb_matrix/rgb_matrix.o (symbol from plugin)
ManufacturerString                                .build/obj_vessel_base/usb_descriptor.o (symbol from plugin)
MemManage_Handler                                 .build/obj_vessel_base/./lib/chibios/os/common/startup/ARMCMx/compilers/GCC/vectors.o
NMI_Handler                                       .build/obj_vessel_base/./lib/chibios/os/common/startup/ARMCMx/compilers/GCC/vectors.o
PendSV_Handler                                    .build/obj_vessel_base/./lib/chibios/os/common/startup/ARMCMx/compilers/GCC/vectors.o
ProductString                                     .build/obj_vessel_base/usb_descriptor.o (symbol from plugin)
RAINBOW_BEACON                                    .build/obj_vessel_base/quantum/rgb_matrix/rgb_matrix.o (symbol from plugin)
RAINBOW_MOVING_CHEVRON                            .build/obj_vessel_base/quantum/rgb_matrix/rgb_matrix.o (symbol from plugin)
RAINBOW_PINWHEELS                                 .build/obj_vessel_base/quantum/rgb_matrix/rgb_matrix.o (symbol from plugin)
RIVERFLOW                                         .build/obj_vessel_base/quantum/rgb_matrix/rgb_matrix.o (symbol from plugin)
Reset_Handler                                     .build/obj_vessel_base/./lib/chibios/os/common/startup/ARMCMx/compilers/GCC/vectors.o
SOLID_COLOR                                       .build/obj_vessel_base/quantum/rgb_matrix/rgb_matrix.o (symbol from plugin)
SOLID_MULTISPLASH                                 .build/obj_vessel_base/quantum/rgb_matrix/rgb_matrix.o (symbol from plugin)
SOLID_REACTIVE                                    .build/obj_vessel_base/quantum/rgb_matrix/rgb_matrix.o (symbol from plugin)
SOLID_REACTIVE_CROSS                              .build/obj_vessel_base/quantum/rgb_matrix/rgb_matrix.o (symbol from plugin)
SOLID_REACTIVE_MULTICROSS                         .build/obj_vessel_base/quantum/rgb_matrix/rgb_matrix.o (symbol from plugin)
SOLID_REACTIVE_MULTINEXUS                         .build/obj_vessel_base/quantum/rgb_matrix/rgb_matrix.o (symbol from plugin)
SOLID_REACTIVE_MULTIWIDE                          .build/obj_vessel_base/quantum/rgb_matrix/rgb_matrix.o (symbol from plugin)
SOLID_REACTIVE_NEXUS                              .build/obj_vessel_base/quantum/rgb_matrix/rgb_matrix.o (symbol from plugin)
SOLID_REACTIVE_SIMPLE                             .build/obj_vessel_base/quantum/rgb_matrix/rgb_matrix.o (symbol from plugin)
SOLID_REACTIVE_WIDE                               .build/obj_vessel_base/quantum/rgb_matrix/rgb_matrix.o (symbol from plugin)
SOLID_SPLASH                                      .build/obj_vessel_base/quantum/rgb_matrix/rgb_matrix.o (symbol from plugin)
SOLID_SPLASH_math                                 .build/obj_vessel_base/quantum/rgb_matrix/rgb_matrix.o (symbol from plugin)
SPLASH                                            .build/obj_vessel_base/quantum/rgb_matrix/rgb_matrix.o (symbol from plugin)
SPLASH_math                                       .build/obj_vessel_base/quantum/rgb_matrix/rgb_matrix.o (symbol from plugin)
STARLIGHT                                         .build/obj_vessel_base/quantum/rgb_matrix/rgb_matrix.o (symbol from plugin)
STARLIGHT_DUAL_HUE                                .build/obj_vessel_base/quantum/rgb_matrix/rgb_matrix.o (symbol from plugin)
STARLIGHT_DUAL_SAT                                .build/obj_vessel_base/quantum/rgb_matrix/rgb_matrix.o (symbol from plugin)
SVC_Handler                                       C:\QMK_MSYS\tmp\cchXQqT6.ltrans0.ltrans.o
                                                  .build/obj_vessel_base/lib/chibios/os/common/ports/ARMv7-M/chcore.o (symbol from plugin)
                                                  .build/obj_vessel_base/./lib/chibios/os/common/startup/ARMCMx/compilers/GCC/vectors.o
SecureFault_Handler                               .build/obj_vessel_base/./lib/chibios/os/common/startup/ARMCMx/compilers/GCC/vectors.o
SharedReport                                      .build/obj_vessel_base/usb_descriptor.o (symbol from plugin)
SysTick_Handler                                   .build/obj_vessel_base/./lib/chibios/os/common/startup/ARMCMx/compilers/GCC/vectors.o
SystemCoreClock                                   .build/obj_vessel_base/lib/chibios/os/hal/ports/STM32/STM32F4xx/hal_lld.o (symbol from plugin)
USBD1                                             .build/obj_vessel_base/lib/chibios/os/hal/ports/STM32/LLD/OTGv1/hal_usb_lld.o (symbol from plugin)
                                                  .build/obj_vessel_base/protocol/chibios/usb_util.o (symbol from plugin)
                                                  .build/obj_vessel_base/protocol/chibios/usb_endpoints.o (symbol from plugin)
                                                  .build/obj_vessel_base/protocol/chibios/chibios.o (symbol from plugin)
                                                  .build/obj_vessel_base/protocol/chibios/usb_main.o (symbol from plugin)
UsageFault_Handler                                .build/obj_vessel_base/./lib/chibios/os/common/startup/ARMCMx/compilers/GCC/vectors.o
Vector100                                         .build/obj_vessel_base/./lib/chibios/os/common/startup/ARMCMx/compilers/GCC/vectors.o
Vector104                                         .build/obj_vessel_base/./lib/chibios/os/common/startup/ARMCMx/compilers/GCC/vectors.o
Vector108                                         .build/obj_vessel_base/./lib/chibios/os/common/startup/ARMCMx/compilers/GCC/vectors.o
Vector10C                                         .build/obj_vessel_base/./lib/chibios/os/common/startup/ARMCMx/compilers/GCC/vectors.o
Vector110                                         .build/obj_vessel_base/./lib/chibios/os/common/startup/ARMCMx/compilers/GCC/vectors.o
Vector114                                         .build/obj_vessel_base/./lib/chibios/os/common/startup/ARMCMx/compilers/GCC/vectors.o
Vector118                                         .build/obj_vessel_base/./lib/chibios/os/common/startup/ARMCMx/compilers/GCC/vectors.o
Vector11C                                         .build/obj_vessel_base/./lib/chibios/os/common/startup/ARMCMx/compilers/GCC/vectors.o
Vector120                                         C:\QMK_MSYS\tmp\cchXQqT6.ltrans0.ltrans.o
                                                  .build/obj_vessel_base/lib/chibios/os/hal/ports/STM32/LLD/DMAv2/stm32_dma.o (symbol from plugin)
                                                  .build/obj_vessel_base/./lib/chibios/os/common/startup/ARMCMx/compilers/GCC/vectors.o
Vector124                                         C:\QMK_MSYS\tmp\cchXQqT6.ltrans0.ltrans.o
                                                  .build/obj_vessel_base/lib/chibios/os/hal/ports/STM32/LLD/DMAv2/stm32_dma.o (symbol from plugin)
                                                  .build/obj_vessel_base/./lib/chibios/os/common/startup/ARMCMx/compilers/GCC/vectors.o
Vector128                                         C:\QMK_MSYS\tmp\cchXQqT6.ltrans0.ltrans.o
                                                  .build/obj_vessel_base/lib/chibios/os/hal/ports/STM32/LLD/DMAv2/stm32_dma.o (symbol from plugin)
                                                  .build/obj_vessel_base/./lib/chibios/os/common/startup/ARMCMx/compilers/GCC/vectors.o
Vector12C                                         C:\QMK_MSYS\tmp\cchXQqT6.ltrans0.ltrans.o
                                                  .build/obj_vessel_base/lib/chibios/os/hal/ports/STM32/LLD/DMAv2/stm32_dma.o (symbol from plugin)
                                                  .build/obj_vessel_base/./lib/chibios/os/common/startup/ARMCMx/compilers/GCC/vectors.o
Vector130                                         C:\QMK_MSYS\tmp\cchXQqT6.ltrans0.ltrans.o
                                                  .build/obj_vessel_base/lib/chibios/os/hal/ports/STM32/LLD/DMAv2/stm32_dma.o (symbol from plugin)
                                                  .build/obj_vessel_base/./lib/chibios/os/common/startup/ARMCMx/compilers/GCC/vectors.o
Vector134                                         .build/obj_vessel_base/./lib/chibios/os/common/startup/ARMCMx/compilers/GCC/vectors.o
Vector138                                         .build/obj_vessel_base/./lib/chibios/os/common/startup/ARMCMx/compilers/GCC/vectors.o
Vector13C                                         .build/obj_vessel_base/./lib/chibios/os/common/startup/ARMCMx/compilers/GCC/vectors.o
Vector140                                         .build/obj_vessel_base/./lib/chibios/os/common/startup/ARMCMx/compilers/GCC/vectors.o
Vector144                                         .build/obj_vessel_base/./lib/chibios/os/common/startup/ARMCMx/compilers/GCC/vectors.o
Vector148                                         .build/obj_vessel_base/./lib/chibios/os/common/startup/ARMCMx/compilers/GCC/vectors.o
Vector14C                                         C:\QMK_MSYS\tmp\cchXQqT6.ltrans0.ltrans.o
                                                  .build/obj_vessel_base/lib/chibios/os/hal/ports/STM32/LLD/OTGv1/hal_usb_lld.o (symbol from plugin)
                                                  .build/obj_vessel_base/./lib/chibios/os/common/startup/ARMCMx/compilers/GCC/vectors.o
Vector150                                         C:\QMK_MSYS\tmp\cchXQqT6.ltrans0.ltrans.o
                                                  .build/obj_vessel_base/lib/chibios/os/hal/ports/STM32/LLD/DMAv2/stm32_dma.o (symbol from plugin)
                                                  .build/obj_vessel_base/./lib/chibios/os/common/startup/ARMCMx/compilers/GCC/vectors.o
Vector154                                         C:\QMK_MSYS\tmp\cchXQqT6.ltrans0.ltrans.o
                                                  .build/obj_vessel_base/lib/chibios/os/hal/ports/STM32/LLD/DMAv2/stm32_dma.o (symbol from plugin)
                                                  .build/obj_vessel_base/./lib/chibios/os/common/startup/ARMCMx/compilers/GCC/vectors.o
Vector158                                         C:\QMK_MSYS\tmp\cchXQqT6.ltrans0.ltrans.o
                                                  .build/obj_vessel_base/lib/chibios/os/hal/ports/STM32/LLD/DMAv2/stm32_dma.o (symbol from plugin)
                                                  .build/obj_vessel_base/./lib/chibios/os/common/startup/ARMCMx/compilers/GCC/vectors.o
Vector15C                                         .build/obj_vessel_base/./lib/chibios/os/common/startup/ARMCMx/compilers/GCC/vectors.o
Vector160                                         .build/obj_vessel_base/./lib/chibios/os/common/startup/ARMCMx/compilers/GCC/vectors.o
Vector164                                         .build/obj_vessel_base/./lib/chibios/os/common/startup/ARMCMx/compilers/GCC/vectors.o
Vector168                                         .build/obj_vessel_base/./lib/chibios/os/common/startup/ARMCMx/compilers/GCC/vectors.o
Vector16C                                         .build/obj_vessel_base/./lib/chibios/os/common/startup/ARMCMx/compilers/GCC/vectors.o
Vector170                                         .build/obj_vessel_base/./lib/chibios/os/common/startup/ARMCMx/compilers/GCC/vectors.o
Vector174                                         .build/obj_vessel_base/./lib/chibios/os/common/startup/ARMCMx/compilers/GCC/vectors.o
Vector178                                         .build/obj_vessel_base/./lib/chibios/os/common/startup/ARMCMx/compilers/GCC/vectors.o
Vector17C                                         .build/obj_vessel_base/./lib/chibios/os/common/startup/ARMCMx/compilers/GCC/vectors.o
Vector180                                         .build/obj_vessel_base/./lib/chibios/os/common/startup/ARMCMx/compilers/GCC/vectors.o
Vector184                                         .build/obj_vessel_base/./lib/chibios/os/common/startup/ARMCMx/compilers/GCC/vectors.o
Vector188                                         .build/obj_vessel_base/./lib/chibios/os/common/startup/ARMCMx/compilers/GCC/vectors.o
Vector18C                                         .build/obj_vessel_base/./lib/chibios/os/common/startup/ARMCMx/compilers/GCC/vectors.o
Vector190                                         .build/obj_vessel_base/./lib/chibios/os/common/startup/ARMCMx/compilers/GCC/vectors.o
Vector194                                         .build/obj_vessel_base/./lib/chibios/os/common/startup/ARMCMx/compilers/GCC/vectors.o
Vector198                                         .build/obj_vessel_base/./lib/chibios/os/common/startup/ARMCMx/compilers/GCC/vectors.o
Vector19C                                         .build/obj_vessel_base/./lib/chibios/os/common/startup/ARMCMx/compilers/GCC/vectors.o
Vector1A0                                         .build/obj_vessel_base/./lib/chibios/os/common/startup/ARMCMx/compilers/GCC/vectors.o
Vector1A4                                         .build/obj_vessel_base/./lib/chibios/os/common/startup/ARMCMx/compilers/GCC/vectors.o
Vector1A8                                         .build/obj_vessel_base/./lib/chibios/os/common/startup/ARMCMx/compilers/GCC/vectors.o
Vector1AC                                         .build/obj_vessel_base/./lib/chibios/os/common/startup/ARMCMx/compilers/GCC/vectors.o
Vector1B0                                         .build/obj_vessel_base/./lib/chibios/os/common/startup/ARMCMx/compilers/GCC/vectors.o
Vector1B4                                         .build/obj_vessel_base/./lib/chibios/os/common/startup/ARMCMx/compilers/GCC/vectors.o
Vector1B8                                         .build/obj_vessel_base/./lib/chibios/os/common/startup/ARMCMx/compilers/GCC/vectors.o
Vector1BC                                         .build/obj_vessel_base/./lib/chibios/os/common/startup/ARMCMx/compilers/GCC/vectors.o
Vector1C0                                         .build/obj_vessel_base/./lib/chibios/os/common/startup/ARMCMx/compilers/GCC/vectors.o
Vector1C4                                         .build/obj_vessel_base/./lib/chibios/os/common/startup/ARMCMx/compilers/GCC/vectors.o
Vector1C8                                         .build/obj_vessel_base/./lib/chibios/os/common/startup/ARMCMx/compilers/GCC/vectors.o
Vector1CC                                         .build/obj_vessel_base/./lib/chibios/os/common/startup/ARMCMx/compilers/GCC/vectors.o
Vector1D0                                         .build/obj_vessel_base/./lib/chibios/os/common/startup/ARMCMx/compilers/GCC/vectors.o
Vector1D4                                         .build/obj_vessel_base/./lib/chibios/os/common/startup/ARMCMx/compilers/GCC/vectors.o
Vector1D8                                         .build/obj_vessel_base/./lib/chibios/os/common/startup/ARMCMx/compilers/GCC/vectors.o
Vector1DC                                         .build/obj_vessel_base/./lib/chibios/os/common/startup/ARMCMx/compilers/GCC/vectors.o
Vector20                                          .build/obj_vessel_base/./lib/chibios/os/common/startup/ARMCMx/compilers/GCC/vectors.o
Vector24                                          .build/obj_vessel_base/./lib/chibios/os/common/startup/ARMCMx/compilers/GCC/vectors.o
Vector28                                          .build/obj_vessel_base/./lib/chibios/os/common/startup/ARMCMx/compilers/GCC/vectors.o
Vector34                                          .build/obj_vessel_base/./lib/chibios/os/common/startup/ARMCMx/compilers/GCC/vectors.o
Vector40                                          .build/obj_vessel_base/./lib/chibios/os/common/startup/ARMCMx/compilers/GCC/vectors.o
Vector44                                          .build/obj_vessel_base/./lib/chibios/os/common/startup/ARMCMx/compilers/GCC/vectors.o
Vector48                                          .build/obj_vessel_base/./lib/chibios/os/common/startup/ARMCMx/compilers/GCC/vectors.o
Vector4C                                          .build/obj_vessel_base/./lib/chibios/os/common/startup/ARMCMx/compilers/GCC/vectors.o
Vector50                                          .build/obj_vessel_base/./lib/chibios/os/common/startup/ARMCMx/compilers/GCC/vectors.o
Vector54                                          .build/obj_vessel_base/./lib/chibios/os/common/startup/ARMCMx/compilers/GCC/vectors.o
Vector58                                          .build/obj_vessel_base/./lib/chibios/os/common/startup/ARMCMx/compilers/GCC/vectors.o
Vector5C                                          .build/obj_vessel_base/./lib/chibios/os/common/startup/ARMCMx/compilers/GCC/vectors.o
Vector60                                          .build/obj_vessel_base/./lib/chibios/os/common/startup/ARMCMx/compilers/GCC/vectors.o
Vector64                                          .build/obj_vessel_base/./lib/chibios/os/common/startup/ARMCMx/compilers/GCC/vectors.o
Vector68                                          .build/obj_vessel_base/./lib/chibios/os/common/startup/ARMCMx/compilers/GCC/vectors.o
Vector6C                                          C:\QMK_MSYS\tmp\cchXQqT6.ltrans0.ltrans.o
                                                  .build/obj_vessel_base/lib/chibios/os/hal/ports/STM32/LLD/DMAv2/stm32_dma.o (symbol from plugin)
                                                  .build/obj_vessel_base/./lib/chibios/os/common/startup/ARMCMx/compilers/GCC/vectors.o
Vector70                                          C:\QMK_MSYS\tmp\cchXQqT6.ltrans0.ltrans.o
                                                  .build/obj_vessel_base/lib/chibios/os/hal/ports/STM32/LLD/DMAv2/stm32_dma.o (symbol from plugin)
                                                  .build/obj_vessel_base/./lib/chibios/os/common/startup/ARMCMx/compilers/GCC/vectors.o
Vector74                                          C:\QMK_MSYS\tmp\cchXQqT6.ltrans0.ltrans.o
                                                  .build/obj_vessel_base/lib/chibios/os/hal/ports/STM32/LLD/DMAv2/stm32_dma.o (symbol from plugin)
                                                  .build/obj_vessel_base/./lib/chibios/os/common/startup/ARMCMx/compilers/GCC/vectors.o
Vector78                                          C:\QMK_MSYS\tmp\cchXQqT6.ltrans0.ltrans.o
                                                  .build/obj_vessel_base/lib/chibios/os/hal/ports/STM32/LLD/DMAv2/stm32_dma.o (symbol from plugin)
                                                  .build/obj_vessel_base/./lib/chibios/os/common/startup/ARMCMx/compilers/GCC/vectors.o
Vector7C                                          C:\QMK_MSYS\tmp\cchXQqT6.ltrans0.ltrans.o
                                                  .build/obj_vessel_base/lib/chibios/os/hal/ports/STM32/LLD/DMAv2/stm32_dma.o (symbol from plugin)
                                                  .build/obj_vessel_base/./lib/chibios/os/common/startup/ARMCMx/compilers/GCC/vectors.o
Vector80                                          C:\QMK_MSYS\tmp\cchXQqT6.ltrans0.ltrans.o
                                                  .build/obj_vessel_base/lib/chibios/os/hal/ports/STM32/LLD/DMAv2/stm32_dma.o (symbol from plugin)
                                                  .build/obj_vessel_base/./lib/chibios/os/common/startup/ARMCMx/compilers/GCC/vectors.o
Vector84                                          C:\QMK_MSYS\tmp\cchXQqT6.ltrans0.ltrans.o
                                                  .build/obj_vessel_base/lib/chibios/os/hal/ports/STM32/LLD/DMAv2/stm32_dma.o (symbol from plugin)
                                                  .build/obj_vessel_base/./lib/chibios/os/common/startup/ARMCMx/compilers/GCC/vectors.o
Vector88                                          .build/obj_vessel_base/./lib/chibios/os/common/startup/ARMCMx/compilers/GCC/vectors.o
Vector8C                                          .build/obj_vessel_base/./lib/chibios/os/common/startup/ARMCMx/compilers/GCC/vectors.o
Vector90                                          .build/obj_vessel_base/./lib/chibios/os/common/startup/ARMCMx/compilers/GCC/vectors.o
Vector94                                          .build/obj_vessel_base/./lib/chibios/os/common/startup/ARMCMx/compilers/GCC/vectors.o
Vector98                                          .build/obj_vessel_base/./lib/chibios/os/common/startup/ARMCMx/compilers/GCC/vectors.o
Vector9C                                          .build/obj_vessel_base/./lib/chibios/os/common/startup/ARMCMx/compilers/GCC/vectors.o
VectorA0                                          .build/obj_vessel_base/./lib/chibios/os/common/startup/ARMCMx/compilers/GCC/vectors.o
VectorA4                                          .build/obj_vessel_base/./lib/chibios/os/common/startup/ARMCMx/compilers/GCC/vectors.o
VectorA8                                          .build/obj_vessel_base/./lib/chibios/os/common/startup/ARMCMx/compilers/GCC/vectors.o
VectorAC                                          .build/obj_vessel_base/./lib/chibios/os/common/startup/ARMCMx/compilers/GCC/vectors.o
VectorB0                                          C:\QMK_MSYS\tmp\cchXQqT6.ltrans0.ltrans.o
                                                  .build/obj_vessel_base/lib/chibios/os/hal/ports/STM32/STM32F4xx/stm32_isr.o (symbol from plugin)
                                                  .build/obj_vessel_base/./lib/chibios/os/common/startup/ARMCMx/compilers/GCC/vectors.o
VectorB4                                          .build/obj_vessel_base/./lib/chibios/os/common/startup/ARMCMx/compilers/GCC/vectors.o
VectorB8                                          .build/obj_vessel_base/./lib/chibios/os/common/startup/ARMCMx/compilers/GCC/vectors.o
VectorBC                                          C:\QMK_MSYS\tmp\cchXQqT6.ltrans0.ltrans.o
                                                  .build/obj_vessel_base/lib/chibios/os/hal/ports/STM32/LLD/I2Cv1/hal_i2c_lld.o (symbol from plugin)
                                                  .build/obj_vessel_base/./lib/chibios/os/common/startup/ARMCMx/compilers/GCC/vectors.o
VectorC0                                          C:\QMK_MSYS\tmp\cchXQqT6.ltrans0.ltrans.o
                                                  .build/obj_vessel_base/lib/chibios/os/hal/ports/STM32/LLD/I2Cv1/hal_i2c_lld.o (symbol from plugin)
                                                  .build/obj_vessel_base/./lib/chibios/os/common/startup/ARMCMx/compilers/GCC/vectors.o
VectorC4                                          .build/obj_vessel_base/./lib/chibios/os/common/startup/ARMCMx/compilers/GCC/vectors.o
VectorC8                                          .build/obj_vessel_base/./lib/chibios/os/common/startup/ARMCMx/compilers/GCC/vectors.o
VectorCC                                          .build/obj_vessel_base/./lib/chibios/os/common/startup/ARMCMx/compilers/GCC/vectors.o
VectorD0                                          .build/obj_vessel_base/./lib/chibios/os/common/startup/ARMCMx/compilers/GCC/vectors.o
VectorD4                                          .build/obj_vessel_base/./lib/chibios/os/common/startup/ARMCMx/compilers/GCC/vectors.o
VectorD8                                          .build/obj_vessel_base/./lib/chibios/os/common/startup/ARMCMx/compilers/GCC/vectors.o
VectorDC                                          .build/obj_vessel_base/./lib/chibios/os/common/startup/ARMCMx/compilers/GCC/vectors.o
VectorE0                                          .build/obj_vessel_base/./lib/chibios/os/common/startup/ARMCMx/compilers/GCC/vectors.o
VectorE4                                          .build/obj_vessel_base/./lib/chibios/os/common/startup/ARMCMx/compilers/GCC/vectors.o
VectorE8                                          .build/obj_vessel_base/./lib/chibios/os/common/startup/ARMCMx/compilers/GCC/vectors.o
VectorEC                                          .build/obj_vessel_base/./lib/chibios/os/common/startup/ARMCMx/compilers/GCC/vectors.o
VectorF0                                          .build/obj_vessel_base/./lib/chibios/os/common/startup/ARMCMx/compilers/GCC/vectors.o
VectorF4                                          .build/obj_vessel_base/./lib/chibios/os/common/startup/ARMCMx/compilers/GCC/vectors.o
VectorF8                                          .build/obj_vessel_base/./lib/chibios/os/common/startup/ARMCMx/compilers/GCC/vectors.o
VectorFC                                          C:\QMK_MSYS\tmp\cchXQqT6.ltrans0.ltrans.o
                                                  .build/obj_vessel_base/lib/chibios/os/hal/ports/STM32/LLD/DMAv2/stm32_dma.o (symbol from plugin)
                                                  .build/obj_vessel_base/./lib/chibios/os/common/startup/ARMCMx/compilers/GCC/vectors.o
__aeabi_idiv0                                     c:/qmk_msys/mingw64/bin/../lib/gcc/arm-none-eabi/12.2.0/thumb/v7e-m+fp/hard\libgcc.a(_dvmd_tls.o)
__aeabi_ldiv0                                     c:/qmk_msys/mingw64/bin/../lib/gcc/arm-none-eabi/12.2.0/thumb/v7e-m+fp/hard\libgcc.a(_dvmd_tls.o)
                                                  c:/qmk_msys/mingw64/bin/../lib/gcc/arm-none-eabi/12.2.0/thumb/v7e-m+fp/hard\libgcc.a(_aeabi_uldivmod.o)
                                                  c:/qmk_msys/mingw64/bin/../lib/gcc/arm-none-eabi/12.2.0/thumb/v7e-m+fp/hard\libgcc.a(_aeabi_ldivmod.o)
__aeabi_ldivmod                                   c:/qmk_msys/mingw64/bin/../lib/gcc/arm-none-eabi/12.2.0/thumb/v7e-m+fp/hard\libgcc.a(_aeabi_ldivmod.o)
                                                  C:\QMK_MSYS\tmp\cchXQqT6.ltrans0.ltrans.o
                                                  .build/obj_vessel_base/i2c_master.a(i2c_master.o)
__aeabi_uldivmod                                  c:/qmk_msys/mingw64/bin/../lib/gcc/arm-none-eabi/12.2.0/thumb/v7e-m+fp/hard\libgcc.a(_aeabi_uldivmod.o)
                                                  C:\QMK_MSYS\tmp\cchXQqT6.ltrans0.ltrans.o
                                                  .build/obj_vessel_base/i2c_master.a(i2c_master.o)
__assert                                          c:/qmk_msys/mingw64/bin/../lib/gcc/arm-none-eabi/12.2.0/../../../../arm-none-eabi/lib/thumb/v7e-m+fp/hard\libg_nano.a(libc_a-assert.o)
__assert_func                                     c:/qmk_msys/mingw64/bin/../lib/gcc/arm-none-eabi/12.2.0/../../../../arm-none-eabi/lib/thumb/v7e-m+fp/hard\libg_nano.a(libc_a-assert.o)
                                                  c:/qmk_msys/mingw64/bin/../lib/gcc/arm-none-eabi/12.2.0/../../../../arm-none-eabi/lib/thumb/v7e-m+fp/hard\libg_nano.a(libc_a-rand.o)
__bss_base__                                      .build/obj_vessel_base/./lib/chibios/os/common/startup/ARMCMx/compilers/GCC/crt0_v7m.o
__bss_end__                                       .build/obj_vessel_base/./lib/chibios/os/common/startup/ARMCMx/compilers/GCC/crt0_v7m.o
__chibios_override___early_init                   .build/obj_vessel_base/lib/chibios/os/hal/boards/ST_NUCLEO64_F446RE/board.o (symbol from plugin)
                                                  .build/obj_vessel_base/protocol/chibios/chibios.o (symbol from plugin)
__chibios_override_boardInit                      .build/obj_vessel_base/lib/chibios/os/hal/boards/ST_NUCLEO64_F446RE/board.o (symbol from plugin)
                                                  .build/obj_vessel_base/protocol/chibios/chibios.o (symbol from plugin)
__core_init                                       .build/obj_vessel_base/lib/chibios/os/oslib/src/chmemcore.o (symbol from plugin)
                                                  .build/obj_vessel_base/lib/chibios/os/rt/src/chsys.o (symbol from plugin)
__cpu_init                                        C:\QMK_MSYS\tmp\cchXQqT6.ltrans0.ltrans.o
                                                  .build/obj_vessel_base/lib/chibios/os/common/startup/ARMCMx/compilers/GCC/crt1.o (symbol from plugin)
                                                  .build/obj_vessel_base/./lib/chibios/os/common/startup/ARMCMx/compilers/GCC/crt0_v7m.o
__cxa_pure_virtual                                .build/obj_vessel_base/lib/chibios/os/various/syscalls.o (symbol from plugin)
__data_base__                                     .build/obj_vessel_base/./lib/chibios/os/common/startup/ARMCMx/compilers/GCC/crt0_v7m.o
__data_end__                                      .build/obj_vessel_base/./lib/chibios/os/common/startup/ARMCMx/compilers/GCC/crt0_v7m.o
__default_exit                                    C:\QMK_MSYS\tmp\cchXQqT6.ltrans0.ltrans.o
                                                  .build/obj_vessel_base/lib/chibios/os/common/startup/ARMCMx/compilers/GCC/crt1.o (symbol from plugin)
                                                  .build/obj_vessel_base/./lib/chibios/os/common/startup/ARMCMx/compilers/GCC/crt0_v7m.o
__dso_handle                                      C:\QMK_MSYS\tmp\cchXQqT6.ltrans0.ltrans.o
                                                  .build/obj_vessel_base/platforms/chibios/syscall-fallbacks.o (symbol from plugin)
__early_init                                      C:\QMK_MSYS\tmp\cchXQqT6.ltrans0.ltrans.o
                                                  .build/obj_vessel_base/protocol/chibios/chibios.o (symbol from plugin)
                                                  .build/obj_vessel_base/./lib/chibios/os/common/startup/ARMCMx/compilers/GCC/crt0_v7m.o
__errno                                           c:/qmk_msys/mingw64/bin/../lib/gcc/arm-none-eabi/12.2.0/../../../../arm-none-eabi/lib/thumb/v7e-m+fp/hard\libg_nano.a(libc_a-errno.o)
                                                  .build/obj_vessel_base/platforms/chibios/syscall-fallbacks.o (symbol from plugin)
__fini_array_base__                               .build/obj_vessel_base/./lib/chibios/os/common/startup/ARMCMx/compilers/GCC/crt0_v7m.o
__fini_array_end__                                .build/obj_vessel_base/./lib/chibios/os/common/startup/ARMCMx/compilers/GCC/crt0_v7m.o
__fp_lock_all                                     c:/qmk_msys/mingw64/bin/../lib/gcc/arm-none-eabi/12.2.0/../../../../arm-none-eabi/lib/thumb/v7e-m+fp/hard\libg_nano.a(libc_a-findfp.o)
__fp_unlock_all                                   c:/qmk_msys/mingw64/bin/../lib/gcc/arm-none-eabi/12.2.0/../../../../arm-none-eabi/lib/thumb/v7e-m+fp/hard\libg_nano.a(libc_a-findfp.o)
__heap_base__                                     C:\QMK_MSYS\tmp\cchXQqT6.ltrans0.ltrans.o
                                                  .build/obj_vessel_base/lib/chibios/os/oslib/src/chmemcore.o (symbol from plugin)
__heap_end__                                      C:\QMK_MSYS\tmp\cchXQqT6.ltrans0.ltrans.o
                                                  .build/obj_vessel_base/lib/chibios/os/oslib/src/chmemcore.o (symbol from plugin)
__init_array_base__                               .build/obj_vessel_base/./lib/chibios/os/common/startup/ARMCMx/compilers/GCC/crt0_v7m.o
__init_array_end__                                .build/obj_vessel_base/./lib/chibios/os/common/startup/ARMCMx/compilers/GCC/crt0_v7m.o
__init_ram_areas                                  C:\QMK_MSYS\tmp\cchXQqT6.ltrans0.ltrans.o
                                                  .build/obj_vessel_base/lib/chibios/os/common/startup/ARMCMx/compilers/GCC/crt1.o (symbol from plugin)
                                                  .build/obj_vessel_base/./lib/chibios/os/common/startup/ARMCMx/compilers/GCC/crt0_v7m.o
__late_init                                       C:\QMK_MSYS\tmp\cchXQqT6.ltrans0.ltrans.o
                                                  .build/obj_vessel_base/lib/chibios/os/common/startup/ARMCMx/compilers/GCC/crt1.o (symbol from plugin)
                                                  .build/obj_vessel_base/./lib/chibios/os/common/startup/ARMCMx/compilers/GCC/crt0_v7m.o
__lock___arc4random_mutex                         c:/qmk_msys/mingw64/bin/../lib/gcc/arm-none-eabi/12.2.0/../../../../arm-none-eabi/lib/thumb/v7e-m+fp/hard\libg_nano.a(libc_a-lock.o)
__lock___at_quick_exit_mutex                      c:/qmk_msys/mingw64/bin/../lib/gcc/arm-none-eabi/12.2.0/../../../../arm-none-eabi/lib/thumb/v7e-m+fp/hard\libg_nano.a(libc_a-lock.o)
__lock___atexit_recursive_mutex                   c:/qmk_msys/mingw64/bin/../lib/gcc/arm-none-eabi/12.2.0/../../../../arm-none-eabi/lib/thumb/v7e-m+fp/hard\libg_nano.a(libc_a-lock.o)
__lock___dd_hash_mutex                            c:/qmk_msys/mingw64/bin/../lib/gcc/arm-none-eabi/12.2.0/../../../../arm-none-eabi/lib/thumb/v7e-m+fp/hard\libg_nano.a(libc_a-lock.o)
__lock___env_recursive_mutex                      c:/qmk_msys/mingw64/bin/../lib/gcc/arm-none-eabi/12.2.0/../../../../arm-none-eabi/lib/thumb/v7e-m+fp/hard\libg_nano.a(libc_a-lock.o)
__lock___malloc_recursive_mutex                   c:/qmk_msys/mingw64/bin/../lib/gcc/arm-none-eabi/12.2.0/../../../../arm-none-eabi/lib/thumb/v7e-m+fp/hard\libg_nano.a(libc_a-lock.o)
                                                  c:/qmk_msys/mingw64/bin/../lib/gcc/arm-none-eabi/12.2.0/../../../../arm-none-eabi/lib/thumb/v7e-m+fp/hard\libg_nano.a(libc_a-mlock.o)
__lock___sfp_recursive_mutex                      c:/qmk_msys/mingw64/bin/../lib/gcc/arm-none-eabi/12.2.0/../../../../arm-none-eabi/lib/thumb/v7e-m+fp/hard\libg_nano.a(libc_a-lock.o)
                                                  c:/qmk_msys/mingw64/bin/../lib/gcc/arm-none-eabi/12.2.0/../../../../arm-none-eabi/lib/thumb/v7e-m+fp/hard\libg_nano.a(libc_a-findfp.o)
__lock___tz_mutex                                 c:/qmk_msys/mingw64/bin/../lib/gcc/arm-none-eabi/12.2.0/../../../../arm-none-eabi/lib/thumb/v7e-m+fp/hard\libg_nano.a(libc_a-lock.o)
__main_stack_base__                               .build/obj_vessel_base/./lib/chibios/os/common/startup/ARMCMx/compilers/GCC/crt0_v7m.o
__main_stack_end__                                .build/obj_vessel_base/./lib/chibios/os/common/startup/ARMCMx/compilers/GCC/vectors.o
                                                  .build/obj_vessel_base/./lib/chibios/os/common/startup/ARMCMx/compilers/GCC/crt0_v7m.o
__malloc_free_list                                c:/qmk_msys/mingw64/bin/../lib/gcc/arm-none-eabi/12.2.0/../../../../arm-none-eabi/lib/thumb/v7e-m+fp/hard\libg_nano.a(libc_a-mallocr.o)
                                                  c:/qmk_msys/mingw64/bin/../lib/gcc/arm-none-eabi/12.2.0/../../../../arm-none-eabi/lib/thumb/v7e-m+fp/hard\libg_nano.a(libc_a-freer.o)
__malloc_lock                                     c:/qmk_msys/mingw64/bin/../lib/gcc/arm-none-eabi/12.2.0/../../../../arm-none-eabi/lib/thumb/v7e-m+fp/hard\libg_nano.a(libc_a-mlock.o)
                                                  c:/qmk_msys/mingw64/bin/../lib/gcc/arm-none-eabi/12.2.0/../../../../arm-none-eabi/lib/thumb/v7e-m+fp/hard\libg_nano.a(libc_a-freer.o)
                                                  c:/qmk_msys/mingw64/bin/../lib/gcc/arm-none-eabi/12.2.0/../../../../arm-none-eabi/lib/thumb/v7e-m+fp/hard\libg_nano.a(libc_a-mallocr.o)
__malloc_sbrk_start                               c:/qmk_msys/mingw64/bin/../lib/gcc/arm-none-eabi/12.2.0/../../../../arm-none-eabi/lib/thumb/v7e-m+fp/hard\libg_nano.a(libc_a-mallocr.o)
__malloc_unlock                                   c:/qmk_msys/mingw64/bin/../lib/gcc/arm-none-eabi/12.2.0/../../../../arm-none-eabi/lib/thumb/v7e-m+fp/hard\libg_nano.a(libc_a-mlock.o)
                                                  c:/qmk_msys/mingw64/bin/../lib/gcc/arm-none-eabi/12.2.0/../../../../arm-none-eabi/lib/thumb/v7e-m+fp/hard\libg_nano.a(libc_a-freer.o)
                                                  c:/qmk_msys/mingw64/bin/../lib/gcc/arm-none-eabi/12.2.0/../../../../arm-none-eabi/lib/thumb/v7e-m+fp/hard\libg_nano.a(libc_a-mallocr.o)
__port_exit_from_isr                              .build/obj_vessel_base/./lib/chibios/os/common/ports/ARMv7-M/compilers/GCC/chcoreasm.o
                                                  C:\QMK_MSYS\tmp\cchXQqT6.ltrans0.ltrans.o
                                                  .build/obj_vessel_base/lib/chibios/os/common/ports/ARMv7-M/chcore.o (symbol from plugin)
__port_irq_epilogue                               .build/obj_vessel_base/lib/chibios/os/common/ports/ARMv7-M/chcore.o (symbol from plugin)
                                                  .build/obj_vessel_base/lib/chibios/os/hal/ports/STM32/LLD/OTGv1/hal_usb_lld.o (symbol from plugin)
                                                  .build/obj_vessel_base/lib/chibios/os/hal/ports/STM32/LLD/I2Cv1/hal_i2c_lld.o (symbol from plugin)
                                                  .build/obj_vessel_base/lib/chibios/os/hal/ports/STM32/LLD/DMAv2/stm32_dma.o (symbol from plugin)
                                                  .build/obj_vessel_base/lib/chibios/os/hal/ports/STM32/STM32F4xx/stm32_isr.o (symbol from plugin)
__port_switch                                     .build/obj_vessel_base/./lib/chibios/os/common/ports/ARMv7-M/compilers/GCC/chcoreasm.o
                                                  C:\QMK_MSYS\tmp\cchXQqT6.ltrans0.ltrans.o
                                                  .build/obj_vessel_base/lib/chibios/os/rt/src/chschd.o (symbol from plugin)
__port_switch_from_isr                            .build/obj_vessel_base/./lib/chibios/os/common/ports/ARMv7-M/compilers/GCC/chcoreasm.o
                                                  C:\QMK_MSYS\tmp\cchXQqT6.ltrans0.ltrans.o
                                                  .build/obj_vessel_base/lib/chibios/os/common/ports/ARMv7-M/chcore.o (symbol from plugin)
__port_thread_start                               .build/obj_vessel_base/./lib/chibios/os/common/ports/ARMv7-M/compilers/GCC/chcoreasm.o
                                                  C:\QMK_MSYS\tmp\cchXQqT6.ltrans0.ltrans.o
                                                  .build/obj_vessel_base/lib/chibios/os/rt/src/chthreads.o (symbol from plugin)
__process_stack_base__                            .build/obj_vessel_base/./lib/chibios/os/common/startup/ARMCMx/compilers/GCC/crt0_v7m.o
__process_stack_end__                             .build/obj_vessel_base/./lib/chibios/os/common/startup/ARMCMx/compilers/GCC/crt0_v7m.o
__ram0_clear__                                    C:\QMK_MSYS\tmp\cchXQqT6.ltrans0.ltrans.o
                                                  .build/obj_vessel_base/lib/chibios/os/common/startup/ARMCMx/compilers/GCC/crt1.o (symbol from plugin)
__ram0_end__                                      C:\QMK_MSYS\tmp\cchXQqT6.ltrans0.ltrans.o
                                                  .build/obj_vessel_base/platforms/chibios/bootloaders/stm32_dfu.o (symbol from plugin)
__ram0_init__                                     C:\QMK_MSYS\tmp\cchXQqT6.ltrans0.ltrans.o
                                                  .build/obj_vessel_base/lib/chibios/os/common/startup/ARMCMx/compilers/GCC/crt1.o (symbol from plugin)
__ram0_init_text__                                C:\QMK_MSYS\tmp\cchXQqT6.ltrans0.ltrans.o
                                                  .build/obj_vessel_base/lib/chibios/os/common/startup/ARMCMx/compilers/GCC/crt1.o (symbol from plugin)
__ram0_noinit__                                   C:\QMK_MSYS\tmp\cchXQqT6.ltrans0.ltrans.o
                                                  .build/obj_vessel_base/lib/chibios/os/common/startup/ARMCMx/compilers/GCC/crt1.o (symbol from plugin)
__ram1_clear__                                    C:\QMK_MSYS\tmp\cchXQqT6.ltrans0.ltrans.o
                                                  .build/obj_vessel_base/lib/chibios/os/common/startup/ARMCMx/compilers/GCC/crt1.o (symbol from plugin)
__ram1_init__                                     C:\QMK_MSYS\tmp\cchXQqT6.ltrans0.ltrans.o
                                                  .build/obj_vessel_base/lib/chibios/os/common/startup/ARMCMx/compilers/GCC/crt1.o (symbol from plugin)
__ram1_init_text__                                C:\QMK_MSYS\tmp\cchXQqT6.ltrans0.ltrans.o
                                                  .build/obj_vessel_base/lib/chibios/os/common/startup/ARMCMx/compilers/GCC/crt1.o (symbol from plugin)
__ram1_noinit__                                   C:\QMK_MSYS\tmp\cchXQqT6.ltrans0.ltrans.o
                                                  .build/obj_vessel_base/lib/chibios/os/common/startup/ARMCMx/compilers/GCC/crt1.o (symbol from plugin)
__ram2_clear__                                    C:\QMK_MSYS\tmp\cchXQqT6.ltrans0.ltrans.o
                                                  .build/obj_vessel_base/lib/chibios/os/common/startup/ARMCMx/compilers/GCC/crt1.o (symbol from plugin)
__ram2_init__                                     C:\QMK_MSYS\tmp\cchXQqT6.ltrans0.ltrans.o
                                                  .build/obj_vessel_base/lib/chibios/os/common/startup/ARMCMx/compilers/GCC/crt1.o (symbol from plugin)
__ram2_init_text__                                C:\QMK_MSYS\tmp\cchXQqT6.ltrans0.ltrans.o
                                                  .build/obj_vessel_base/lib/chibios/os/common/startup/ARMCMx/compilers/GCC/crt1.o (symbol from plugin)
__ram2_noinit__                                   C:\QMK_MSYS\tmp\cchXQqT6.ltrans0.ltrans.o
                                                  .build/obj_vessel_base/lib/chibios/os/common/startup/ARMCMx/compilers/GCC/crt1.o (symbol from plugin)
__ram3_clear__                                    C:\QMK_MSYS\tmp\cchXQqT6.ltrans0.ltrans.o
                                                  .build/obj_vessel_base/lib/chibios/os/common/startup/ARMCMx/compilers/GCC/crt1.o (symbol from plugin)
__ram3_init__                                     C:\QMK_MSYS\tmp\cchXQqT6.ltrans0.ltrans.o
                                                  .build/obj_vessel_base/lib/chibios/os/common/startup/ARMCMx/compilers/GCC/crt1.o (symbol from plugin)
__ram3_init_text__                                C:\QMK_MSYS\tmp\cchXQqT6.ltrans0.ltrans.o
                                                  .build/obj_vessel_base/lib/chibios/os/common/startup/ARMCMx/compilers/GCC/crt1.o (symbol from plugin)
__ram3_noinit__                                   C:\QMK_MSYS\tmp\cchXQqT6.ltrans0.ltrans.o
                                                  .build/obj_vessel_base/lib/chibios/os/common/startup/ARMCMx/compilers/GCC/crt1.o (symbol from plugin)
__ram4_clear__                                    C:\QMK_MSYS\tmp\cchXQqT6.ltrans0.ltrans.o
                                                  .build/obj_vessel_base/lib/chibios/os/common/startup/ARMCMx/compilers/GCC/crt1.o (symbol from plugin)
__ram4_init__                                     C:\QMK_MSYS\tmp\cchXQqT6.ltrans0.ltrans.o
                                                  .build/obj_vessel_base/lib/chibios/os/common/startup/ARMCMx/compilers/GCC/crt1.o (symbol from plugin)
__ram4_init_text__                                C:\QMK_MSYS\tmp\cchXQqT6.ltrans0.ltrans.o
                                                  .build/obj_vessel_base/lib/chibios/os/common/startup/ARMCMx/compilers/GCC/crt1.o (symbol from plugin)
__ram4_noinit__                                   C:\QMK_MSYS\tmp\cchXQqT6.ltrans0.ltrans.o
                                                  .build/obj_vessel_base/lib/chibios/os/common/startup/ARMCMx/compilers/GCC/crt1.o (symbol from plugin)
__ram5_clear__                                    C:\QMK_MSYS\tmp\cchXQqT6.ltrans0.ltrans.o
                                                  .build/obj_vessel_base/lib/chibios/os/common/startup/ARMCMx/compilers/GCC/crt1.o (symbol from plugin)
__ram5_init__                                     C:\QMK_MSYS\tmp\cchXQqT6.ltrans0.ltrans.o
                                                  .build/obj_vessel_base/lib/chibios/os/common/startup/ARMCMx/compilers/GCC/crt1.o (symbol from plugin)
__ram5_init_text__                                C:\QMK_MSYS\tmp\cchXQqT6.ltrans0.ltrans.o
                                                  .build/obj_vessel_base/lib/chibios/os/common/startup/ARMCMx/compilers/GCC/crt1.o (symbol from plugin)
__ram5_noinit__                                   C:\QMK_MSYS\tmp\cchXQqT6.ltrans0.ltrans.o
                                                  .build/obj_vessel_base/lib/chibios/os/common/startup/ARMCMx/compilers/GCC/crt1.o (symbol from plugin)
__ram6_clear__                                    C:\QMK_MSYS\tmp\cchXQqT6.ltrans0.ltrans.o
                                                  .build/obj_vessel_base/lib/chibios/os/common/startup/ARMCMx/compilers/GCC/crt1.o (symbol from plugin)
__ram6_init__                                     C:\QMK_MSYS\tmp\cchXQqT6.ltrans0.ltrans.o
                                                  .build/obj_vessel_base/lib/chibios/os/common/startup/ARMCMx/compilers/GCC/crt1.o (symbol from plugin)
__ram6_init_text__                                C:\QMK_MSYS\tmp\cchXQqT6.ltrans0.ltrans.o
                                                  .build/obj_vessel_base/lib/chibios/os/common/startup/ARMCMx/compilers/GCC/crt1.o (symbol from plugin)
__ram6_noinit__                                   C:\QMK_MSYS\tmp\cchXQqT6.ltrans0.ltrans.o
                                                  .build/obj_vessel_base/lib/chibios/os/common/startup/ARMCMx/compilers/GCC/crt1.o (symbol from plugin)
__ram7_clear__                                    C:\QMK_MSYS\tmp\cchXQqT6.ltrans0.ltrans.o
                                                  .build/obj_vessel_base/lib/chibios/os/common/startup/ARMCMx/compilers/GCC/crt1.o (symbol from plugin)
__ram7_init__                                     C:\QMK_MSYS\tmp\cchXQqT6.ltrans0.ltrans.o
                                                  .build/obj_vessel_base/lib/chibios/os/common/startup/ARMCMx/compilers/GCC/crt1.o (symbol from plugin)
__ram7_init_text__                                C:\QMK_MSYS\tmp\cchXQqT6.ltrans0.ltrans.o
                                                  .build/obj_vessel_base/lib/chibios/os/common/startup/ARMCMx/compilers/GCC/crt1.o (symbol from plugin)
__ram7_noinit__                                   C:\QMK_MSYS\tmp\cchXQqT6.ltrans0.ltrans.o
                                                  .build/obj_vessel_base/lib/chibios/os/common/startup/ARMCMx/compilers/GCC/crt1.o (symbol from plugin)
__retarget_lock_acquire                           c:/qmk_msys/mingw64/bin/../lib/gcc/arm-none-eabi/12.2.0/../../../../arm-none-eabi/lib/thumb/v7e-m+fp/hard\libg_nano.a(libc_a-lock.o)
__retarget_lock_acquire_recursive                 c:/qmk_msys/mingw64/bin/../lib/gcc/arm-none-eabi/12.2.0/../../../../arm-none-eabi/lib/thumb/v7e-m+fp/hard\libg_nano.a(libc_a-lock.o)
                                                  c:/qmk_msys/mingw64/bin/../lib/gcc/arm-none-eabi/12.2.0/../../../../arm-none-eabi/lib/thumb/v7e-m+fp/hard\libg_nano.a(libc_a-fflush.o)
                                                  c:/qmk_msys/mingw64/bin/../lib/gcc/arm-none-eabi/12.2.0/../../../../arm-none-eabi/lib/thumb/v7e-m+fp/hard\libg_nano.a(libc_a-findfp.o)
                                                  c:/qmk_msys/mingw64/bin/../lib/gcc/arm-none-eabi/12.2.0/../../../../arm-none-eabi/lib/thumb/v7e-m+fp/hard\libg_nano.a(libc_a-nano-vfprintf.o)
                                                  c:/qmk_msys/mingw64/bin/../lib/gcc/arm-none-eabi/12.2.0/../../../../arm-none-eabi/lib/thumb/v7e-m+fp/hard\libg_nano.a(libc_a-mlock.o)
__retarget_lock_close                             c:/qmk_msys/mingw64/bin/../lib/gcc/arm-none-eabi/12.2.0/../../../../arm-none-eabi/lib/thumb/v7e-m+fp/hard\libg_nano.a(libc_a-lock.o)
__retarget_lock_close_recursive                   c:/qmk_msys/mingw64/bin/../lib/gcc/arm-none-eabi/12.2.0/../../../../arm-none-eabi/lib/thumb/v7e-m+fp/hard\libg_nano.a(libc_a-lock.o)
__retarget_lock_init                              c:/qmk_msys/mingw64/bin/../lib/gcc/arm-none-eabi/12.2.0/../../../../arm-none-eabi/lib/thumb/v7e-m+fp/hard\libg_nano.a(libc_a-lock.o)
__retarget_lock_init_recursive                    c:/qmk_msys/mingw64/bin/../lib/gcc/arm-none-eabi/12.2.0/../../../../arm-none-eabi/lib/thumb/v7e-m+fp/hard\libg_nano.a(libc_a-lock.o)
                                                  c:/qmk_msys/mingw64/bin/../lib/gcc/arm-none-eabi/12.2.0/../../../../arm-none-eabi/lib/thumb/v7e-m+fp/hard\libg_nano.a(libc_a-findfp.o)
__retarget_lock_release                           c:/qmk_msys/mingw64/bin/../lib/gcc/arm-none-eabi/12.2.0/../../../../arm-none-eabi/lib/thumb/v7e-m+fp/hard\libg_nano.a(libc_a-lock.o)
__retarget_lock_release_recursive                 c:/qmk_msys/mingw64/bin/../lib/gcc/arm-none-eabi/12.2.0/../../../../arm-none-eabi/lib/thumb/v7e-m+fp/hard\libg_nano.a(libc_a-lock.o)
                                                  c:/qmk_msys/mingw64/bin/../lib/gcc/arm-none-eabi/12.2.0/../../../../arm-none-eabi/lib/thumb/v7e-m+fp/hard\libg_nano.a(libc_a-fflush.o)
                                                  c:/qmk_msys/mingw64/bin/../lib/gcc/arm-none-eabi/12.2.0/../../../../arm-none-eabi/lib/thumb/v7e-m+fp/hard\libg_nano.a(libc_a-findfp.o)
                                                  c:/qmk_msys/mingw64/bin/../lib/gcc/arm-none-eabi/12.2.0/../../../../arm-none-eabi/lib/thumb/v7e-m+fp/hard\libg_nano.a(libc_a-nano-vfprintf.o)
                                                  c:/qmk_msys/mingw64/bin/../lib/gcc/arm-none-eabi/12.2.0/../../../../arm-none-eabi/lib/thumb/v7e-m+fp/hard\libg_nano.a(libc_a-mlock.o)
__retarget_lock_try_acquire                       c:/qmk_msys/mingw64/bin/../lib/gcc/arm-none-eabi/12.2.0/../../../../arm-none-eabi/lib/thumb/v7e-m+fp/hard\libg_nano.a(libc_a-lock.o)
__retarget_lock_try_acquire_recursive             c:/qmk_msys/mingw64/bin/../lib/gcc/arm-none-eabi/12.2.0/../../../../arm-none-eabi/lib/thumb/v7e-m+fp/hard\libg_nano.a(libc_a-lock.o)
__sclose                                          c:/qmk_msys/mingw64/bin/../lib/gcc/arm-none-eabi/12.2.0/../../../../arm-none-eabi/lib/thumb/v7e-m+fp/hard\libg_nano.a(libc_a-stdio.o)
                                                  c:/qmk_msys/mingw64/bin/../lib/gcc/arm-none-eabi/12.2.0/../../../../arm-none-eabi/lib/thumb/v7e-m+fp/hard\libg_nano.a(libc_a-findfp.o)
__seofread                                        c:/qmk_msys/mingw64/bin/../lib/gcc/arm-none-eabi/12.2.0/../../../../arm-none-eabi/lib/thumb/v7e-m+fp/hard\libg_nano.a(libc_a-stdio.o)
__sf                                              c:/qmk_msys/mingw64/bin/../lib/gcc/arm-none-eabi/12.2.0/../../../../arm-none-eabi/lib/thumb/v7e-m+fp/hard\libg_nano.a(libc_a-findfp.o)
                                                  c:/qmk_msys/mingw64/bin/../lib/gcc/arm-none-eabi/12.2.0/../../../../arm-none-eabi/lib/thumb/v7e-m+fp/hard\libg_nano.a(libc_a-impure.o)
__sflush_r                                        c:/qmk_msys/mingw64/bin/../lib/gcc/arm-none-eabi/12.2.0/../../../../arm-none-eabi/lib/thumb/v7e-m+fp/hard\libg_nano.a(libc_a-fflush.o)
__sfp                                             c:/qmk_msys/mingw64/bin/../lib/gcc/arm-none-eabi/12.2.0/../../../../arm-none-eabi/lib/thumb/v7e-m+fp/hard\libg_nano.a(libc_a-findfp.o)
__sfp_lock_acquire                                c:/qmk_msys/mingw64/bin/../lib/gcc/arm-none-eabi/12.2.0/../../../../arm-none-eabi/lib/thumb/v7e-m+fp/hard\libg_nano.a(libc_a-findfp.o)
__sfp_lock_release                                c:/qmk_msys/mingw64/bin/../lib/gcc/arm-none-eabi/12.2.0/../../../../arm-none-eabi/lib/thumb/v7e-m+fp/hard\libg_nano.a(libc_a-findfp.o)
__sfputs_r                                        c:/qmk_msys/mingw64/bin/../lib/gcc/arm-none-eabi/12.2.0/../../../../arm-none-eabi/lib/thumb/v7e-m+fp/hard\libg_nano.a(libc_a-nano-vfprintf.o)
__sfvwrite_r                                      c:/qmk_msys/mingw64/bin/../lib/gcc/arm-none-eabi/12.2.0/../../../../arm-none-eabi/lib/thumb/v7e-m+fp/hard\libg_nano.a(libc_a-fvwrite.o)
                                                  c:/qmk_msys/mingw64/bin/../lib/gcc/arm-none-eabi/12.2.0/../../../../arm-none-eabi/lib/thumb/v7e-m+fp/hard\libg_nano.a(libc_a-nano-vfprintf.o)
__sglue                                           c:/qmk_msys/mingw64/bin/../lib/gcc/arm-none-eabi/12.2.0/../../../../arm-none-eabi/lib/thumb/v7e-m+fp/hard\libg_nano.a(libc_a-findfp.o)
                                                  c:/qmk_msys/mingw64/bin/../lib/gcc/arm-none-eabi/12.2.0/../../../../arm-none-eabi/lib/thumb/v7e-m+fp/hard\libg_nano.a(libc_a-fflush.o)
__sigtramp                                        c:/qmk_msys/mingw64/bin/../lib/gcc/arm-none-eabi/12.2.0/../../../../arm-none-eabi/lib/thumb/v7e-m+fp/hard\libg_nano.a(libc_a-signal.o)
__sigtramp_r                                      c:/qmk_msys/mingw64/bin/../lib/gcc/arm-none-eabi/12.2.0/../../../../arm-none-eabi/lib/thumb/v7e-m+fp/hard\libg_nano.a(libc_a-signal.o)
__sinit                                           c:/qmk_msys/mingw64/bin/../lib/gcc/arm-none-eabi/12.2.0/../../../../arm-none-eabi/lib/thumb/v7e-m+fp/hard\libg_nano.a(libc_a-findfp.o)
                                                  c:/qmk_msys/mingw64/bin/../lib/gcc/arm-none-eabi/12.2.0/../../../../arm-none-eabi/lib/thumb/v7e-m+fp/hard\libg_nano.a(libc_a-fflush.o)
                                                  c:/qmk_msys/mingw64/bin/../lib/gcc/arm-none-eabi/12.2.0/../../../../arm-none-eabi/lib/thumb/v7e-m+fp/hard\libg_nano.a(libc_a-wsetup.o)
                                                  c:/qmk_msys/mingw64/bin/../lib/gcc/arm-none-eabi/12.2.0/../../../../arm-none-eabi/lib/thumb/v7e-m+fp/hard\libg_nano.a(libc_a-wbuf.o)
                                                  c:/qmk_msys/mingw64/bin/../lib/gcc/arm-none-eabi/12.2.0/../../../../arm-none-eabi/lib/thumb/v7e-m+fp/hard\libg_nano.a(libc_a-nano-vfprintf.o)
__smakebuf_r                                      c:/qmk_msys/mingw64/bin/../lib/gcc/arm-none-eabi/12.2.0/../../../../arm-none-eabi/lib/thumb/v7e-m+fp/hard\libg_nano.a(libc_a-makebuf.o)
                                                  c:/qmk_msys/mingw64/bin/../lib/gcc/arm-none-eabi/12.2.0/../../../../arm-none-eabi/lib/thumb/v7e-m+fp/hard\libg_nano.a(libc_a-wsetup.o)
__sprint_r                                        c:/qmk_msys/mingw64/bin/../lib/gcc/arm-none-eabi/12.2.0/../../../../arm-none-eabi/lib/thumb/v7e-m+fp/hard\libg_nano.a(libc_a-nano-vfprintf.o)
__sread                                           c:/qmk_msys/mingw64/bin/../lib/gcc/arm-none-eabi/12.2.0/../../../../arm-none-eabi/lib/thumb/v7e-m+fp/hard\libg_nano.a(libc_a-stdio.o)
                                                  c:/qmk_msys/mingw64/bin/../lib/gcc/arm-none-eabi/12.2.0/../../../../arm-none-eabi/lib/thumb/v7e-m+fp/hard\libg_nano.a(libc_a-findfp.o)
__sseek                                           c:/qmk_msys/mingw64/bin/../lib/gcc/arm-none-eabi/12.2.0/../../../../arm-none-eabi/lib/thumb/v7e-m+fp/hard\libg_nano.a(libc_a-stdio.o)
                                                  c:/qmk_msys/mingw64/bin/../lib/gcc/arm-none-eabi/12.2.0/../../../../arm-none-eabi/lib/thumb/v7e-m+fp/hard\libg_nano.a(libc_a-findfp.o)
__stdio_exit_handler                              c:/qmk_msys/mingw64/bin/../lib/gcc/arm-none-eabi/12.2.0/../../../../arm-none-eabi/lib/thumb/v7e-m+fp/hard\libg_nano.a(libc_a-findfp.o)
__swbuf                                           c:/qmk_msys/mingw64/bin/../lib/gcc/arm-none-eabi/12.2.0/../../../../arm-none-eabi/lib/thumb/v7e-m+fp/hard\libg_nano.a(libc_a-wbuf.o)
__swbuf_r                                         c:/qmk_msys/mingw64/bin/../lib/gcc/arm-none-eabi/12.2.0/../../../../arm-none-eabi/lib/thumb/v7e-m+fp/hard\libg_nano.a(libc_a-wbuf.o)
                                                  c:/qmk_msys/mingw64/bin/../lib/gcc/arm-none-eabi/12.2.0/../../../../arm-none-eabi/lib/thumb/v7e-m+fp/hard\libg_nano.a(libc_a-nano-vfprintf.o)
__swhatbuf_r                                      c:/qmk_msys/mingw64/bin/../lib/gcc/arm-none-eabi/12.2.0/../../../../arm-none-eabi/lib/thumb/v7e-m+fp/hard\libg_nano.a(libc_a-makebuf.o)
__swrite                                          c:/qmk_msys/mingw64/bin/../lib/gcc/arm-none-eabi/12.2.0/../../../../arm-none-eabi/lib/thumb/v7e-m+fp/hard\libg_nano.a(libc_a-stdio.o)
                                                  c:/qmk_msys/mingw64/bin/../lib/gcc/arm-none-eabi/12.2.0/../../../../arm-none-eabi/lib/thumb/v7e-m+fp/hard\libg_nano.a(libc_a-findfp.o)
__swsetup_r                                       c:/qmk_msys/mingw64/bin/../lib/gcc/arm-none-eabi/12.2.0/../../../../arm-none-eabi/lib/thumb/v7e-m+fp/hard\libg_nano.a(libc_a-wsetup.o)
                                                  c:/qmk_msys/mingw64/bin/../lib/gcc/arm-none-eabi/12.2.0/../../../../arm-none-eabi/lib/thumb/v7e-m+fp/hard\libg_nano.a(libc_a-wbuf.o)
                                                  c:/qmk_msys/mingw64/bin/../lib/gcc/arm-none-eabi/12.2.0/../../../../arm-none-eabi/lib/thumb/v7e-m+fp/hard\libg_nano.a(libc_a-fvwrite.o)
                                                  c:/qmk_msys/mingw64/bin/../lib/gcc/arm-none-eabi/12.2.0/../../../../arm-none-eabi/lib/thumb/v7e-m+fp/hard\libg_nano.a(libc_a-nano-vfprintf.o)
__textdata_base__                                 .build/obj_vessel_base/./lib/chibios/os/common/startup/ARMCMx/compilers/GCC/crt0_v7m.o
__thd_object_init                                 .build/obj_vessel_base/lib/chibios/os/rt/src/chthreads.o (symbol from plugin)
                                                  .build/obj_vessel_base/lib/chibios/os/rt/src/chinstances.o (symbol from plugin)
__udivmoddi4                                      c:/qmk_msys/mingw64/bin/../lib/gcc/arm-none-eabi/12.2.0/thumb/v7e-m+fp/hard\libgcc.a(_udivmoddi4.o)
                                                  c:/qmk_msys/mingw64/bin/../lib/gcc/arm-none-eabi/12.2.0/thumb/v7e-m+fp/hard\libgcc.a(_aeabi_uldivmod.o)
                                                  c:/qmk_msys/mingw64/bin/../lib/gcc/arm-none-eabi/12.2.0/thumb/v7e-m+fp/hard\libgcc.a(_aeabi_ldivmod.o)
_close_r                                          C:\QMK_MSYS\tmp\cchXQqT6.ltrans0.ltrans.o
                                                  .build/obj_vessel_base/lib/chibios/os/various/syscalls.o (symbol from plugin)
                                                  c:/qmk_msys/mingw64/bin/../lib/gcc/arm-none-eabi/12.2.0/../../../../arm-none-eabi/lib/thumb/v7e-m+fp/hard\libg_nano.a(libc_a-stdio.o)
_crt0_entry                                       .build/obj_vessel_base/./lib/chibios/os/common/startup/ARMCMx/compilers/GCC/crt0_v7m.o
                                                  .build/obj_vessel_base/./lib/chibios/os/common/startup/ARMCMx/compilers/GCC/vectors.o
_ctype_                                           c:/qmk_msys/mingw64/bin/../lib/gcc/arm-none-eabi/12.2.0/../../../../arm-none-eabi/lib/thumb/v7e-m+fp/hard\libg_nano.a(libc_a-ctype_.o)
                                                  .build/obj_vessel_base/lib/chibios/os/hal/lib/streams/chscanf.o (symbol from plugin)
                                                  .build/obj_vessel_base/quantum/send_string/send_string.o (symbol from plugin)
_exit                                             C:\QMK_MSYS\tmp\cchXQqT6.ltrans0.ltrans.o
                                                  .build/obj_vessel_base/lib/chibios/os/various/syscalls.o (symbol from plugin)
                                                  c:/qmk_msys/mingw64/bin/../lib/gcc/arm-none-eabi/12.2.0/../../../../arm-none-eabi/lib/thumb/v7e-m+fp/hard\libg_nano.a(libc_a-abort.o)
_fflush_r                                         c:/qmk_msys/mingw64/bin/../lib/gcc/arm-none-eabi/12.2.0/../../../../arm-none-eabi/lib/thumb/v7e-m+fp/hard\libg_nano.a(libc_a-fflush.o)
                                                  c:/qmk_msys/mingw64/bin/../lib/gcc/arm-none-eabi/12.2.0/../../../../arm-none-eabi/lib/thumb/v7e-m+fp/hard\libg_nano.a(libc_a-wbuf.o)
                                                  c:/qmk_msys/mingw64/bin/../lib/gcc/arm-none-eabi/12.2.0/../../../../arm-none-eabi/lib/thumb/v7e-m+fp/hard\libg_nano.a(libc_a-fvwrite.o)
                                                  c:/qmk_msys/mingw64/bin/../lib/gcc/arm-none-eabi/12.2.0/../../../../arm-none-eabi/lib/thumb/v7e-m+fp/hard\libg_nano.a(libc_a-findfp.o)
_fini                                             C:\QMK_MSYS\tmp\cchXQqT6.ltrans0.ltrans.o
                                                  .build/obj_vessel_base/platforms/chibios/syscall-fallbacks.o (symbol from plugin)
_fiprintf_r                                       c:/qmk_msys/mingw64/bin/../lib/gcc/arm-none-eabi/12.2.0/../../../../arm-none-eabi/lib/thumb/v7e-m+fp/hard\libg_nano.a(libc_a-fprintf.o)
_fprintf_r                                        c:/qmk_msys/mingw64/bin/../lib/gcc/arm-none-eabi/12.2.0/../../../../arm-none-eabi/lib/thumb/v7e-m+fp/hard\libg_nano.a(libc_a-fprintf.o)
_free_r                                           c:/qmk_msys/mingw64/bin/../lib/gcc/arm-none-eabi/12.2.0/../../../../arm-none-eabi/lib/thumb/v7e-m+fp/hard\libg_nano.a(libc_a-freer.o)
                                                  c:/qmk_msys/mingw64/bin/../lib/gcc/arm-none-eabi/12.2.0/../../../../arm-none-eabi/lib/thumb/v7e-m+fp/hard\libg_nano.a(libc_a-reent.o)
                                                  c:/qmk_msys/mingw64/bin/../lib/gcc/arm-none-eabi/12.2.0/../../../../arm-none-eabi/lib/thumb/v7e-m+fp/hard\libg_nano.a(libc_a-fflush.o)
                                                  c:/qmk_msys/mingw64/bin/../lib/gcc/arm-none-eabi/12.2.0/../../../../arm-none-eabi/lib/thumb/v7e-m+fp/hard\libg_nano.a(libc_a-reallocr.o)
                                                  c:/qmk_msys/mingw64/bin/../lib/gcc/arm-none-eabi/12.2.0/../../../../arm-none-eabi/lib/thumb/v7e-m+fp/hard\libg_nano.a(libc_a-wsetup.o)
                                                  c:/qmk_msys/mingw64/bin/../lib/gcc/arm-none-eabi/12.2.0/../../../../arm-none-eabi/lib/thumb/v7e-m+fp/hard\libg_nano.a(libc_a-fvwrite.o)
                                                  c:/qmk_msys/mingw64/bin/../lib/gcc/arm-none-eabi/12.2.0/../../../../arm-none-eabi/lib/thumb/v7e-m+fp/hard\libg_nano.a(libc_a-malloc.o)
_fstat_r                                          C:\QMK_MSYS\tmp\cchXQqT6.ltrans0.ltrans.o
                                                  .build/obj_vessel_base/lib/chibios/os/various/syscalls.o (symbol from plugin)
                                                  c:/qmk_msys/mingw64/bin/../lib/gcc/arm-none-eabi/12.2.0/../../../../arm-none-eabi/lib/thumb/v7e-m+fp/hard\libg_nano.a(libc_a-makebuf.o)
_fwalk_sglue                                      c:/qmk_msys/mingw64/bin/../lib/gcc/arm-none-eabi/12.2.0/../../../../arm-none-eabi/lib/thumb/v7e-m+fp/hard\libg_nano.a(libc_a-fwalk.o)
                                                  c:/qmk_msys/mingw64/bin/../lib/gcc/arm-none-eabi/12.2.0/../../../../arm-none-eabi/lib/thumb/v7e-m+fp/hard\libg_nano.a(libc_a-fflush.o)
                                                  c:/qmk_msys/mingw64/bin/../lib/gcc/arm-none-eabi/12.2.0/../../../../arm-none-eabi/lib/thumb/v7e-m+fp/hard\libg_nano.a(libc_a-findfp.o)
_getpid                                           C:\QMK_MSYS\tmp\cchXQqT6.ltrans0.ltrans.o
                                                  .build/obj_vessel_base/lib/chibios/os/various/syscalls.o (symbol from plugin)
                                                  c:/qmk_msys/mingw64/bin/../lib/gcc/arm-none-eabi/12.2.0/../../../../arm-none-eabi/lib/thumb/v7e-m+fp/hard\libg_nano.a(libc_a-signalr.o)
_getpid_r                                         c:/qmk_msys/mingw64/bin/../lib/gcc/arm-none-eabi/12.2.0/../../../../arm-none-eabi/lib/thumb/v7e-m+fp/hard\libg_nano.a(libc_a-signalr.o)
                                                  c:/qmk_msys/mingw64/bin/../lib/gcc/arm-none-eabi/12.2.0/../../../../arm-none-eabi/lib/thumb/v7e-m+fp/hard\libg_nano.a(libc_a-signal.o)
_gettimeofday_r                                   C:\QMK_MSYS\tmp\cchXQqT6.ltrans0.ltrans.o
                                                  .build/obj_vessel_base/platforms/chibios/syscall-fallbacks.o (symbol from plugin)
_impure_data                                      c:/qmk_msys/mingw64/bin/../lib/gcc/arm-none-eabi/12.2.0/../../../../arm-none-eabi/lib/thumb/v7e-m+fp/hard\libg_nano.a(libc_a-impure.o)
                                                  c:/qmk_msys/mingw64/bin/../lib/gcc/arm-none-eabi/12.2.0/../../../../arm-none-eabi/lib/thumb/v7e-m+fp/hard\libg_nano.a(libc_a-fflush.o)
                                                  c:/qmk_msys/mingw64/bin/../lib/gcc/arm-none-eabi/12.2.0/../../../../arm-none-eabi/lib/thumb/v7e-m+fp/hard\libg_nano.a(libc_a-findfp.o)
_impure_ptr                                       c:/qmk_msys/mingw64/bin/../lib/gcc/arm-none-eabi/12.2.0/../../../../arm-none-eabi/lib/thumb/v7e-m+fp/hard\libg_nano.a(libc_a-impure.o)
                                                  c:/qmk_msys/mingw64/bin/../lib/gcc/arm-none-eabi/12.2.0/../../../../arm-none-eabi/lib/thumb/v7e-m+fp/hard\libg_nano.a(libc_a-reent.o)
                                                  c:/qmk_msys/mingw64/bin/../lib/gcc/arm-none-eabi/12.2.0/../../../../arm-none-eabi/lib/thumb/v7e-m+fp/hard\libg_nano.a(libc_a-fflush.o)
                                                  c:/qmk_msys/mingw64/bin/../lib/gcc/arm-none-eabi/12.2.0/../../../../arm-none-eabi/lib/thumb/v7e-m+fp/hard\libg_nano.a(libc_a-signal.o)
                                                  c:/qmk_msys/mingw64/bin/../lib/gcc/arm-none-eabi/12.2.0/../../../../arm-none-eabi/lib/thumb/v7e-m+fp/hard\libg_nano.a(libc_a-wsetup.o)
                                                  c:/qmk_msys/mingw64/bin/../lib/gcc/arm-none-eabi/12.2.0/../../../../arm-none-eabi/lib/thumb/v7e-m+fp/hard\libg_nano.a(libc_a-wbuf.o)
                                                  c:/qmk_msys/mingw64/bin/../lib/gcc/arm-none-eabi/12.2.0/../../../../arm-none-eabi/lib/thumb/v7e-m+fp/hard\libg_nano.a(libc_a-nano-vfprintf.o)
                                                  c:/qmk_msys/mingw64/bin/../lib/gcc/arm-none-eabi/12.2.0/../../../../arm-none-eabi/lib/thumb/v7e-m+fp/hard\libg_nano.a(libc_a-fprintf.o)
                                                  c:/qmk_msys/mingw64/bin/../lib/gcc/arm-none-eabi/12.2.0/../../../../arm-none-eabi/lib/thumb/v7e-m+fp/hard\libg_nano.a(libc_a-malloc.o)
                                                  c:/qmk_msys/mingw64/bin/../lib/gcc/arm-none-eabi/12.2.0/../../../../arm-none-eabi/lib/thumb/v7e-m+fp/hard\libg_nano.a(libc_a-assert.o)
                                                  c:/qmk_msys/mingw64/bin/../lib/gcc/arm-none-eabi/12.2.0/../../../../arm-none-eabi/lib/thumb/v7e-m+fp/hard\libg_nano.a(libc_a-errno.o)
                                                  c:/qmk_msys/mingw64/bin/../lib/gcc/arm-none-eabi/12.2.0/../../../../arm-none-eabi/lib/thumb/v7e-m+fp/hard\libg_nano.a(libc_a-rand.o)
_init_signal                                      c:/qmk_msys/mingw64/bin/../lib/gcc/arm-none-eabi/12.2.0/../../../../arm-none-eabi/lib/thumb/v7e-m+fp/hard\libg_nano.a(libc_a-signal.o)
_init_signal_r                                    c:/qmk_msys/mingw64/bin/../lib/gcc/arm-none-eabi/12.2.0/../../../../arm-none-eabi/lib/thumb/v7e-m+fp/hard\libg_nano.a(libc_a-signal.o)
_isatty_r                                         C:\QMK_MSYS\tmp\cchXQqT6.ltrans0.ltrans.o
                                                  .build/obj_vessel_base/lib/chibios/os/various/syscalls.o (symbol from plugin)
                                                  c:/qmk_msys/mingw64/bin/../lib/gcc/arm-none-eabi/12.2.0/../../../../arm-none-eabi/lib/thumb/v7e-m+fp/hard\libg_nano.a(libc_a-makebuf.o)
_kill                                             C:\QMK_MSYS\tmp\cchXQqT6.ltrans0.ltrans.o
                                                  .build/obj_vessel_base/lib/chibios/os/various/syscalls.o (symbol from plugin)
                                                  c:/qmk_msys/mingw64/bin/../lib/gcc/arm-none-eabi/12.2.0/../../../../arm-none-eabi/lib/thumb/v7e-m+fp/hard\libg_nano.a(libc_a-signalr.o)
_kill_r                                           c:/qmk_msys/mingw64/bin/../lib/gcc/arm-none-eabi/12.2.0/../../../../arm-none-eabi/lib/thumb/v7e-m+fp/hard\libg_nano.a(libc_a-signalr.o)
                                                  c:/qmk_msys/mingw64/bin/../lib/gcc/arm-none-eabi/12.2.0/../../../../arm-none-eabi/lib/thumb/v7e-m+fp/hard\libg_nano.a(libc_a-signal.o)
_link_r                                           C:\QMK_MSYS\tmp\cchXQqT6.ltrans0.ltrans.o
                                                  .build/obj_vessel_base/platforms/chibios/syscall-fallbacks.o (symbol from plugin)
_lseek_r                                          C:\QMK_MSYS\tmp\cchXQqT6.ltrans0.ltrans.o
                                                  .build/obj_vessel_base/lib/chibios/os/various/syscalls.o (symbol from plugin)
                                                  c:/qmk_msys/mingw64/bin/../lib/gcc/arm-none-eabi/12.2.0/../../../../arm-none-eabi/lib/thumb/v7e-m+fp/hard\libg_nano.a(libc_a-stdio.o)
_malloc_r                                         c:/qmk_msys/mingw64/bin/../lib/gcc/arm-none-eabi/12.2.0/../../../../arm-none-eabi/lib/thumb/v7e-m+fp/hard\libg_nano.a(libc_a-mallocr.o)
                                                  c:/qmk_msys/mingw64/bin/../lib/gcc/arm-none-eabi/12.2.0/../../../../arm-none-eabi/lib/thumb/v7e-m+fp/hard\libg_nano.a(libc_a-makebuf.o)
                                                  c:/qmk_msys/mingw64/bin/../lib/gcc/arm-none-eabi/12.2.0/../../../../arm-none-eabi/lib/thumb/v7e-m+fp/hard\libg_nano.a(libc_a-reallocr.o)
                                                  c:/qmk_msys/mingw64/bin/../lib/gcc/arm-none-eabi/12.2.0/../../../../arm-none-eabi/lib/thumb/v7e-m+fp/hard\libg_nano.a(libc_a-signal.o)
                                                  c:/qmk_msys/mingw64/bin/../lib/gcc/arm-none-eabi/12.2.0/../../../../arm-none-eabi/lib/thumb/v7e-m+fp/hard\libg_nano.a(libc_a-fvwrite.o)
                                                  c:/qmk_msys/mingw64/bin/../lib/gcc/arm-none-eabi/12.2.0/../../../../arm-none-eabi/lib/thumb/v7e-m+fp/hard\libg_nano.a(libc_a-findfp.o)
                                                  c:/qmk_msys/mingw64/bin/../lib/gcc/arm-none-eabi/12.2.0/../../../../arm-none-eabi/lib/thumb/v7e-m+fp/hard\libg_nano.a(libc_a-malloc.o)
_malloc_usable_size_r                             c:/qmk_msys/mingw64/bin/../lib/gcc/arm-none-eabi/12.2.0/../../../../arm-none-eabi/lib/thumb/v7e-m+fp/hard\libg_nano.a(libc_a-msizer.o)
                                                  c:/qmk_msys/mingw64/bin/../lib/gcc/arm-none-eabi/12.2.0/../../../../arm-none-eabi/lib/thumb/v7e-m+fp/hard\libg_nano.a(libc_a-reallocr.o)
_open_r                                           C:\QMK_MSYS\tmp\cchXQqT6.ltrans0.ltrans.o
                                                  .build/obj_vessel_base/lib/chibios/os/various/syscalls.o (symbol from plugin)
_pal_lld_init                                     .build/obj_vessel_base/lib/chibios/os/hal/ports/STM32/LLD/GPIOv2/hal_pal_lld.o (symbol from plugin)
                                                  .build/obj_vessel_base/lib/chibios/os/hal/src/hal.o (symbol from plugin)
_pal_lld_setgroupmode                             C:\QMK_MSYS\tmp\cchXQqT6.ltrans0.ltrans.o
                                                  .build/obj_vessel_base/lib/chibios/os/hal/ports/STM32/LLD/GPIOv2/hal_pal_lld.o (symbol from plugin)
                                                  .build/obj_vessel_base/lib/chibios/os/hal/src/hal_pal.o (symbol from plugin)
                                                  .build/obj_vessel_base/i2c_master.a(i2c_master.o)
                                                  .build/obj_vessel_base/ws2812_bitbang.o (symbol from plugin)
                                                  .build/obj_vessel_base/encoder_quadrature.o (symbol from plugin)
                                                  .build/obj_vessel_base/quantum/matrix.o (symbol from plugin)
                                                  .build/obj_vessel_base/keyboards/vessel/vessel.o (symbol from plugin)
_printf_common                                    c:/qmk_msys/mingw64/bin/../lib/gcc/arm-none-eabi/12.2.0/../../../../arm-none-eabi/lib/thumb/v7e-m+fp/hard\libg_nano.a(libc_a-nano-vfprintf_i.o)
_printf_float                                     c:/qmk_msys/mingw64/bin/../lib/gcc/arm-none-eabi/12.2.0/../../../../arm-none-eabi/lib/thumb/v7e-m+fp/hard\libg_nano.a(libc_a-nano-vfprintf.o)
_printf_i                                         c:/qmk_msys/mingw64/bin/../lib/gcc/arm-none-eabi/12.2.0/../../../../arm-none-eabi/lib/thumb/v7e-m+fp/hard\libg_nano.a(libc_a-nano-vfprintf_i.o)
                                                  c:/qmk_msys/mingw64/bin/../lib/gcc/arm-none-eabi/12.2.0/../../../../arm-none-eabi/lib/thumb/v7e-m+fp/hard\libg_nano.a(libc_a-nano-vfprintf.o)
_raise_r                                          c:/qmk_msys/mingw64/bin/../lib/gcc/arm-none-eabi/12.2.0/../../../../arm-none-eabi/lib/thumb/v7e-m+fp/hard\libg_nano.a(libc_a-signal.o)
_read_r                                           C:\QMK_MSYS\tmp\cchXQqT6.ltrans0.ltrans.o
                                                  .build/obj_vessel_base/lib/chibios/os/various/syscalls.o (symbol from plugin)
                                                  c:/qmk_msys/mingw64/bin/../lib/gcc/arm-none-eabi/12.2.0/../../../../arm-none-eabi/lib/thumb/v7e-m+fp/hard\libg_nano.a(libc_a-stdio.o)
_realloc_r                                        c:/qmk_msys/mingw64/bin/../lib/gcc/arm-none-eabi/12.2.0/../../../../arm-none-eabi/lib/thumb/v7e-m+fp/hard\libg_nano.a(libc_a-reallocr.o)
                                                  c:/qmk_msys/mingw64/bin/../lib/gcc/arm-none-eabi/12.2.0/../../../../arm-none-eabi/lib/thumb/v7e-m+fp/hard\libg_nano.a(libc_a-fvwrite.o)
_reclaim_reent                                    c:/qmk_msys/mingw64/bin/../lib/gcc/arm-none-eabi/12.2.0/../../../../arm-none-eabi/lib/thumb/v7e-m+fp/hard\libg_nano.a(libc_a-reent.o)
_sbrk_r                                           C:\QMK_MSYS\tmp\cchXQqT6.ltrans0.ltrans.o
                                                  .build/obj_vessel_base/lib/chibios/os/various/syscalls.o (symbol from plugin)
                                                  c:/qmk_msys/mingw64/bin/../lib/gcc/arm-none-eabi/12.2.0/../../../../arm-none-eabi/lib/thumb/v7e-m+fp/hard\libg_nano.a(libc_a-mallocr.o)
_signal_r                                         c:/qmk_msys/mingw64/bin/../lib/gcc/arm-none-eabi/12.2.0/../../../../arm-none-eabi/lib/thumb/v7e-m+fp/hard\libg_nano.a(libc_a-signal.o)
_stm32_dma_streams                                .build/obj_vessel_base/lib/chibios/os/hal/ports/STM32/LLD/DMAv2/stm32_dma.o (symbol from plugin)
_times_r                                          C:\QMK_MSYS\tmp\cchXQqT6.ltrans0.ltrans.o
                                                  .build/obj_vessel_base/platforms/chibios/syscall-fallbacks.o (symbol from plugin)
_unhandled_exception                              .build/obj_vessel_base/./lib/chibios/os/common/startup/ARMCMx/compilers/GCC/vectors.o
_unlink_r                                         C:\QMK_MSYS\tmp\cchXQqT6.ltrans0.ltrans.o
                                                  .build/obj_vessel_base/platforms/chibios/syscall-fallbacks.o (symbol from plugin)
_usb_ep0in                                        .build/obj_vessel_base/lib/chibios/os/hal/src/hal_usb.o (symbol from plugin)
                                                  .build/obj_vessel_base/lib/chibios/os/hal/ports/STM32/LLD/OTGv1/hal_usb_lld.o (symbol from plugin)
_usb_ep0out                                       .build/obj_vessel_base/lib/chibios/os/hal/src/hal_usb.o (symbol from plugin)
                                                  .build/obj_vessel_base/lib/chibios/os/hal/ports/STM32/LLD/OTGv1/hal_usb_lld.o (symbol from plugin)
_usb_ep0setup                                     .build/obj_vessel_base/lib/chibios/os/hal/src/hal_usb.o (symbol from plugin)
                                                  .build/obj_vessel_base/lib/chibios/os/hal/ports/STM32/LLD/OTGv1/hal_usb_lld.o (symbol from plugin)
_usb_reset                                        .build/obj_vessel_base/lib/chibios/os/hal/src/hal_usb.o (symbol from plugin)
                                                  .build/obj_vessel_base/lib/chibios/os/hal/ports/STM32/LLD/OTGv1/hal_usb_lld.o (symbol from plugin)
_usb_suspend                                      .build/obj_vessel_base/lib/chibios/os/hal/src/hal_usb.o (symbol from plugin)
                                                  .build/obj_vessel_base/lib/chibios/os/hal/ports/STM32/LLD/OTGv1/hal_usb_lld.o (symbol from plugin)
_usb_wakeup                                       .build/obj_vessel_base/lib/chibios/os/hal/src/hal_usb.o (symbol from plugin)
                                                  .build/obj_vessel_base/lib/chibios/os/hal/ports/STM32/LLD/OTGv1/hal_usb_lld.o (symbol from plugin)
_vectors                                          .build/obj_vessel_base/./lib/chibios/os/common/startup/ARMCMx/compilers/GCC/vectors.o
                                                  .build/obj_vessel_base/./lib/chibios/os/common/startup/ARMCMx/compilers/GCC/crt0_v7m.o
_vfiprintf_r                                      c:/qmk_msys/mingw64/bin/../lib/gcc/arm-none-eabi/12.2.0/../../../../arm-none-eabi/lib/thumb/v7e-m+fp/hard\libg_nano.a(libc_a-nano-vfprintf.o)
_vfprintf_r                                       c:/qmk_msys/mingw64/bin/../lib/gcc/arm-none-eabi/12.2.0/../../../../arm-none-eabi/lib/thumb/v7e-m+fp/hard\libg_nano.a(libc_a-nano-vfprintf.o)
                                                  c:/qmk_msys/mingw64/bin/../lib/gcc/arm-none-eabi/12.2.0/../../../../arm-none-eabi/lib/thumb/v7e-m+fp/hard\libg_nano.a(libc_a-fprintf.o)
_write_r                                          C:\QMK_MSYS\tmp\cchXQqT6.ltrans0.ltrans.o
                                                  .build/obj_vessel_base/lib/chibios/os/various/syscalls.o (symbol from plugin)
                                                  c:/qmk_msys/mingw64/bin/../lib/gcc/arm-none-eabi/12.2.0/../../../../arm-none-eabi/lib/thumb/v7e-m+fp/hard\libg_nano.a(libc_a-stdio.o)
abort                                             c:/qmk_msys/mingw64/bin/../lib/gcc/arm-none-eabi/12.2.0/../../../../arm-none-eabi/lib/thumb/v7e-m+fp/hard\libg_nano.a(libc_a-abort.o)
                                                  c:/qmk_msys/mingw64/bin/../lib/gcc/arm-none-eabi/12.2.0/../../../../arm-none-eabi/lib/thumb/v7e-m+fp/hard\libg_nano.a(libc_a-assert.o)
action.c.5a71f8de                                 C:\QMK_MSYS\tmp\ccOuT7LJ.debug.temp.o
                                                  C:\QMK_MSYS\tmp\cchXQqT6.ltrans0.ltrans.o
action_exec                                       .build/obj_vessel_base/quantum/action.o (symbol from plugin)
                                                  .build/obj_vessel_base/quantum/encoder.o (symbol from plugin)
                                                  .build/obj_vessel_base/quantum/keyboard.o (symbol from plugin)
action_for_key                                    .build/obj_vessel_base/quantum/keymap_common.o (symbol from plugin)
                                                  .build/obj_vessel_base/quantum/action_layer.o (symbol from plugin)
action_for_keycode                                .build/obj_vessel_base/quantum/keymap_common.o (symbol from plugin)
action_layer.c.ea125c75                           C:\QMK_MSYS\tmp\ccoa1H7X.debug.temp.o
                                                  C:\QMK_MSYS\tmp\cchXQqT6.ltrans0.ltrans.o
action_tapping.c.a9f9c57a                         C:\QMK_MSYS\tmp\cce2Mpnc.debug.temp.o
                                                  C:\QMK_MSYS\tmp\cchXQqT6.ltrans0.ltrans.o
action_tapping_process                            .build/obj_vessel_base/quantum/action_tapping.o (symbol from plugin)
                                                  .build/obj_vessel_base/quantum/action.o (symbol from plugin)
action_util.c.2fe5628c                            C:\QMK_MSYS\tmp\ccmx6ARq.debug.temp.o
                                                  C:\QMK_MSYS\tmp\cchXQqT6.ltrans0.ltrans.o
add_key                                           .build/obj_vessel_base/quantum/action_util.o (symbol from plugin)
add_key_bit                                       .build/obj_vessel_base/protocol/report.o (symbol from plugin)
add_key_byte                                      .build/obj_vessel_base/protocol/report.o (symbol from plugin)
add_key_to_report                                 .build/obj_vessel_base/protocol/report.o (symbol from plugin)
                                                  .build/obj_vessel_base/quantum/process_keycode/process_grave_esc.o (symbol from plugin)
                                                  .build/obj_vessel_base/quantum/action_util.o (symbol from plugin)
                                                  .build/obj_vessel_base/quantum/action.o (symbol from plugin)
add_mods                                          .build/obj_vessel_base/quantum/action_util.o (symbol from plugin)
                                                  .build/obj_vessel_base/quantum/action.o (symbol from plugin)
add_weak_mods                                     .build/obj_vessel_base/quantum/action_util.o (symbol from plugin)
                                                  .build/obj_vessel_base/quantum/process_keycode/process_tap_dance.o (symbol from plugin)
                                                  .build/obj_vessel_base/quantum/action.o (symbol from plugin)
anim_timer                                        .build/obj_vessel_base/quantum/keymap_introspection.o (symbol from plugin)
animation_on                                      .build/obj_vessel_base/quantum/keymap_introspection.o (symbol from plugin)
ascii_to_altgr_lut                                .build/obj_vessel_base/quantum/send_string/send_string.o (symbol from plugin)
ascii_to_dead_lut                                 .build/obj_vessel_base/quantum/send_string/send_string.o (symbol from plugin)
ascii_to_keycode_lut                              .build/obj_vessel_base/quantum/send_string/send_string.o (symbol from plugin)
ascii_to_shift_lut                                .build/obj_vessel_base/quantum/send_string/send_string.o (symbol from plugin)
biton                                             .build/obj_vessel_base/quantum/bitwise.o (symbol from plugin)
                                                  .build/obj_vessel_base/protocol/report.o (symbol from plugin)
biton16                                           .build/obj_vessel_base/quantum/bitwise.o (symbol from plugin)
biton32                                           .build/obj_vessel_base/quantum/bitwise.o (symbol from plugin)
bitpop                                            .build/obj_vessel_base/quantum/bitwise.o (symbol from plugin)
                                                  .build/obj_vessel_base/quantum/action_util.o (symbol from plugin)
bitpop16                                          .build/obj_vessel_base/quantum/bitwise.o (symbol from plugin)
bitpop32                                          .build/obj_vessel_base/quantum/bitwise.o (symbol from plugin)
bitrev                                            .build/obj_vessel_base/quantum/bitwise.o (symbol from plugin)
bitrev16                                          .build/obj_vessel_base/quantum/bitwise.o (symbol from plugin)
bitrev32                                          .build/obj_vessel_base/quantum/bitwise.o (symbol from plugin)
bitwise.c.f6ac4ed9                                C:\QMK_MSYS\tmp\cckR7syg.debug.temp.o
board.c.dd86ae9d                                  C:\QMK_MSYS\tmp\cc2xLbM0.debug.temp.o
                                                  C:\QMK_MSYS\tmp\cchXQqT6.ltrans0.ltrans.o
boardInit                                         .build/obj_vessel_base/protocol/chibios/chibios.o (symbol from plugin)
                                                  .build/obj_vessel_base/lib/chibios/os/hal/src/hal.o (symbol from plugin)
board_init                                        .build/obj_vessel_base/protocol/chibios/chibios.o (symbol from plugin)
bootloader_jump                                   .build/obj_vessel_base/platforms/chibios/bootloaders/stm32_dfu.o (symbol from plugin)
                                                  .build/obj_vessel_base/quantum/bootmagic/bootmagic.o (symbol from plugin)
                                                  .build/obj_vessel_base/quantum/quantum.o (symbol from plugin)
bootloader_marker_active                          .build/obj_vessel_base/platforms/chibios/bootloaders/stm32_dfu.o (symbol from plugin)
bootloader_marker_disable                         .build/obj_vessel_base/platforms/chibios/bootloaders/stm32_dfu.o (symbol from plugin)
bootloader_marker_enable                          .build/obj_vessel_base/platforms/chibios/bootloaders/stm32_dfu.o (symbol from plugin)
bootmagic                                         .build/obj_vessel_base/quantum/bootmagic/bootmagic.o (symbol from plugin)
                                                  .build/obj_vessel_base/quantum/keyboard.o (symbol from plugin)
bootmagic.c.32c6fa44                              C:\QMK_MSYS\tmp\ccG537mO.debug.temp.o
                                                  C:\QMK_MSYS\tmp\cchXQqT6.ltrans0.ltrans.o
bootmagic_reset_eeprom                            .build/obj_vessel_base/quantum/bootmagic/bootmagic.o (symbol from plugin)
bootmagic_scan                                    .build/obj_vessel_base/quantum/bootmagic/bootmagic.o (symbol from plugin)
bootmagic_should_reset                            .build/obj_vessel_base/quantum/bootmagic/bootmagic.o (symbol from plugin)
bsaObjectInit                                     .build/obj_vessel_base/lib/chibios/os/hal/lib/streams/bufstreams.o (symbol from plugin)
bufstreams.c.a1dd13fa                             C:\QMK_MSYS\tmp\ccM4ngrc.debug.temp.o
ch0                                               .build/obj_vessel_base/lib/chibios/os/rt/src/chsys.o (symbol from plugin)
                                                  .build/obj_vessel_base/lib/chibios/os/rt/src/chevents.o (symbol from plugin)
                                                  .build/obj_vessel_base/lib/chibios/os/rt/src/chmtx.o (symbol from plugin)
                                                  .build/obj_vessel_base/lib/chibios/os/rt/src/chsem.o (symbol from plugin)
                                                  .build/obj_vessel_base/lib/chibios/os/rt/src/chthreads.o (symbol from plugin)
                                                  .build/obj_vessel_base/lib/chibios/os/rt/src/chschd.o (symbol from plugin)
                                                  .build/obj_vessel_base/lib/chibios/os/rt/src/chvt.o (symbol from plugin)
                                                  .build/obj_vessel_base/lib/chibios/os/rt/src/chrfcu.o (symbol from plugin)
chCoreAllocFromBase                               .build/obj_vessel_base/lib/chibios/os/oslib/src/chmemcore.o (symbol from plugin)
                                                  .build/obj_vessel_base/lib/chibios/os/various/syscalls.o (symbol from plugin)
chCoreAllocFromBaseI                              .build/obj_vessel_base/lib/chibios/os/oslib/src/chmemcore.o (symbol from plugin)
chCoreAllocFromTop                                .build/obj_vessel_base/lib/chibios/os/oslib/src/chmemcore.o (symbol from plugin)
chCoreAllocFromTopI                               .build/obj_vessel_base/lib/chibios/os/oslib/src/chmemcore.o (symbol from plugin)
chCoreGetStatusX                                  .build/obj_vessel_base/lib/chibios/os/oslib/src/chmemcore.o (symbol from plugin)
chEvtAddEvents                                    .build/obj_vessel_base/lib/chibios/os/rt/src/chevents.o (symbol from plugin)
chEvtBroadcastFlags                               .build/obj_vessel_base/lib/chibios/os/rt/src/chevents.o (symbol from plugin)
chEvtBroadcastFlagsI                              .build/obj_vessel_base/lib/chibios/os/rt/src/chevents.o (symbol from plugin)
chEvtDispatch                                     .build/obj_vessel_base/lib/chibios/os/rt/src/chevents.o (symbol from plugin)
chEvtGetAndClearEvents                            .build/obj_vessel_base/lib/chibios/os/rt/src/chevents.o (symbol from plugin)
chEvtGetAndClearEventsI                           .build/obj_vessel_base/lib/chibios/os/rt/src/chevents.o (symbol from plugin)
chEvtGetAndClearFlags                             .build/obj_vessel_base/lib/chibios/os/rt/src/chevents.o (symbol from plugin)
chEvtGetAndClearFlagsI                            .build/obj_vessel_base/lib/chibios/os/rt/src/chevents.o (symbol from plugin)
chEvtRegisterMaskWithFlags                        .build/obj_vessel_base/lib/chibios/os/rt/src/chevents.o (symbol from plugin)
chEvtRegisterMaskWithFlagsI                       .build/obj_vessel_base/lib/chibios/os/rt/src/chevents.o (symbol from plugin)
chEvtSignal                                       .build/obj_vessel_base/lib/chibios/os/rt/src/chevents.o (symbol from plugin)
chEvtSignalI                                      .build/obj_vessel_base/lib/chibios/os/rt/src/chevents.o (symbol from plugin)
chEvtUnregister                                   .build/obj_vessel_base/lib/chibios/os/rt/src/chevents.o (symbol from plugin)
chEvtWaitAll                                      .build/obj_vessel_base/lib/chibios/os/rt/src/chevents.o (symbol from plugin)
chEvtWaitAllTimeout                               .build/obj_vessel_base/lib/chibios/os/rt/src/chevents.o (symbol from plugin)
chEvtWaitAny                                      .build/obj_vessel_base/lib/chibios/os/rt/src/chevents.o (symbol from plugin)
chEvtWaitAnyTimeout                               .build/obj_vessel_base/lib/chibios/os/rt/src/chevents.o (symbol from plugin)
chEvtWaitOne                                      .build/obj_vessel_base/lib/chibios/os/rt/src/chevents.o (symbol from plugin)
chEvtWaitOneTimeout                               .build/obj_vessel_base/lib/chibios/os/rt/src/chevents.o (symbol from plugin)
chInstanceObjectInit                              .build/obj_vessel_base/lib/chibios/os/rt/src/chinstances.o (symbol from plugin)
                                                  .build/obj_vessel_base/lib/chibios/os/rt/src/chsys.o (symbol from plugin)
chMtxLock                                         .build/obj_vessel_base/lib/chibios/os/rt/src/chmtx.o (symbol from plugin)
                                                  .build/obj_vessel_base/lib/chibios/os/hal/src/hal_i2c.o (symbol from plugin)
chMtxLockS                                        .build/obj_vessel_base/lib/chibios/os/rt/src/chmtx.o (symbol from plugin)
chMtxObjectInit                                   .build/obj_vessel_base/lib/chibios/os/rt/src/chmtx.o (symbol from plugin)
                                                  .build/obj_vessel_base/lib/chibios/os/hal/src/hal_i2c.o (symbol from plugin)
chMtxTryLock                                      .build/obj_vessel_base/lib/chibios/os/rt/src/chmtx.o (symbol from plugin)
chMtxTryLockS                                     .build/obj_vessel_base/lib/chibios/os/rt/src/chmtx.o (symbol from plugin)
chMtxUnlock                                       .build/obj_vessel_base/lib/chibios/os/rt/src/chmtx.o (symbol from plugin)
                                                  .build/obj_vessel_base/lib/chibios/os/hal/src/hal_i2c.o (symbol from plugin)
chMtxUnlockAll                                    .build/obj_vessel_base/lib/chibios/os/rt/src/chmtx.o (symbol from plugin)
chMtxUnlockAllS                                   .build/obj_vessel_base/lib/chibios/os/rt/src/chmtx.o (symbol from plugin)
chMtxUnlockS                                      .build/obj_vessel_base/lib/chibios/os/rt/src/chmtx.o (symbol from plugin)
chRFCUCollectFaultsI                              .build/obj_vessel_base/lib/chibios/os/rt/src/chrfcu.o (symbol from plugin)
                                                  .build/obj_vessel_base/lib/chibios/os/rt/src/chvt.o (symbol from plugin)
chRFCUGetAndClearFaultsI                          .build/obj_vessel_base/lib/chibios/os/rt/src/chrfcu.o (symbol from plugin)
chSchDoPreemption                                 C:\QMK_MSYS\tmp\cchXQqT6.ltrans0.ltrans.o
                                                  .build/obj_vessel_base/lib/chibios/os/rt/src/chschd.o (symbol from plugin)
                                                  .build/obj_vessel_base/./lib/chibios/os/common/ports/ARMv7-M/compilers/GCC/chcoreasm.o
chSchDoYieldS                                     .build/obj_vessel_base/lib/chibios/os/rt/src/chschd.o (symbol from plugin)
                                                  .build/obj_vessel_base/lib/chibios/os/rt/src/chthreads.o (symbol from plugin)
chSchGoSleepS                                     .build/obj_vessel_base/lib/chibios/os/rt/src/chschd.o (symbol from plugin)
                                                  .build/obj_vessel_base/lib/chibios/os/rt/src/chevents.o (symbol from plugin)
                                                  .build/obj_vessel_base/lib/chibios/os/rt/src/chmtx.o (symbol from plugin)
                                                  .build/obj_vessel_base/lib/chibios/os/rt/src/chsem.o (symbol from plugin)
                                                  .build/obj_vessel_base/lib/chibios/os/rt/src/chthreads.o (symbol from plugin)
chSchGoSleepTimeoutS                              .build/obj_vessel_base/lib/chibios/os/rt/src/chschd.o (symbol from plugin)
                                                  .build/obj_vessel_base/lib/chibios/os/rt/src/chevents.o (symbol from plugin)
                                                  .build/obj_vessel_base/lib/chibios/os/rt/src/chsem.o (symbol from plugin)
                                                  .build/obj_vessel_base/lib/chibios/os/rt/src/chthreads.o (symbol from plugin)
chSchIsPreemptionRequired                         .build/obj_vessel_base/lib/chibios/os/rt/src/chschd.o (symbol from plugin)
                                                  .build/obj_vessel_base/lib/chibios/os/common/ports/ARMv7-M/chcore.o (symbol from plugin)
chSchPreemption                                   .build/obj_vessel_base/lib/chibios/os/rt/src/chschd.o (symbol from plugin)
chSchReadyI                                       .build/obj_vessel_base/lib/chibios/os/rt/src/chschd.o (symbol from plugin)
                                                  .build/obj_vessel_base/lib/chibios/os/rt/src/chevents.o (symbol from plugin)
                                                  .build/obj_vessel_base/lib/chibios/os/rt/src/chmtx.o (symbol from plugin)
                                                  .build/obj_vessel_base/lib/chibios/os/rt/src/chsem.o (symbol from plugin)
                                                  .build/obj_vessel_base/lib/chibios/os/rt/src/chthreads.o (symbol from plugin)
chSchRescheduleS                                  .build/obj_vessel_base/lib/chibios/os/rt/src/chschd.o (symbol from plugin)
                                                  .build/obj_vessel_base/lib/chibios/os/hal/src/hal_usb.o (symbol from plugin)
                                                  .build/obj_vessel_base/lib/chibios/os/rt/src/chevents.o (symbol from plugin)
                                                  .build/obj_vessel_base/lib/chibios/os/rt/src/chmtx.o (symbol from plugin)
                                                  .build/obj_vessel_base/lib/chibios/os/rt/src/chsem.o (symbol from plugin)
                                                  .build/obj_vessel_base/lib/chibios/os/rt/src/chthreads.o (symbol from plugin)
                                                  .build/obj_vessel_base/lib/chibios/os/rt/src/chsys.o (symbol from plugin)
                                                  .build/obj_vessel_base/protocol/chibios/usb_driver.o (symbol from plugin)
chSchSelectFirst                                  .build/obj_vessel_base/lib/chibios/os/rt/src/chschd.o (symbol from plugin)
chSchWakeupS                                      .build/obj_vessel_base/lib/chibios/os/rt/src/chschd.o (symbol from plugin)
                                                  .build/obj_vessel_base/lib/chibios/os/rt/src/chsem.o (symbol from plugin)
                                                  .build/obj_vessel_base/lib/chibios/os/rt/src/chthreads.o (symbol from plugin)
chSemAddCounterI                                  .build/obj_vessel_base/lib/chibios/os/rt/src/chsem.o (symbol from plugin)
chSemObjectInit                                   .build/obj_vessel_base/lib/chibios/os/rt/src/chsem.o (symbol from plugin)
chSemResetWithMessage                             .build/obj_vessel_base/lib/chibios/os/rt/src/chsem.o (symbol from plugin)
chSemResetWithMessageI                            .build/obj_vessel_base/lib/chibios/os/rt/src/chsem.o (symbol from plugin)
chSemSignal                                       .build/obj_vessel_base/lib/chibios/os/rt/src/chsem.o (symbol from plugin)
chSemSignalI                                      .build/obj_vessel_base/lib/chibios/os/rt/src/chsem.o (symbol from plugin)
chSemSignalWait                                   .build/obj_vessel_base/lib/chibios/os/rt/src/chsem.o (symbol from plugin)
chSemWait                                         .build/obj_vessel_base/lib/chibios/os/rt/src/chsem.o (symbol from plugin)
chSemWaitS                                        .build/obj_vessel_base/lib/chibios/os/rt/src/chsem.o (symbol from plugin)
chSemWaitTimeout                                  .build/obj_vessel_base/lib/chibios/os/rt/src/chsem.o (symbol from plugin)
chSemWaitTimeoutS                                 .build/obj_vessel_base/lib/chibios/os/rt/src/chsem.o (symbol from plugin)
chSysGetIdleThreadX                               .build/obj_vessel_base/lib/chibios/os/rt/src/chsys.o (symbol from plugin)
chSysGetStatusAndLockX                            .build/obj_vessel_base/lib/chibios/os/rt/src/chsys.o (symbol from plugin)
chSysHalt                                         .build/obj_vessel_base/lib/chibios/os/rt/src/chsys.o (symbol from plugin)
                                                  .build/obj_vessel_base/lib/chibios/os/various/syscalls.o (symbol from plugin)
                                                  .build/obj_vessel_base/lib/chibios/os/hal/ports/STM32/LLD/I2Cv1/hal_i2c_lld.o (symbol from plugin)
chSysInit                                         .build/obj_vessel_base/lib/chibios/os/rt/src/chsys.o (symbol from plugin)
                                                  .build/obj_vessel_base/platforms/chibios/platform.o (symbol from plugin)
chSysIntegrityCheckI                              .build/obj_vessel_base/lib/chibios/os/rt/src/chsys.o (symbol from plugin)
chSysIsCounterWithinX                             .build/obj_vessel_base/lib/chibios/os/rt/src/chsys.o (symbol from plugin)
chSysPolledDelayX                                 .build/obj_vessel_base/lib/chibios/os/rt/src/chsys.o (symbol from plugin)
                                                  .build/obj_vessel_base/lib/chibios/os/hal/ports/STM32/LLD/OTGv1/hal_usb_lld.o (symbol from plugin)
                                                  .build/obj_vessel_base/encoder_quadrature.o (symbol from plugin)
                                                  .build/obj_vessel_base/quantum/matrix_common.o (symbol from plugin)
chSysRestoreStatusX                               .build/obj_vessel_base/lib/chibios/os/rt/src/chsys.o (symbol from plugin)
chSysTimerHandlerI                                .build/obj_vessel_base/lib/chibios/os/rt/src/chsys.o (symbol from plugin)
                                                  .build/obj_vessel_base/lib/chibios/os/hal/ports/STM32/LLD/SYSTICKv1/hal_st_lld.o (symbol from plugin)
chSysWaitSystemState                              .build/obj_vessel_base/lib/chibios/os/rt/src/chsys.o (symbol from plugin)
chThdCreate                                       .build/obj_vessel_base/lib/chibios/os/rt/src/chthreads.o (symbol from plugin)
chThdCreateI                                      .build/obj_vessel_base/lib/chibios/os/rt/src/chthreads.o (symbol from plugin)
                                                  .build/obj_vessel_base/lib/chibios/os/rt/src/chinstances.o (symbol from plugin)
chThdCreateStatic                                 .build/obj_vessel_base/lib/chibios/os/rt/src/chthreads.o (symbol from plugin)
chThdCreateSuspended                              .build/obj_vessel_base/lib/chibios/os/rt/src/chthreads.o (symbol from plugin)
chThdCreateSuspendedI                             .build/obj_vessel_base/lib/chibios/os/rt/src/chthreads.o (symbol from plugin)
chThdDequeueAllI                                  .build/obj_vessel_base/lib/chibios/os/rt/src/chthreads.o (symbol from plugin)
                                                  .build/obj_vessel_base/lib/chibios/os/hal/src/hal_queues.o (symbol from plugin)
                                                  .build/obj_vessel_base/lib/chibios/os/hal/src/hal_buffers.o (symbol from plugin)
                                                  .build/obj_vessel_base/protocol/chibios/usb_driver.o (symbol from plugin)
chThdDequeueNextI                                 .build/obj_vessel_base/lib/chibios/os/rt/src/chthreads.o (symbol from plugin)
                                                  .build/obj_vessel_base/lib/chibios/os/hal/src/hal_queues.o (symbol from plugin)
                                                  .build/obj_vessel_base/lib/chibios/os/hal/src/hal_buffers.o (symbol from plugin)
chThdEnqueueTimeoutS                              .build/obj_vessel_base/lib/chibios/os/rt/src/chthreads.o (symbol from plugin)
                                                  .build/obj_vessel_base/lib/chibios/os/hal/src/hal_queues.o (symbol from plugin)
                                                  .build/obj_vessel_base/lib/chibios/os/hal/src/hal_buffers.o (symbol from plugin)
chThdExit                                         C:\QMK_MSYS\tmp\cchXQqT6.ltrans0.ltrans.o
                                                  .build/obj_vessel_base/lib/chibios/os/rt/src/chthreads.o (symbol from plugin)
                                                  .build/obj_vessel_base/./lib/chibios/os/common/ports/ARMv7-M/compilers/GCC/chcoreasm.o
chThdExitS                                        .build/obj_vessel_base/lib/chibios/os/rt/src/chthreads.o (symbol from plugin)
chThdResume                                       .build/obj_vessel_base/lib/chibios/os/rt/src/chthreads.o (symbol from plugin)
chThdResumeI                                      .build/obj_vessel_base/lib/chibios/os/rt/src/chthreads.o (symbol from plugin)
                                                  .build/obj_vessel_base/lib/chibios/os/hal/ports/STM32/LLD/OTGv1/hal_usb_lld.o (symbol from plugin)
                                                  .build/obj_vessel_base/lib/chibios/os/hal/ports/STM32/LLD/I2Cv1/hal_i2c_lld.o (symbol from plugin)
                                                  .build/obj_vessel_base/lib/chibios/os/hal/src/hal_usb.o (symbol from plugin)
chThdResumeS                                      .build/obj_vessel_base/lib/chibios/os/rt/src/chthreads.o (symbol from plugin)
chThdSetPriority                                  .build/obj_vessel_base/lib/chibios/os/rt/src/chthreads.o (symbol from plugin)
chThdSleep                                        C:\QMK_MSYS\tmp\cchXQqT6.ltrans0.ltrans.o
                                                  .build/obj_vessel_base/lib/chibios/os/rt/src/chthreads.o (symbol from plugin)
                                                  .build/obj_vessel_base/lib/chibios/os/hal/src/hal_usb.o (symbol from plugin)
                                                  .build/obj_vessel_base/lib/chibios/os/hal/src/hal_flash.o (symbol from plugin)
                                                  .build/obj_vessel_base/protocol/chibios/chibios.o (symbol from plugin)
                                                  .build/obj_vessel_base/protocol/chibios/usb_main.o (symbol from plugin)
                                                  .build/obj_vessel_base/i2c_master.a(i2c_master.o)
                                                  .build/obj_vessel_base/platforms/chibios/suspend.o (symbol from plugin)
                                                  .build/obj_vessel_base/quantum/process_keycode/process_tap_dance.o (symbol from plugin)
                                                  .build/obj_vessel_base/quantum/send_string/send_string.o (symbol from plugin)
                                                  .build/obj_vessel_base/quantum/bootmagic/bootmagic.o (symbol from plugin)
                                                  .build/obj_vessel_base/quantum/action.o (symbol from plugin)
                                                  .build/obj_vessel_base/quantum/quantum.o (symbol from plugin)
                                                  .build/obj_vessel_base/quantum/keymap_introspection.o (symbol from plugin)
chThdSleepUntil                                   .build/obj_vessel_base/lib/chibios/os/rt/src/chthreads.o (symbol from plugin)
chThdSleepUntilWindowed                           .build/obj_vessel_base/lib/chibios/os/rt/src/chthreads.o (symbol from plugin)
chThdStart                                        .build/obj_vessel_base/lib/chibios/os/rt/src/chthreads.o (symbol from plugin)
chThdSuspendS                                     .build/obj_vessel_base/lib/chibios/os/rt/src/chthreads.o (symbol from plugin)
chThdSuspendTimeoutS                              .build/obj_vessel_base/lib/chibios/os/rt/src/chthreads.o (symbol from plugin)
                                                  .build/obj_vessel_base/lib/chibios/os/hal/ports/STM32/LLD/I2Cv1/hal_i2c_lld.o (symbol from plugin)
                                                  .build/obj_vessel_base/lib/chibios/os/hal/src/hal_usb.o (symbol from plugin)
chThdTerminate                                    .build/obj_vessel_base/lib/chibios/os/rt/src/chthreads.o (symbol from plugin)
chThdYield                                        .build/obj_vessel_base/lib/chibios/os/rt/src/chthreads.o (symbol from plugin)
chVTDoResetI                                      .build/obj_vessel_base/lib/chibios/os/rt/src/chvt.o (symbol from plugin)
                                                  .build/obj_vessel_base/lib/chibios/os/rt/src/chschd.o (symbol from plugin)
chVTDoSetContinuousI                              .build/obj_vessel_base/lib/chibios/os/rt/src/chvt.o (symbol from plugin)
chVTDoSetI                                        .build/obj_vessel_base/lib/chibios/os/rt/src/chvt.o (symbol from plugin)
                                                  .build/obj_vessel_base/lib/chibios/os/rt/src/chschd.o (symbol from plugin)
chVTDoTickI                                       .build/obj_vessel_base/lib/chibios/os/rt/src/chvt.o (symbol from plugin)
                                                  .build/obj_vessel_base/lib/chibios/os/rt/src/chsys.o (symbol from plugin)
chVTGetRemainingIntervalI                         .build/obj_vessel_base/lib/chibios/os/rt/src/chvt.o (symbol from plugin)
chVTGetTimeStampI                                 .build/obj_vessel_base/lib/chibios/os/rt/src/chvt.o (symbol from plugin)
chVTResetTimeStampI                               .build/obj_vessel_base/lib/chibios/os/rt/src/chvt.o (symbol from plugin)
ch_core0_cfg                                      .build/obj_vessel_base/lib/chibios/os/rt/src/chsys.o (symbol from plugin)
ch_memcore                                        .build/obj_vessel_base/lib/chibios/os/oslib/src/chmemcore.o (symbol from plugin)
ch_system                                         .build/obj_vessel_base/lib/chibios/os/rt/src/chsys.o (symbol from plugin)
                                                  .build/obj_vessel_base/lib/chibios/os/rt/src/chinstances.o (symbol from plugin)
chcond.c.10aac3d2                                 C:\QMK_MSYS\tmp\ccKevWZJ.debug.temp.o
chcore.c.611b1345                                 C:\QMK_MSYS\tmp\ccyaeabe.debug.temp.o
                                                  C:\QMK_MSYS\tmp\cchXQqT6.ltrans0.ltrans.o
chdebug.c.73f3601c                                C:\QMK_MSYS\tmp\cc2OgDO9.debug.temp.o
chdelegates.c.8eec0351                            C:\QMK_MSYS\tmp\cciqyua8.debug.temp.o
chdynamic.c.6d83a732                              C:\QMK_MSYS\tmp\ccAMpKLR.debug.temp.o
chevents.c.5732f72d                               C:\QMK_MSYS\tmp\cc4Xm7Z6.debug.temp.o
chfactory.c.08dbb67a                              C:\QMK_MSYS\tmp\ccqrg84t.debug.temp.o
chibios.c.1f101483                                C:\QMK_MSYS\tmp\cc4YVBxg.debug.temp.o
                                                  C:\QMK_MSYS\tmp\cchXQqT6.ltrans0.ltrans.o
chibios_driver                                    .build/obj_vessel_base/protocol/chibios/chibios.o (symbol from plugin)
chinstances.c.dde95498                            C:\QMK_MSYS\tmp\ccGLUYho.debug.temp.o
                                                  C:\QMK_MSYS\tmp\cchXQqT6.ltrans0.ltrans.o
chmboxes.c.751dbe0e                               C:\QMK_MSYS\tmp\ccgLal1W.debug.temp.o
chmemcore.c.b911b887                              C:\QMK_MSYS\tmp\ccgEWBuj.debug.temp.o
                                                  C:\QMK_MSYS\tmp\cchXQqT6.ltrans0.ltrans.o
chmemheaps.c.302a1000                             C:\QMK_MSYS\tmp\ccOWMqbG.debug.temp.o
chmempools.c.48625f64                             C:\QMK_MSYS\tmp\ccUEFKO2.debug.temp.o
chmsg.c.1069c41d                                  C:\QMK_MSYS\tmp\ccsfLspu.debug.temp.o
chmtx.c.7c37b9ae                                  C:\QMK_MSYS\tmp\ccWF6BUm.debug.temp.o
                                                  C:\QMK_MSYS\tmp\cchXQqT6.ltrans0.ltrans.o
chobjcaches.c.ad021cb0                            C:\QMK_MSYS\tmp\ccGZI3qM.debug.temp.o
chpipes.c.68abf6b9                                C:\QMK_MSYS\tmp\ccAPTCFp.debug.temp.o
chprintf                                          .build/obj_vessel_base/lib/chibios/os/hal/lib/streams/chprintf.o (symbol from plugin)
chprintf.c.be0c1b6e                               C:\QMK_MSYS\tmp\ccoQEYPr.debug.temp.o
chregistry.c.e8a55df2                             C:\QMK_MSYS\tmp\ccGNr66C.debug.temp.o
chrfcu.c.0ee2363e                                 C:\QMK_MSYS\tmp\ccETjqTP.debug.temp.o
                                                  C:\QMK_MSYS\tmp\cchXQqT6.ltrans0.ltrans.o
chscanf                                           .build/obj_vessel_base/lib/chibios/os/hal/lib/streams/chscanf.o (symbol from plugin)
chscanf.c.d03294ef                                C:\QMK_MSYS\tmp\ccWCebRS.debug.temp.o
chschd.c.d7d315fb                                 C:\QMK_MSYS\tmp\cc8s0jj5.debug.temp.o
                                                  C:\QMK_MSYS\tmp\cchXQqT6.ltrans0.ltrans.o
chsem.c.9e7d78c2                                  C:\QMK_MSYS\tmp\cckznt3Z.debug.temp.o
chsnprintf                                        .build/obj_vessel_base/lib/chibios/os/hal/lib/streams/chprintf.o (symbol from plugin)
chsnscanf                                         .build/obj_vessel_base/lib/chibios/os/hal/lib/streams/chscanf.o (symbol from plugin)
chstats.c.0c90a542                                C:\QMK_MSYS\tmp\ccycb0Rj.debug.temp.o
chsys.c.e1cceeb9                                  C:\QMK_MSYS\tmp\ccy1h0bw.debug.temp.o
                                                  C:\QMK_MSYS\tmp\cchXQqT6.ltrans0.ltrans.o
chthreads.c.1907b3b3                              C:\QMK_MSYS\tmp\ccoFfdsH.debug.temp.o
                                                  C:\QMK_MSYS\tmp\cchXQqT6.ltrans0.ltrans.o
chtm.c.dfe5b1c4                                   C:\QMK_MSYS\tmp\ccEUwoy0.debug.temp.o
chtrace.c.b2529eca                                C:\QMK_MSYS\tmp\ccaQepFt.debug.temp.o
chvprintf                                         .build/obj_vessel_base/lib/chibios/os/hal/lib/streams/chprintf.o (symbol from plugin)
chvscanf                                          .build/obj_vessel_base/lib/chibios/os/hal/lib/streams/chscanf.o (symbol from plugin)
chvsnprintf                                       .build/obj_vessel_base/lib/chibios/os/hal/lib/streams/chprintf.o (symbol from plugin)
chvsnscanf                                        .build/obj_vessel_base/lib/chibios/os/hal/lib/streams/chscanf.o (symbol from plugin)
chvt.c.9ca644bc                                   C:\QMK_MSYS\tmp\cc4X53xM.debug.temp.o
                                                  C:\QMK_MSYS\tmp\cchXQqT6.ltrans0.ltrans.o
clamp_length                                      .build/obj_vessel_base/eeprom_transient.o (symbol from plugin)
clear_keyboard                                    .build/obj_vessel_base/quantum/action.o (symbol from plugin)
                                                  .build/obj_vessel_base/quantum/process_keycode/process_magic.o (symbol from plugin)
                                                  .build/obj_vessel_base/quantum/action_tapping.o (symbol from plugin)
                                                  .build/obj_vessel_base/quantum/quantum.o (symbol from plugin)
clear_keyboard_but_mods                           .build/obj_vessel_base/quantum/action.o (symbol from plugin)
clear_keyboard_but_mods_and_keys                  .build/obj_vessel_base/quantum/action.o (symbol from plugin)
clear_keys                                        .build/obj_vessel_base/quantum/action_util.o (symbol from plugin)
clear_keys_from_report                            .build/obj_vessel_base/protocol/report.o (symbol from plugin)
                                                  .build/obj_vessel_base/platforms/chibios/suspend.o (symbol from plugin)
                                                  .build/obj_vessel_base/quantum/action_util.o (symbol from plugin)
                                                  .build/obj_vessel_base/quantum/action.o (symbol from plugin)
clear_mods                                        .build/obj_vessel_base/quantum/action_util.o (symbol from plugin)
                                                  .build/obj_vessel_base/platforms/chibios/suspend.o (symbol from plugin)
                                                  .build/obj_vessel_base/quantum/action.o (symbol from plugin)
clear_weak_mods                                   .build/obj_vessel_base/quantum/action_util.o (symbol from plugin)
                                                  .build/obj_vessel_base/platforms/chibios/suspend.o (symbol from plugin)
                                                  .build/obj_vessel_base/quantum/process_keycode/process_tap_dance.o (symbol from plugin)
                                                  .build/obj_vessel_base/quantum/action.o (symbol from plugin)
color.c.b9eda139                                  C:\QMK_MSYS\tmp\ccYssG5X.debug.temp.o
                                                  C:\QMK_MSYS\tmp\cchXQqT6.ltrans0.ltrans.o
crot                                              .build/obj_vessel_base/oled_driver.o (symbol from plugin)
crt1.c.d91a7ff2                                   C:\QMK_MSYS\tmp\ccG4x2qc.debug.temp.o
                                                  C:\QMK_MSYS\tmp\cchXQqT6.ltrans0.ltrans.o
current_frame                                     .build/obj_vessel_base/quantum/keymap_introspection.o (symbol from plugin)
debounce                                          .build/obj_vessel_base/quantum/debounce/sym_eager_pk.o (symbol from plugin)
                                                  .build/obj_vessel_base/quantum/matrix.o (symbol from plugin)
                                                  .build/obj_vessel_base/quantum/matrix_common.o (symbol from plugin)
debounce_free                                     .build/obj_vessel_base/quantum/debounce/sym_eager_pk.o (symbol from plugin)
debounce_init                                     .build/obj_vessel_base/quantum/debounce/sym_eager_pk.o (symbol from plugin)
                                                  .build/obj_vessel_base/quantum/matrix.o (symbol from plugin)
                                                  .build/obj_vessel_base/quantum/matrix_common.o (symbol from plugin)
debug.c.dac38868                                  C:\QMK_MSYS\tmp\ccOpoZr1.debug.temp.o
                                                  C:\QMK_MSYS\tmp\cchXQqT6.ltrans0.ltrans.o
debug_action                                      .build/obj_vessel_base/quantum/action.o (symbol from plugin)
debug_config                                      .build/obj_vessel_base/quantum/logging/debug.o (symbol from plugin)
                                                  .build/obj_vessel_base/quantum/keyboard.o (symbol from plugin)
debug_event                                       .build/obj_vessel_base/quantum/action.o (symbol from plugin)
                                                  .build/obj_vessel_base/quantum/action_tapping.o (symbol from plugin)
debug_record                                      .build/obj_vessel_base/quantum/action.o (symbol from plugin)
                                                  .build/obj_vessel_base/quantum/action_tapping.o (symbol from plugin)
default_keyboard.c.41d698e5                       C:\QMK_MSYS\tmp\cc0Fm2kx.debug.temp.o
default_layer_and                                 .build/obj_vessel_base/quantum/action_layer.o (symbol from plugin)
                                                  .build/obj_vessel_base/quantum/action.o (symbol from plugin)
default_layer_debug                               .build/obj_vessel_base/quantum/action_layer.o (symbol from plugin)
                                                  .build/obj_vessel_base/quantum/action.o (symbol from plugin)
default_layer_or                                  .build/obj_vessel_base/quantum/action_layer.o (symbol from plugin)
                                                  .build/obj_vessel_base/quantum/action.o (symbol from plugin)
default_layer_set                                 .build/obj_vessel_base/quantum/action_layer.o (symbol from plugin)
                                                  .build/obj_vessel_base/quantum/keyboard.o (symbol from plugin)
                                                  .build/obj_vessel_base/quantum/action.o (symbol from plugin)
                                                  .build/obj_vessel_base/quantum/quantum.o (symbol from plugin)
default_layer_state                               .build/obj_vessel_base/quantum/action_layer.o (symbol from plugin)
                                                  .build/obj_vessel_base/quantum/eeconfig.o (symbol from plugin)
default_layer_state_set_kb                        .build/obj_vessel_base/quantum/action_layer.o (symbol from plugin)
default_layer_state_set_user                      .build/obj_vessel_base/quantum/action_layer.o (symbol from plugin)
default_layer_xor                                 .build/obj_vessel_base/quantum/action_layer.o (symbol from plugin)
                                                  .build/obj_vessel_base/quantum/action.o (symbol from plugin)
del_key                                           .build/obj_vessel_base/quantum/action_util.o (symbol from plugin)
del_key_bit                                       .build/obj_vessel_base/protocol/report.o (symbol from plugin)
del_key_byte                                      .build/obj_vessel_base/protocol/report.o (symbol from plugin)
del_key_from_report                               .build/obj_vessel_base/protocol/report.o (symbol from plugin)
                                                  .build/obj_vessel_base/quantum/process_keycode/process_grave_esc.o (symbol from plugin)
                                                  .build/obj_vessel_base/quantum/action_util.o (symbol from plugin)
                                                  .build/obj_vessel_base/quantum/action.o (symbol from plugin)
del_mods                                          .build/obj_vessel_base/quantum/action_util.o (symbol from plugin)
                                                  .build/obj_vessel_base/quantum/action.o (symbol from plugin)
del_weak_mods                                     .build/obj_vessel_base/quantum/action_util.o (symbol from plugin)
                                                  .build/obj_vessel_base/quantum/process_keycode/process_tap_dance.o (symbol from plugin)
                                                  .build/obj_vessel_base/quantum/action.o (symbol from plugin)
disable_action_cache                              .build/obj_vessel_base/quantum/action.o (symbol from plugin)
                                                  .build/obj_vessel_base/quantum/action_layer.o (symbol from plugin)
                                                  .build/obj_vessel_base/quantum/quantum.o (symbol from plugin)
dmaInit                                           .build/obj_vessel_base/lib/chibios/os/hal/ports/STM32/LLD/DMAv2/stm32_dma.o (symbol from plugin)
                                                  .build/obj_vessel_base/lib/chibios/os/hal/ports/STM32/STM32F4xx/hal_lld.o (symbol from plugin)
dmaStreamAlloc                                    .build/obj_vessel_base/lib/chibios/os/hal/ports/STM32/LLD/DMAv2/stm32_dma.o (symbol from plugin)
dmaStreamAllocI                                   .build/obj_vessel_base/lib/chibios/os/hal/ports/STM32/LLD/DMAv2/stm32_dma.o (symbol from plugin)
                                                  .build/obj_vessel_base/lib/chibios/os/hal/ports/STM32/LLD/I2Cv1/hal_i2c_lld.o (symbol from plugin)
dmaStreamFree                                     .build/obj_vessel_base/lib/chibios/os/hal/ports/STM32/LLD/DMAv2/stm32_dma.o (symbol from plugin)
dmaStreamFreeI                                    .build/obj_vessel_base/lib/chibios/os/hal/ports/STM32/LLD/DMAv2/stm32_dma.o (symbol from plugin)
                                                  .build/obj_vessel_base/lib/chibios/os/hal/ports/STM32/LLD/I2Cv1/hal_i2c_lld.o (symbol from plugin)
do_code16                                         .build/obj_vessel_base/quantum/quantum.o (symbol from plugin)
early_hardware_init_post                          .build/obj_vessel_base/protocol/chibios/chibios.o (symbol from plugin)
early_hardware_init_pre                           .build/obj_vessel_base/protocol/chibios/chibios.o (symbol from plugin)
eeconfig.c.d892d3c7                               C:\QMK_MSYS\tmp\ccs1VMhF.debug.temp.o
                                                  C:\QMK_MSYS\tmp\cchXQqT6.ltrans0.ltrans.o
eeconfig_check_valid_rgb_matrix                   .build/obj_vessel_base/quantum/rgb_matrix/rgb_matrix.o (symbol from plugin)
eeconfig_debug_rgb_matrix                         .build/obj_vessel_base/quantum/rgb_matrix/rgb_matrix.o (symbol from plugin)
eeconfig_disable                                  .build/obj_vessel_base/quantum/eeconfig.o (symbol from plugin)
                                                  .build/obj_vessel_base/quantum/bootmagic/bootmagic.o (symbol from plugin)
                                                  .build/obj_vessel_base/quantum/quantum.o (symbol from plugin)
eeconfig_enable                                   .build/obj_vessel_base/quantum/eeconfig.o (symbol from plugin)
eeconfig_init                                     .build/obj_vessel_base/quantum/eeconfig.o (symbol from plugin)
                                                  .build/obj_vessel_base/quantum/keyboard.o (symbol from plugin)
eeconfig_init_kb                                  .build/obj_vessel_base/quantum/eeconfig.o (symbol from plugin)
eeconfig_init_quantum                             .build/obj_vessel_base/quantum/eeconfig.o (symbol from plugin)
eeconfig_init_user                                .build/obj_vessel_base/quantum/eeconfig.o (symbol from plugin)
eeconfig_is_disabled                              .build/obj_vessel_base/quantum/eeconfig.o (symbol from plugin)
eeconfig_is_enabled                               .build/obj_vessel_base/quantum/eeconfig.o (symbol from plugin)
                                                  .build/obj_vessel_base/quantum/keyboard.o (symbol from plugin)
eeconfig_post_flush_rgb_matrix                    .build/obj_vessel_base/quantum/rgb_matrix/rgb_matrix.o (symbol from plugin)
eeconfig_read_audio                               .build/obj_vessel_base/quantum/eeconfig.o (symbol from plugin)
eeconfig_read_debug                               .build/obj_vessel_base/quantum/eeconfig.o (symbol from plugin)
                                                  .build/obj_vessel_base/quantum/keyboard.o (symbol from plugin)
eeconfig_read_default_layer                       .build/obj_vessel_base/quantum/eeconfig.o (symbol from plugin)
                                                  .build/obj_vessel_base/quantum/keyboard.o (symbol from plugin)
eeconfig_read_handedness                          .build/obj_vessel_base/quantum/eeconfig.o (symbol from plugin)
eeconfig_read_haptic                              .build/obj_vessel_base/quantum/eeconfig.o (symbol from plugin)
eeconfig_read_kb                                  .build/obj_vessel_base/quantum/eeconfig.o (symbol from plugin)
eeconfig_read_keymap                              .build/obj_vessel_base/quantum/eeconfig.o (symbol from plugin)
                                                  .build/obj_vessel_base/quantum/process_keycode/process_magic.o (symbol from plugin)
                                                  .build/obj_vessel_base/quantum/keyboard.o (symbol from plugin)
eeconfig_read_user                                .build/obj_vessel_base/quantum/eeconfig.o (symbol from plugin)
eeconfig_update_audio                             .build/obj_vessel_base/quantum/eeconfig.o (symbol from plugin)
eeconfig_update_debug                             .build/obj_vessel_base/quantum/eeconfig.o (symbol from plugin)
eeconfig_update_default_layer                     .build/obj_vessel_base/quantum/eeconfig.o (symbol from plugin)
                                                  .build/obj_vessel_base/quantum/quantum.o (symbol from plugin)
eeconfig_update_handedness                        .build/obj_vessel_base/quantum/eeconfig.o (symbol from plugin)
                                                  .build/obj_vessel_base/quantum/process_keycode/process_magic.o (symbol from plugin)
eeconfig_update_haptic                            .build/obj_vessel_base/quantum/eeconfig.o (symbol from plugin)
eeconfig_update_kb                                .build/obj_vessel_base/quantum/eeconfig.o (symbol from plugin)
eeconfig_update_keymap                            .build/obj_vessel_base/quantum/eeconfig.o (symbol from plugin)
                                                  .build/obj_vessel_base/quantum/process_keycode/process_magic.o (symbol from plugin)
eeconfig_update_rgb_matrix                        .build/obj_vessel_base/quantum/rgb_matrix/rgb_matrix.o (symbol from plugin)
eeconfig_update_rgb_matrix_default                .build/obj_vessel_base/quantum/rgb_matrix/rgb_matrix.o (symbol from plugin)
eeconfig_update_user                              .build/obj_vessel_base/quantum/eeconfig.o (symbol from plugin)
eeprom_driver.c.7899de1e                          C:\QMK_MSYS\tmp\ccGPrLQo.debug.temp.o
                                                  C:\QMK_MSYS\tmp\cchXQqT6.ltrans0.ltrans.o
eeprom_driver_erase                               .build/obj_vessel_base/eeprom_transient.o (symbol from plugin)
                                                  .build/obj_vessel_base/quantum/eeconfig.o (symbol from plugin)
eeprom_driver_init                                .build/obj_vessel_base/eeprom_transient.o (symbol from plugin)
                                                  .build/obj_vessel_base/quantum/keyboard.o (symbol from plugin)
eeprom_read_block                                 .build/obj_vessel_base/eeprom_transient.o (symbol from plugin)
                                                  .build/obj_vessel_base/quantum/rgb_matrix/rgb_matrix.o (symbol from plugin)
                                                  .build/obj_vessel_base/eeprom_driver.o (symbol from plugin)
eeprom_read_byte                                  .build/obj_vessel_base/eeprom_driver.o (symbol from plugin)
                                                  .build/obj_vessel_base/quantum/eeconfig.o (symbol from plugin)
eeprom_read_dword                                 .build/obj_vessel_base/eeprom_driver.o (symbol from plugin)
                                                  .build/obj_vessel_base/quantum/eeconfig.o (symbol from plugin)
eeprom_read_word                                  .build/obj_vessel_base/eeprom_driver.o (symbol from plugin)
                                                  .build/obj_vessel_base/quantum/eeconfig.o (symbol from plugin)
eeprom_transient.c.6d5d3bac                       C:\QMK_MSYS\tmp\ccoBU7tG.debug.temp.o
                                                  C:\QMK_MSYS\tmp\cchXQqT6.ltrans0.ltrans.o
eeprom_update_block                               .build/obj_vessel_base/eeprom_driver.o (symbol from plugin)
                                                  .build/obj_vessel_base/quantum/rgb_matrix/rgb_matrix.o (symbol from plugin)
                                                  .build/obj_vessel_base/quantum/eeconfig.o (symbol from plugin)
eeprom_update_byte                                .build/obj_vessel_base/eeprom_driver.o (symbol from plugin)
                                                  .build/obj_vessel_base/quantum/eeconfig.o (symbol from plugin)
eeprom_update_dword                               .build/obj_vessel_base/eeprom_driver.o (symbol from plugin)
                                                  .build/obj_vessel_base/quantum/eeconfig.o (symbol from plugin)
eeprom_update_word                                .build/obj_vessel_base/eeprom_driver.o (symbol from plugin)
                                                  .build/obj_vessel_base/quantum/eeconfig.o (symbol from plugin)
eeprom_write_block                                .build/obj_vessel_base/eeprom_transient.o (symbol from plugin)
                                                  .build/obj_vessel_base/eeprom_driver.o (symbol from plugin)
eeprom_write_byte                                 .build/obj_vessel_base/eeprom_driver.o (symbol from plugin)
eeprom_write_dword                                .build/obj_vessel_base/eeprom_driver.o (symbol from plugin)
eeprom_write_word                                 .build/obj_vessel_base/eeprom_driver.o (symbol from plugin)
effect_runner_bloom                               .build/obj_vessel_base/quantum/rgb_matrix/rgb_matrix.o (symbol from plugin)
effect_runner_dx_dy                               .build/obj_vessel_base/quantum/rgb_matrix/rgb_matrix.o (symbol from plugin)
effect_runner_dx_dy_dist                          .build/obj_vessel_base/quantum/rgb_matrix/rgb_matrix.o (symbol from plugin)
effect_runner_i                                   .build/obj_vessel_base/quantum/rgb_matrix/rgb_matrix.o (symbol from plugin)
effect_runner_reactive                            .build/obj_vessel_base/quantum/rgb_matrix/rgb_matrix.o (symbol from plugin)
effect_runner_reactive_splash                     .build/obj_vessel_base/quantum/rgb_matrix/rgb_matrix.o (symbol from plugin)
effect_runner_sin_cos_i                           .build/obj_vessel_base/quantum/rgb_matrix/rgb_matrix.o (symbol from plugin)
encoder.c.862a36a6                                C:\QMK_MSYS\tmp\cc29RKnY.debug.temp.o
                                                  C:\QMK_MSYS\tmp\cchXQqT6.ltrans0.ltrans.o
encoder_dequeue_event                             .build/obj_vessel_base/quantum/encoder.o (symbol from plugin)
encoder_dequeue_event_advanced                    .build/obj_vessel_base/quantum/encoder.o (symbol from plugin)
encoder_driver_init                               .build/obj_vessel_base/encoder_quadrature.o (symbol from plugin)
                                                  .build/obj_vessel_base/quantum/encoder.o (symbol from plugin)
encoder_driver_task                               .build/obj_vessel_base/encoder_quadrature.o (symbol from plugin)
                                                  .build/obj_vessel_base/quantum/encoder.o (symbol from plugin)
encoder_init                                      .build/obj_vessel_base/quantum/encoder.o (symbol from plugin)
                                                  .build/obj_vessel_base/quantum/keyboard.o (symbol from plugin)
encoder_map                                       .build/obj_vessel_base/quantum/keymap_introspection.o (symbol from plugin)
encoder_quadrature.c.abfe60f7                     C:\QMK_MSYS\tmp\ccqxbkCf.debug.temp.o
                                                  C:\QMK_MSYS\tmp\cchXQqT6.ltrans0.ltrans.o
encoder_quadrature_handle_read                    .build/obj_vessel_base/encoder_quadrature.o (symbol from plugin)
encoder_quadrature_init_pin                       .build/obj_vessel_base/encoder_quadrature.o (symbol from plugin)
encoder_quadrature_post_init                      .build/obj_vessel_base/encoder_quadrature.o (symbol from plugin)
encoder_quadrature_post_init_kb                   .build/obj_vessel_base/encoder_quadrature.o (symbol from plugin)
encoder_quadrature_read_pin                       .build/obj_vessel_base/encoder_quadrature.o (symbol from plugin)
encoder_queue_empty                               .build/obj_vessel_base/quantum/encoder.o (symbol from plugin)
encoder_queue_empty_advanced                      .build/obj_vessel_base/quantum/encoder.o (symbol from plugin)
encoder_queue_event                               .build/obj_vessel_base/quantum/encoder.o (symbol from plugin)
                                                  .build/obj_vessel_base/encoder_quadrature.o (symbol from plugin)
encoder_queue_event_advanced                      .build/obj_vessel_base/quantum/encoder.o (symbol from plugin)
encoder_queue_full                                .build/obj_vessel_base/quantum/encoder.o (symbol from plugin)
encoder_queue_full_advanced                       .build/obj_vessel_base/quantum/encoder.o (symbol from plugin)
encoder_retrieve_events                           .build/obj_vessel_base/quantum/encoder.o (symbol from plugin)
encoder_signal_queue_drain                        .build/obj_vessel_base/quantum/encoder.o (symbol from plugin)
encoder_source_layers_cache                       .build/obj_vessel_base/quantum/action_layer.o (symbol from plugin)
encoder_task                                      .build/obj_vessel_base/quantum/encoder.o (symbol from plugin)
                                                  .build/obj_vessel_base/quantum/keyboard.o (symbol from plugin)
encoder_update_kb                                 .build/obj_vessel_base/quantum/encoder.o (symbol from plugin)
encoder_update_user                               .build/obj_vessel_base/quantum/encoder.o (symbol from plugin)
encoder_wait_pullup_charge                        .build/obj_vessel_base/encoder_quadrature.o (symbol from plugin)
encodermap_layer_count                            .build/obj_vessel_base/quantum/keymap_introspection.o (symbol from plugin)
encodermap_layer_count_raw                        .build/obj_vessel_base/quantum/keymap_introspection.o (symbol from plugin)
enter_bootloader_mode_if_requested                .build/obj_vessel_base/platforms/chibios/bootloaders/stm32_dfu.o (symbol from plugin)
                                                  .build/obj_vessel_base/protocol/chibios/chibios.o (symbol from plugin)
errno                                             c:/qmk_msys/mingw64/bin/../lib/gcc/arm-none-eabi/12.2.0/../../../../arm-none-eabi/lib/thumb/v7e-m+fp/hard\libg_nano.a(libc_a-reent.o)
                                                  c:/qmk_msys/mingw64/bin/../lib/gcc/arm-none-eabi/12.2.0/../../../../arm-none-eabi/lib/thumb/v7e-m+fp/hard\libg_nano.a(libc_a-signalr.o)
event_queue                                       .build/obj_vessel_base/protocol/chibios/usb_main.o (symbol from plugin)
event_queue_head                                  .build/obj_vessel_base/protocol/chibios/usb_main.o (symbol from plugin)
event_queue_tail                                  .build/obj_vessel_base/protocol/chibios/usb_main.o (symbol from plugin)
extract_mod_bits                                  .build/obj_vessel_base/quantum/quantum.o (symbol from plugin)
fctprintf                                         .build/obj_vessel_base/printf.o (symbol from plugin)
fflush                                            c:/qmk_msys/mingw64/bin/../lib/gcc/arm-none-eabi/12.2.0/../../../../arm-none-eabi/lib/thumb/v7e-m+fp/hard\libg_nano.a(libc_a-fflush.o)
fiprintf                                          c:/qmk_msys/mingw64/bin/../lib/gcc/arm-none-eabi/12.2.0/../../../../arm-none-eabi/lib/thumb/v7e-m+fp/hard\libg_nano.a(libc_a-fprintf.o)
                                                  c:/qmk_msys/mingw64/bin/../lib/gcc/arm-none-eabi/12.2.0/../../../../arm-none-eabi/lib/thumb/v7e-m+fp/hard\libg_nano.a(libc_a-assert.o)
flashGetAddressOffset                             .build/obj_vessel_base/lib/chibios/os/hal/src/hal_flash.o (symbol from plugin)
flashGetOffsetAddress                             .build/obj_vessel_base/lib/chibios/os/hal/src/hal_flash.o (symbol from plugin)
flashGetOffsetSector                              .build/obj_vessel_base/lib/chibios/os/hal/src/hal_flash.o (symbol from plugin)
flashGetSectorOffset                              .build/obj_vessel_base/lib/chibios/os/hal/src/hal_flash.o (symbol from plugin)
flashGetSectorSize                                .build/obj_vessel_base/lib/chibios/os/hal/src/hal_flash.o (symbol from plugin)
flashWaitErase                                    .build/obj_vessel_base/lib/chibios/os/hal/src/hal_flash.o (symbol from plugin)
fprintf                                           c:/qmk_msys/mingw64/bin/../lib/gcc/arm-none-eabi/12.2.0/../../../../arm-none-eabi/lib/thumb/v7e-m+fp/hard\libg_nano.a(libc_a-fprintf.o)
free                                              c:/qmk_msys/mingw64/bin/../lib/gcc/arm-none-eabi/12.2.0/../../../../arm-none-eabi/lib/thumb/v7e-m+fp/hard\libg_nano.a(libc_a-malloc.o)
g_last_hit_tracker                                .build/obj_vessel_base/quantum/rgb_matrix/rgb_matrix.o (symbol from plugin)
g_led_config                                      .build/obj_vessel_base/keyboards/vessel/vessel.o (symbol from plugin)
                                                  .build/obj_vessel_base/quantum/rgb_matrix/rgb_matrix.o (symbol from plugin)
g_rgb_timer                                       .build/obj_vessel_base/quantum/rgb_matrix/rgb_matrix.o (symbol from plugin)
get_event_keycode                                 .build/obj_vessel_base/quantum/quantum.o (symbol from plugin)
get_first_key                                     .build/obj_vessel_base/protocol/report.o (symbol from plugin)
get_hardware_id                                   .build/obj_vessel_base/platforms/chibios/hardware_id.o (symbol from plugin)
get_mods                                          .build/obj_vessel_base/quantum/action_util.o (symbol from plugin)
                                                  .build/obj_vessel_base/quantum/process_keycode/process_tap_dance.o (symbol from plugin)
                                                  .build/obj_vessel_base/quantum/process_keycode/process_grave_esc.o (symbol from plugin)
                                                  .build/obj_vessel_base/quantum/process_keycode/process_rgb.o (symbol from plugin)
                                                  .build/obj_vessel_base/quantum/keymap_introspection.o (symbol from plugin)
get_numeric_str                                   .build/obj_vessel_base/quantum/quantum.o (symbol from plugin)
get_record_keycode                                .build/obj_vessel_base/quantum/quantum.o (symbol from plugin)
get_u16_str                                       .build/obj_vessel_base/quantum/quantum.o (symbol from plugin)
get_u8_str                                        .build/obj_vessel_base/quantum/quantum.o (symbol from plugin)
get_usb_descriptor                                .build/obj_vessel_base/usb_descriptor.o (symbol from plugin)
                                                  .build/obj_vessel_base/protocol/chibios/usb_main.o (symbol from plugin)
get_weak_mods                                     .build/obj_vessel_base/quantum/action_util.o (symbol from plugin)
                                                  .build/obj_vessel_base/quantum/process_keycode/process_tap_dance.o (symbol from plugin)
hal.c.60d2b943                                    C:\QMK_MSYS\tmp\ccGCLfVP.debug.temp.o
                                                  C:\QMK_MSYS\tmp\cchXQqT6.ltrans0.ltrans.o
halInit                                           .build/obj_vessel_base/lib/chibios/os/hal/src/hal.o (symbol from plugin)
                                                  .build/obj_vessel_base/platforms/chibios/platform.o (symbol from plugin)
hal_adc.c.09962e0d                                C:\QMK_MSYS\tmp\ccacr9wV.debug.temp.o
hal_adc_lld.c.27cb4309                            C:\QMK_MSYS\tmp\ccYnujGS.debug.temp.o
hal_buffers.c.6346f151                            C:\QMK_MSYS\tmp\ccwFmL2x.debug.temp.o
                                                  C:\QMK_MSYS\tmp\cchXQqT6.ltrans0.ltrans.o
hal_can.c.18506f75                                C:\QMK_MSYS\tmp\ccSLx1Qg.debug.temp.o
hal_can_lld.c.5858a802                            C:\QMK_MSYS\tmp\ccAYm52g.debug.temp.o
hal_crypto.c.fec8fa4f                             C:\QMK_MSYS\tmp\ccQLDW6B.debug.temp.o
hal_crypto_lld.c.8b0eeaff                         C:\QMK_MSYS\tmp\ccWwkAoF.debug.temp.o
hal_dac.c.623bc68c                                C:\QMK_MSYS\tmp\ccuJrsDX.debug.temp.o
hal_dac_lld.c.3c5838ec                            C:\QMK_MSYS\tmp\cc0HGnX3.debug.temp.o
hal_efl.c.4112d60f                                C:\QMK_MSYS\tmp\cccTqh2i.debug.temp.o
hal_efl_lld.c.020872c8                            C:\QMK_MSYS\tmp\cc2gyXeu.debug.temp.o
hal_flash.c.b915e0b1                              C:\QMK_MSYS\tmp\ccA5zahf.debug.temp.o
hal_gpt.c.39061c70                                C:\QMK_MSYS\tmp\ccwq6OHE.debug.temp.o
hal_gpt_lld.c.c5a20957                            C:\QMK_MSYS\tmp\cc0avd5i.debug.temp.o
hal_i2c.c.705c8aa6                                C:\QMK_MSYS\tmp\ccSymwj0.debug.temp.o
                                                  C:\QMK_MSYS\tmp\cchXQqT6.ltrans0.ltrans.o
hal_i2c_lld.c.9dcad401                            C:\QMK_MSYS\tmp\ccsu478A.debug.temp.o
                                                  C:\QMK_MSYS\tmp\cchXQqT6.ltrans0.ltrans.o
hal_i2s.c.375c3e63                                C:\QMK_MSYS\tmp\ccSD0bDp.debug.temp.o
hal_i2s_lld.c.6af81a10                            C:\QMK_MSYS\tmp\ccWIbxbw.debug.temp.o
hal_icu.c.143fe6da                                C:\QMK_MSYS\tmp\ccu85xSO.debug.temp.o
hal_icu_lld.c.a5136a4b                            C:\QMK_MSYS\tmp\ccYGnVNK.debug.temp.o
hal_lld.c.1057573d                                C:\QMK_MSYS\tmp\ccS2x1X5.debug.temp.o
                                                  C:\QMK_MSYS\tmp\cchXQqT6.ltrans0.ltrans.o
hal_lld_init                                      .build/obj_vessel_base/lib/chibios/os/hal/ports/STM32/STM32F4xx/hal_lld.o (symbol from plugin)
                                                  .build/obj_vessel_base/lib/chibios/os/hal/src/hal.o (symbol from plugin)
hal_mac.c.37a81e6b                                C:\QMK_MSYS\tmp\ccCbf35d.debug.temp.o
hal_mac_lld.c.8cd9f807                            C:\QMK_MSYS\tmp\ccgpOjLY.debug.temp.o
hal_mmc_spi.c.63fc57d6                            C:\QMK_MSYS\tmp\ccm8k9vD.debug.temp.o
hal_mmcsd.c.aa964268                              C:\QMK_MSYS\tmp\ccccRKpA.debug.temp.o
hal_pal.c.90b4c779                                C:\QMK_MSYS\tmp\ccUGDoV2.debug.temp.o
hal_pal_lld.c.30a12c0f                            C:\QMK_MSYS\tmp\cck1d5rd.debug.temp.o
                                                  C:\QMK_MSYS\tmp\cchXQqT6.ltrans0.ltrans.o
hal_pwm.c.df528649                                C:\QMK_MSYS\tmp\ccaUndys.debug.temp.o
hal_pwm_lld.c.ee95fcba                            C:\QMK_MSYS\tmp\cccVIcMc.debug.temp.o
hal_queues.c.a4a708b5                             C:\QMK_MSYS\tmp\cciN1Q2T.debug.temp.o
hal_rtc.c.4673916c                                C:\QMK_MSYS\tmp\cckUWc6R.debug.temp.o
hal_rtc_lld.c.0826961e                            C:\QMK_MSYS\tmp\cc6K8hi8.debug.temp.o
hal_sdc.c.95b569c8                                C:\QMK_MSYS\tmp\ccSEPpSh.debug.temp.o
hal_sdc_lld.c.03c888b6                            C:\QMK_MSYS\tmp\cca4Hmtp.debug.temp.o
hal_serial.c.4723c48b                             C:\QMK_MSYS\tmp\ccmB5yyH.debug.temp.o
hal_serial_lld.c.7429a1d0                         C:\QMK_MSYS\tmp\ccgI8xEE.debug.temp.o
hal_serial_usb.c.dae8cd76                         C:\QMK_MSYS\tmp\ccKu3Qh6.debug.temp.o
hal_sio.c.fee17097                                C:\QMK_MSYS\tmp\cc07yjWu.debug.temp.o
hal_spi.c.9ea63cd2                                C:\QMK_MSYS\tmp\cckxa5OT.debug.temp.o
hal_spi_v2_lld.c.e53d3644                         C:\QMK_MSYS\tmp\cck4FGRX.debug.temp.o
hal_st.c.b009195e                                 C:\QMK_MSYS\tmp\ccO1zI1b.debug.temp.o
                                                  C:\QMK_MSYS\tmp\cchXQqT6.ltrans0.ltrans.o
hal_st_lld.c.736eaf43                             C:\QMK_MSYS\tmp\ccG5hVhR.debug.temp.o
                                                  C:\QMK_MSYS\tmp\cchXQqT6.ltrans0.ltrans.o
hal_trng.c.e5c081da                               C:\QMK_MSYS\tmp\ccIqoDCi.debug.temp.o
hal_uart.c.8a46f824                               C:\QMK_MSYS\tmp\ccSEesEH.debug.temp.o
hal_uart_lld.c.0552e8c4                           C:\QMK_MSYS\tmp\ccmahEK6.debug.temp.o
hal_usb.c.e3bb5528                                C:\QMK_MSYS\tmp\ccKpiHB6.debug.temp.o
                                                  C:\QMK_MSYS\tmp\cchXQqT6.ltrans0.ltrans.o
hal_usb_lld.c.d0e09510                            C:\QMK_MSYS\tmp\ccaVzTzm.debug.temp.o
                                                  C:\QMK_MSYS\tmp\cchXQqT6.ltrans0.ltrans.o
hal_wdg.c.87de3519                                C:\QMK_MSYS\tmp\ccATJ0wv.debug.temp.o
hal_wdg_lld.c.2eda3e25                            C:\QMK_MSYS\tmp\ccsy3VLy.debug.temp.o
hal_wspi.c.2356b78c                               C:\QMK_MSYS\tmp\ccyhSUGU.debug.temp.o
hal_wspi_lld.c.22ce7b09                           C:\QMK_MSYS\tmp\cc8yGukK.debug.temp.o
hardware_id.c.f9ef4cee                            C:\QMK_MSYS\tmp\cc8OO7oh.debug.temp.o
has_anykey                                        .build/obj_vessel_base/protocol/report.o (symbol from plugin)
has_anymod                                        .build/obj_vessel_base/quantum/action_util.o (symbol from plugin)
host.c.95f6821f                                   C:\QMK_MSYS\tmp\ccaPNr4Z.debug.temp.o
                                                  C:\QMK_MSYS\tmp\cchXQqT6.ltrans0.ltrans.o
host_consumer_send                                .build/obj_vessel_base/protocol/host.o (symbol from plugin)
                                                  .build/obj_vessel_base/platforms/chibios/suspend.o (symbol from plugin)
                                                  .build/obj_vessel_base/quantum/action.o (symbol from plugin)
host_get_driver                                   .build/obj_vessel_base/protocol/host.o (symbol from plugin)
host_keyboard_led_state                           .build/obj_vessel_base/protocol/host.o (symbol from plugin)
                                                  .build/obj_vessel_base/quantum/keymap_introspection.o (symbol from plugin)
host_keyboard_leds                                .build/obj_vessel_base/protocol/host.o (symbol from plugin)
                                                  .build/obj_vessel_base/quantum/action.o (symbol from plugin)
                                                  .build/obj_vessel_base/quantum/led.o (symbol from plugin)
host_keyboard_send                                .build/obj_vessel_base/protocol/host.o (symbol from plugin)
                                                  .build/obj_vessel_base/quantum/action_util.o (symbol from plugin)
host_last_consumer_usage                          .build/obj_vessel_base/protocol/host.o (symbol from plugin)
host_last_system_usage                            .build/obj_vessel_base/protocol/host.o (symbol from plugin)
host_mouse_send                                   .build/obj_vessel_base/protocol/host.o (symbol from plugin)
host_nkro_send                                    .build/obj_vessel_base/protocol/host.o (symbol from plugin)
                                                  .build/obj_vessel_base/quantum/action_util.o (symbol from plugin)
host_programmable_button_send                     .build/obj_vessel_base/protocol/host.o (symbol from plugin)
                                                  .build/obj_vessel_base/quantum/programmable_button.o (symbol from plugin)
host_set_driver                                   .build/obj_vessel_base/protocol/host.o (symbol from plugin)
                                                  .build/obj_vessel_base/protocol/chibios/chibios.o (symbol from plugin)
host_system_send                                  .build/obj_vessel_base/protocol/host.o (symbol from plugin)
                                                  .build/obj_vessel_base/platforms/chibios/suspend.o (symbol from plugin)
                                                  .build/obj_vessel_base/quantum/action.o (symbol from plugin)
housekeeping_task                                 .build/obj_vessel_base/quantum/keyboard.o (symbol from plugin)
                                                  .build/obj_vessel_base/quantum/main.o (symbol from plugin)
housekeeping_task_kb                              .build/obj_vessel_base/quantum/keyboard.o (symbol from plugin)
housekeeping_task_user                            .build/obj_vessel_base/quantum/keyboard.o (symbol from plugin)
hsv_to_rgb                                        .build/obj_vessel_base/quantum/color.o (symbol from plugin)
                                                  .build/obj_vessel_base/quantum/rgb_matrix/rgb_matrix.o (symbol from plugin)
hsv_to_rgb_impl                                   .build/obj_vessel_base/quantum/color.o (symbol from plugin)
hsv_to_rgb_nocie                                  .build/obj_vessel_base/quantum/color.o (symbol from plugin)
i2cAcquireBus                                     .build/obj_vessel_base/lib/chibios/os/hal/src/hal_i2c.o (symbol from plugin)
i2cGetErrors                                      .build/obj_vessel_base/lib/chibios/os/hal/src/hal_i2c.o (symbol from plugin)
i2cInit                                           .build/obj_vessel_base/lib/chibios/os/hal/src/hal_i2c.o (symbol from plugin)
                                                  .build/obj_vessel_base/lib/chibios/os/hal/src/hal.o (symbol from plugin)
i2cMasterReceiveTimeout                           C:\QMK_MSYS\tmp\cchXQqT6.ltrans0.ltrans.o
                                                  .build/obj_vessel_base/lib/chibios/os/hal/src/hal_i2c.o (symbol from plugin)
                                                  .build/obj_vessel_base/i2c_master.a(i2c_master.o)
i2cMasterTransmitTimeout                          C:\QMK_MSYS\tmp\cchXQqT6.ltrans0.ltrans.o
                                                  .build/obj_vessel_base/lib/chibios/os/hal/src/hal_i2c.o (symbol from plugin)
                                                  .build/obj_vessel_base/i2c_master.a(i2c_master.o)
i2cObjectInit                                     .build/obj_vessel_base/lib/chibios/os/hal/src/hal_i2c.o (symbol from plugin)
                                                  .build/obj_vessel_base/lib/chibios/os/hal/ports/STM32/LLD/I2Cv1/hal_i2c_lld.o (symbol from plugin)
i2cReleaseBus                                     .build/obj_vessel_base/lib/chibios/os/hal/src/hal_i2c.o (symbol from plugin)
i2cStart                                          C:\QMK_MSYS\tmp\cchXQqT6.ltrans0.ltrans.o
                                                  .build/obj_vessel_base/lib/chibios/os/hal/src/hal_i2c.o (symbol from plugin)
                                                  .build/obj_vessel_base/i2c_master.a(i2c_master.o)
i2cStop                                           C:\QMK_MSYS\tmp\cchXQqT6.ltrans0.ltrans.o
                                                  .build/obj_vessel_base/lib/chibios/os/hal/src/hal_i2c.o (symbol from plugin)
                                                  .build/obj_vessel_base/i2c_master.a(i2c_master.o)
i2c_init                                          .build/obj_vessel_base/i2c_master.a(i2c_master.o)
                                                  C:\QMK_MSYS\tmp\cchXQqT6.ltrans0.ltrans.o
                                                  .build/obj_vessel_base/oled_driver.o (symbol from plugin)
i2c_lld_init                                      .build/obj_vessel_base/lib/chibios/os/hal/ports/STM32/LLD/I2Cv1/hal_i2c_lld.o (symbol from plugin)
                                                  .build/obj_vessel_base/lib/chibios/os/hal/src/hal_i2c.o (symbol from plugin)
i2c_lld_master_receive_timeout                    .build/obj_vessel_base/lib/chibios/os/hal/ports/STM32/LLD/I2Cv1/hal_i2c_lld.o (symbol from plugin)
                                                  .build/obj_vessel_base/lib/chibios/os/hal/src/hal_i2c.o (symbol from plugin)
i2c_lld_master_transmit_timeout                   .build/obj_vessel_base/lib/chibios/os/hal/ports/STM32/LLD/I2Cv1/hal_i2c_lld.o (symbol from plugin)
                                                  .build/obj_vessel_base/lib/chibios/os/hal/src/hal_i2c.o (symbol from plugin)
i2c_lld_start                                     .build/obj_vessel_base/lib/chibios/os/hal/ports/STM32/LLD/I2Cv1/hal_i2c_lld.o (symbol from plugin)
                                                  .build/obj_vessel_base/lib/chibios/os/hal/src/hal_i2c.o (symbol from plugin)
i2c_lld_stop                                      .build/obj_vessel_base/lib/chibios/os/hal/ports/STM32/LLD/I2Cv1/hal_i2c_lld.o (symbol from plugin)
                                                  .build/obj_vessel_base/lib/chibios/os/hal/src/hal_i2c.o (symbol from plugin)
i2c_ping_address                                  .build/obj_vessel_base/i2c_master.a(i2c_master.o)
i2c_read_register                                 .build/obj_vessel_base/i2c_master.a(i2c_master.o)
i2c_read_register16                               .build/obj_vessel_base/i2c_master.a(i2c_master.o)
i2c_receive                                       .build/obj_vessel_base/i2c_master.a(i2c_master.o)
i2c_transmit                                      .build/obj_vessel_base/i2c_master.a(i2c_master.o)
                                                  C:\QMK_MSYS\tmp\cchXQqT6.ltrans0.ltrans.o
                                                  .build/obj_vessel_base/oled_driver.o (symbol from plugin)
i2c_write_register                                .build/obj_vessel_base/i2c_master.a(i2c_master.o)
                                                  C:\QMK_MSYS\tmp\cchXQqT6.ltrans0.ltrans.o
                                                  .build/obj_vessel_base/oled_driver.o (symbol from plugin)
i2c_write_register16                              .build/obj_vessel_base/i2c_master.a(i2c_master.o)
ibqGetEmptyBufferI                                .build/obj_vessel_base/lib/chibios/os/hal/src/hal_buffers.o (symbol from plugin)
                                                  .build/obj_vessel_base/protocol/chibios/usb_driver.o (symbol from plugin)
ibqGetFullBufferTimeout                           .build/obj_vessel_base/lib/chibios/os/hal/src/hal_buffers.o (symbol from plugin)
ibqGetFullBufferTimeoutS                          .build/obj_vessel_base/lib/chibios/os/hal/src/hal_buffers.o (symbol from plugin)
ibqGetTimeout                                     .build/obj_vessel_base/lib/chibios/os/hal/src/hal_buffers.o (symbol from plugin)
ibqObjectInit                                     .build/obj_vessel_base/lib/chibios/os/hal/src/hal_buffers.o (symbol from plugin)
                                                  .build/obj_vessel_base/protocol/chibios/usb_driver.o (symbol from plugin)
ibqPostFullBufferI                                .build/obj_vessel_base/lib/chibios/os/hal/src/hal_buffers.o (symbol from plugin)
                                                  .build/obj_vessel_base/protocol/chibios/usb_driver.o (symbol from plugin)
ibqReadTimeout                                    .build/obj_vessel_base/lib/chibios/os/hal/src/hal_buffers.o (symbol from plugin)
                                                  .build/obj_vessel_base/protocol/chibios/usb_driver.o (symbol from plugin)
ibqReleaseEmptyBuffer                             .build/obj_vessel_base/lib/chibios/os/hal/src/hal_buffers.o (symbol from plugin)
ibqReleaseEmptyBufferS                            .build/obj_vessel_base/lib/chibios/os/hal/src/hal_buffers.o (symbol from plugin)
ibqResetI                                         .build/obj_vessel_base/lib/chibios/os/hal/src/hal_buffers.o (symbol from plugin)
                                                  .build/obj_vessel_base/protocol/chibios/usb_driver.o (symbol from plugin)
init_usb_driver                                   .build/obj_vessel_base/protocol/chibios/usb_main.o (symbol from plugin)
                                                  .build/obj_vessel_base/protocol/chibios/chibios.o (symbol from plugin)
interrupt_handlers.c.f5d228cb                     C:\QMK_MSYS\tmp\cckL4cro.debug.temp.o
iqGetI                                            .build/obj_vessel_base/lib/chibios/os/hal/src/hal_queues.o (symbol from plugin)
iqGetTimeout                                      .build/obj_vessel_base/lib/chibios/os/hal/src/hal_queues.o (symbol from plugin)
iqObjectInit                                      .build/obj_vessel_base/lib/chibios/os/hal/src/hal_queues.o (symbol from plugin)
iqPutI                                            .build/obj_vessel_base/lib/chibios/os/hal/src/hal_queues.o (symbol from plugin)
iqReadI                                           .build/obj_vessel_base/lib/chibios/os/hal/src/hal_queues.o (symbol from plugin)
iqReadTimeout                                     .build/obj_vessel_base/lib/chibios/os/hal/src/hal_queues.o (symbol from plugin)
iqResetI                                          .build/obj_vessel_base/lib/chibios/os/hal/src/hal_queues.o (symbol from plugin)
irqDeinit                                         .build/obj_vessel_base/lib/chibios/os/hal/ports/STM32/STM32F4xx/stm32_isr.o (symbol from plugin)
irqInit                                           .build/obj_vessel_base/lib/chibios/os/hal/ports/STM32/STM32F4xx/stm32_isr.o (symbol from plugin)
                                                  .build/obj_vessel_base/lib/chibios/os/hal/ports/STM32/STM32F4xx/hal_lld.o (symbol from plugin)
is_key_pressed                                    .build/obj_vessel_base/protocol/report.o (symbol from plugin)
                                                  .build/obj_vessel_base/quantum/action.o (symbol from plugin)
is_keyboard_left                                  .build/obj_vessel_base/quantum/keyboard.o (symbol from plugin)
is_keyboard_master                                .build/obj_vessel_base/quantum/keyboard.o (symbol from plugin)
                                                  .build/obj_vessel_base/quantum/encoder.o (symbol from plugin)
                                                  .build/obj_vessel_base/quantum/rgb_matrix/rgb_matrix.o (symbol from plugin)
is_oled_on                                        .build/obj_vessel_base/oled_driver.o (symbol from plugin)
                                                  .build/obj_vessel_base/quantum/keymap_introspection.o (symbol from plugin)
is_oled_scrolling                                 .build/obj_vessel_base/oled_driver.o (symbol from plugin)
is_tap_action                                     .build/obj_vessel_base/quantum/action.o (symbol from plugin)
is_tap_record                                     .build/obj_vessel_base/quantum/action.o (symbol from plugin)
                                                  .build/obj_vessel_base/quantum/action_tapping.o (symbol from plugin)
k_rgb_matrix_center                               .build/obj_vessel_base/quantum/rgb_matrix/rgb_matrix.o (symbol from plugin)
keyboard.c.4d07a61a                               C:\QMK_MSYS\tmp\cccoT1TT.debug.temp.o
                                                  C:\QMK_MSYS\tmp\cchXQqT6.ltrans0.ltrans.o
keyboard_idle                                     .build/obj_vessel_base/protocol/chibios/usb_main.o (symbol from plugin)
keyboard_init                                     .build/obj_vessel_base/quantum/keyboard.o (symbol from plugin)
                                                  .build/obj_vessel_base/quantum/main.o (symbol from plugin)
keyboard_led_state                                .build/obj_vessel_base/protocol/chibios/usb_main.o (symbol from plugin)
keyboard_leds                                     .build/obj_vessel_base/protocol/chibios/usb_main.o (symbol from plugin)
                                                  .build/obj_vessel_base/protocol/chibios/chibios.o (symbol from plugin)
keyboard_post_init_kb                             .build/obj_vessel_base/quantum/keyboard.o (symbol from plugin)
keyboard_post_init_user                           .build/obj_vessel_base/quantum/keymap_introspection.o (symbol from plugin)
keyboard_pre_init_kb                              .build/obj_vessel_base/quantum/keyboard.o (symbol from plugin)
keyboard_pre_init_user                            .build/obj_vessel_base/keyboards/vessel/vessel.o (symbol from plugin)
keyboard_protocol                                 .build/obj_vessel_base/protocol/chibios/usb_main.o (symbol from plugin)
                                                  .build/obj_vessel_base/protocol/report.o (symbol from plugin)
                                                  .build/obj_vessel_base/quantum/action_util.o (symbol from plugin)
keyboard_report                                   .build/obj_vessel_base/quantum/action_util.o (symbol from plugin)
                                                  .build/obj_vessel_base/protocol/report.o (symbol from plugin)
keyboard_setup                                    .build/obj_vessel_base/quantum/keyboard.o (symbol from plugin)
                                                  .build/obj_vessel_base/quantum/main.o (symbol from plugin)
keyboard_task                                     .build/obj_vessel_base/quantum/keyboard.o (symbol from plugin)
                                                  .build/obj_vessel_base/quantum/main.o (symbol from plugin)
keycode_at_encodermap_location                    .build/obj_vessel_base/quantum/keymap_introspection.o (symbol from plugin)
                                                  .build/obj_vessel_base/quantum/keymap_common.o (symbol from plugin)
keycode_at_encodermap_location_raw                .build/obj_vessel_base/quantum/keymap_introspection.o (symbol from plugin)
keycode_at_keymap_location                        .build/obj_vessel_base/quantum/keymap_introspection.o (symbol from plugin)
                                                  .build/obj_vessel_base/quantum/keymap_common.o (symbol from plugin)
keycode_at_keymap_location_raw                    .build/obj_vessel_base/quantum/keymap_introspection.o (symbol from plugin)
keycode_config                                    .build/obj_vessel_base/quantum/keycode_config.o (symbol from plugin)
                                                  .build/obj_vessel_base/quantum/keymap_common.o (symbol from plugin)
keycode_config.c.e6b30304                         C:\QMK_MSYS\tmp\ccKJyyMq.debug.temp.o
                                                  C:\QMK_MSYS\tmp\cchXQqT6.ltrans0.ltrans.o
keymap_common.c.82daeef3                          C:\QMK_MSYS\tmp\ccYZ9Et8.debug.temp.o
                                                  C:\QMK_MSYS\tmp\cchXQqT6.ltrans0.ltrans.o
keymap_config                                     .build/obj_vessel_base/quantum/keycode_config.o (symbol from plugin)
                                                  .build/obj_vessel_base/protocol/report.o (symbol from plugin)
                                                  .build/obj_vessel_base/quantum/process_keycode/process_magic.o (symbol from plugin)
                                                  .build/obj_vessel_base/quantum/keyboard.o (symbol from plugin)
                                                  .build/obj_vessel_base/quantum/action_util.o (symbol from plugin)
                                                  .build/obj_vessel_base/quantum/keymap_introspection.o (symbol from plugin)
keymap_introspection.c.c18b4ea2                   C:\QMK_MSYS\tmp\ccasmfpM.debug.temp.o
                                                  C:\QMK_MSYS\tmp\cchXQqT6.ltrans0.ltrans.o
keymap_key_to_keycode                             .build/obj_vessel_base/quantum/keymap_common.o (symbol from plugin)
                                                  .build/obj_vessel_base/quantum/quantum.o (symbol from plugin)
keymap_layer_count                                .build/obj_vessel_base/quantum/keymap_introspection.o (symbol from plugin)
keymap_layer_count_raw                            .build/obj_vessel_base/quantum/keymap_introspection.o (symbol from plugin)
keymaps                                           .build/obj_vessel_base/quantum/keymap_introspection.o (symbol from plugin)
last_encoder_activity_elapsed                     .build/obj_vessel_base/quantum/keyboard.o (symbol from plugin)
last_encoder_activity_time                        .build/obj_vessel_base/quantum/keyboard.o (symbol from plugin)
last_encoder_activity_trigger                     .build/obj_vessel_base/quantum/keyboard.o (symbol from plugin)
last_input_activity_elapsed                       .build/obj_vessel_base/quantum/keyboard.o (symbol from plugin)
last_input_activity_time                          .build/obj_vessel_base/quantum/keyboard.o (symbol from plugin)
last_led_activity_elapsed                         .build/obj_vessel_base/quantum/led.o (symbol from plugin)
last_led_activity_time                            .build/obj_vessel_base/quantum/led.o (symbol from plugin)
last_matrix_activity_elapsed                      .build/obj_vessel_base/quantum/keyboard.o (symbol from plugin)
last_matrix_activity_time                         .build/obj_vessel_base/quantum/keyboard.o (symbol from plugin)
last_matrix_activity_trigger                      .build/obj_vessel_base/quantum/keyboard.o (symbol from plugin)
last_pointing_device_activity_elapsed             .build/obj_vessel_base/quantum/keyboard.o (symbol from plugin)
last_pointing_device_activity_time                .build/obj_vessel_base/quantum/keyboard.o (symbol from plugin)
last_pointing_device_activity_trigger             .build/obj_vessel_base/quantum/keyboard.o (symbol from plugin)
last_suspend_state                                .build/obj_vessel_base/protocol/chibios/usb_main.o (symbol from plugin)
layer_and                                         .build/obj_vessel_base/quantum/action_layer.o (symbol from plugin)
                                                  .build/obj_vessel_base/quantum/action.o (symbol from plugin)
layer_clear                                       .build/obj_vessel_base/quantum/action_layer.o (symbol from plugin)
                                                  .build/obj_vessel_base/quantum/action.o (symbol from plugin)
layer_debug                                       .build/obj_vessel_base/quantum/action_layer.o (symbol from plugin)
                                                  .build/obj_vessel_base/quantum/action.o (symbol from plugin)
layer_invert                                      .build/obj_vessel_base/quantum/action_layer.o (symbol from plugin)
                                                  .build/obj_vessel_base/quantum/action.o (symbol from plugin)
layer_move                                        .build/obj_vessel_base/quantum/action_layer.o (symbol from plugin)
                                                  .build/obj_vessel_base/quantum/process_keycode/process_tap_dance.o (symbol from plugin)
                                                  .build/obj_vessel_base/quantum/action.o (symbol from plugin)
layer_off                                         .build/obj_vessel_base/quantum/action_layer.o (symbol from plugin)
                                                  .build/obj_vessel_base/quantum/action.o (symbol from plugin)
layer_on                                          .build/obj_vessel_base/quantum/action_layer.o (symbol from plugin)
                                                  .build/obj_vessel_base/quantum/action.o (symbol from plugin)
layer_or                                          .build/obj_vessel_base/quantum/action_layer.o (symbol from plugin)
                                                  .build/obj_vessel_base/quantum/action.o (symbol from plugin)
layer_state                                       .build/obj_vessel_base/quantum/action_layer.o (symbol from plugin)
                                                  .build/obj_vessel_base/quantum/keyboard.o (symbol from plugin)
layer_state_cmp                                   .build/obj_vessel_base/quantum/action_layer.o (symbol from plugin)
layer_state_is                                    .build/obj_vessel_base/quantum/action_layer.o (symbol from plugin)
layer_state_set                                   .build/obj_vessel_base/quantum/action_layer.o (symbol from plugin)
                                                  .build/obj_vessel_base/quantum/action.o (symbol from plugin)
layer_state_set_kb                                .build/obj_vessel_base/quantum/action_layer.o (symbol from plugin)
                                                  .build/obj_vessel_base/quantum/keyboard.o (symbol from plugin)
layer_state_set_user                              .build/obj_vessel_base/quantum/action_layer.o (symbol from plugin)
layer_switch_get_action                           .build/obj_vessel_base/quantum/action_layer.o (symbol from plugin)
                                                  .build/obj_vessel_base/quantum/action_tapping.o (symbol from plugin)
                                                  .build/obj_vessel_base/quantum/action.o (symbol from plugin)
layer_switch_get_layer                            .build/obj_vessel_base/quantum/action_layer.o (symbol from plugin)
                                                  .build/obj_vessel_base/quantum/quantum.o (symbol from plugin)
layer_xor                                         .build/obj_vessel_base/quantum/action_layer.o (symbol from plugin)
                                                  .build/obj_vessel_base/quantum/action.o (symbol from plugin)
led.c.96805105                                    C:\QMK_MSYS\tmp\cccw8nFv.debug.temp.o
                                                  C:\QMK_MSYS\tmp\cchXQqT6.ltrans0.ltrans.o
led_init_ports                                    .build/obj_vessel_base/quantum/led.o (symbol from plugin)
                                                  .build/obj_vessel_base/quantum/keyboard.o (symbol from plugin)
led_set                                           .build/obj_vessel_base/quantum/led.o (symbol from plugin)
                                                  .build/obj_vessel_base/quantum/action.o (symbol from plugin)
led_set_user                                      .build/obj_vessel_base/quantum/led.o (symbol from plugin)
led_suspend                                       .build/obj_vessel_base/quantum/led.o (symbol from plugin)
                                                  .build/obj_vessel_base/quantum/quantum.o (symbol from plugin)
led_tables.c.be63c460                             C:\QMK_MSYS\tmp\ccmj5Wg8.debug.temp.o
                                                  C:\QMK_MSYS\tmp\cchXQqT6.ltrans0.ltrans.o
led_task                                          .build/obj_vessel_base/quantum/led.o (symbol from plugin)
                                                  .build/obj_vessel_base/quantum/keyboard.o (symbol from plugin)
led_update_kb                                     .build/obj_vessel_base/quantum/led.o (symbol from plugin)
led_update_ports                                  .build/obj_vessel_base/quantum/led.o (symbol from plugin)
led_update_user                                   .build/obj_vessel_base/quantum/led.o (symbol from plugin)
led_wakeup                                        .build/obj_vessel_base/quantum/led.o (symbol from plugin)
                                                  .build/obj_vessel_base/quantum/quantum.o (symbol from plugin)
lib8tion.c.24064e02                               C:\QMK_MSYS\tmp\cc8wVEiq.debug.temp.o
                                                  C:\QMK_MSYS\tmp\cchXQqT6.ltrans0.ltrans.o
main                                              C:\QMK_MSYS\tmp\cchXQqT6.ltrans0.ltrans.o
                                                  .build/obj_vessel_base/quantum/main.o (symbol from plugin)
                                                  .build/obj_vessel_base/./lib/chibios/os/common/startup/ARMCMx/compilers/GCC/crt0_v7m.o
main.c.10e8e0d5                                   C:\QMK_MSYS\tmp\ccgeiitO.debug.temp.o
                                                  C:\QMK_MSYS\tmp\cchXQqT6.ltrans0.ltrans.o
malloc                                            c:/qmk_msys/mingw64/bin/../lib/gcc/arm-none-eabi/12.2.0/../../../../arm-none-eabi/lib/thumb/v7e-m+fp/hard\libg_nano.a(libc_a-malloc.o)
                                                  C:\QMK_MSYS\tmp\cchXQqT6.ltrans0.ltrans.o
                                                  c:/qmk_msys/mingw64/bin/../lib/gcc/arm-none-eabi/12.2.0/../../../../arm-none-eabi/lib/thumb/v7e-m+fp/hard\libg_nano.a(libc_a-rand.o)
matrix                                            .build/obj_vessel_base/quantum/matrix_common.o (symbol from plugin)
                                                  .build/obj_vessel_base/quantum/matrix.o (symbol from plugin)
matrix.c.1720d8bc                                 C:\QMK_MSYS\tmp\ccQSqSid.debug.temp.o
                                                  C:\QMK_MSYS\tmp\cchXQqT6.ltrans0.ltrans.o
matrix_can_read                                   .build/obj_vessel_base/quantum/keyboard.o (symbol from plugin)
matrix_cols                                       .build/obj_vessel_base/quantum/matrix_common.o (symbol from plugin)
matrix_common.c.929416f6                          C:\QMK_MSYS\tmp\ccK2PbMU.debug.temp.o
                                                  C:\QMK_MSYS\tmp\cchXQqT6.ltrans0.ltrans.o
matrix_get_row                                    .build/obj_vessel_base/quantum/matrix_common.o (symbol from plugin)
                                                  .build/obj_vessel_base/platforms/suspend.o (symbol from plugin)
                                                  .build/obj_vessel_base/quantum/bootmagic/bootmagic.o (symbol from plugin)
                                                  .build/obj_vessel_base/quantum/keyboard.o (symbol from plugin)
matrix_init                                       .build/obj_vessel_base/quantum/matrix.o (symbol from plugin)
                                                  .build/obj_vessel_base/quantum/matrix_common.o (symbol from plugin)
                                                  .build/obj_vessel_base/quantum/keyboard.o (symbol from plugin)
matrix_init_custom                                .build/obj_vessel_base/quantum/matrix_common.o (symbol from plugin)
matrix_init_kb                                    .build/obj_vessel_base/quantum/matrix_common.o (symbol from plugin)
                                                  .build/obj_vessel_base/quantum/matrix.o (symbol from plugin)
matrix_init_pins                                  .build/obj_vessel_base/quantum/matrix.o (symbol from plugin)
matrix_init_user                                  .build/obj_vessel_base/quantum/matrix_common.o (symbol from plugin)
matrix_io_delay                                   .build/obj_vessel_base/quantum/matrix_common.o (symbol from plugin)
matrix_is_on                                      .build/obj_vessel_base/quantum/matrix_common.o (symbol from plugin)
matrix_output_select_delay                        .build/obj_vessel_base/quantum/matrix_common.o (symbol from plugin)
                                                  .build/obj_vessel_base/quantum/matrix.o (symbol from plugin)
matrix_output_unselect_delay                      .build/obj_vessel_base/quantum/matrix_common.o (symbol from plugin)
                                                  .build/obj_vessel_base/quantum/matrix.o (symbol from plugin)
matrix_power_down                                 .build/obj_vessel_base/platforms/suspend.o (symbol from plugin)
matrix_power_up                                   .build/obj_vessel_base/platforms/suspend.o (symbol from plugin)
matrix_print                                      .build/obj_vessel_base/quantum/matrix_common.o (symbol from plugin)
                                                  .build/obj_vessel_base/quantum/keyboard.o (symbol from plugin)
matrix_read_cols_on_row                           .build/obj_vessel_base/quantum/matrix.o (symbol from plugin)
matrix_rows                                       .build/obj_vessel_base/quantum/matrix_common.o (symbol from plugin)
matrix_scan                                       .build/obj_vessel_base/quantum/matrix.o (symbol from plugin)
                                                  .build/obj_vessel_base/quantum/matrix_common.o (symbol from plugin)
                                                  .build/obj_vessel_base/platforms/suspend.o (symbol from plugin)
                                                  .build/obj_vessel_base/quantum/bootmagic/bootmagic.o (symbol from plugin)
                                                  .build/obj_vessel_base/quantum/keyboard.o (symbol from plugin)
matrix_scan_custom                                .build/obj_vessel_base/quantum/matrix_common.o (symbol from plugin)
matrix_scan_kb                                    .build/obj_vessel_base/quantum/matrix_common.o (symbol from plugin)
                                                  .build/obj_vessel_base/quantum/matrix.o (symbol from plugin)
matrix_scan_user                                  .build/obj_vessel_base/quantum/keymap_introspection.o (symbol from plugin)
matrix_setup                                      .build/obj_vessel_base/quantum/keyboard.o (symbol from plugin)
mcu_reset                                         .build/obj_vessel_base/platforms/chibios/bootloaders/stm32_dfu.o (symbol from plugin)
                                                  .build/obj_vessel_base/quantum/quantum.o (symbol from plugin)
memchr                                            c:/qmk_msys/mingw64/bin/../lib/gcc/arm-none-eabi/12.2.0/../../../../arm-none-eabi/lib/thumb/v7e-m+fp/hard\libg_nano.a(libc_a-memchr.o)
                                                  c:/qmk_msys/mingw64/bin/../lib/gcc/arm-none-eabi/12.2.0/../../../../arm-none-eabi/lib/thumb/v7e-m+fp/hard\libg_nano.a(libc_a-fvwrite.o)
                                                  c:/qmk_msys/mingw64/bin/../lib/gcc/arm-none-eabi/12.2.0/../../../../arm-none-eabi/lib/thumb/v7e-m+fp/hard\libg_nano.a(libc_a-nano-vfprintf_i.o)
                                                  c:/qmk_msys/mingw64/bin/../lib/gcc/arm-none-eabi/12.2.0/../../../../arm-none-eabi/lib/thumb/v7e-m+fp/hard\libg_nano.a(libc_a-nano-vfprintf.o)
memcmp                                            c:/qmk_msys/mingw64/bin/../lib/gcc/arm-none-eabi/12.2.0/../../../../arm-none-eabi/lib/thumb/v7e-m+fp/hard\libg_nano.a(libc_a-memcmp.o)
                                                  C:\QMK_MSYS\tmp\cchXQqT6.ltrans0.ltrans.o
memcpy                                            c:/qmk_msys/mingw64/bin/../lib/gcc/arm-none-eabi/12.2.0/../../../../arm-none-eabi/lib/thumb/v7e-m+fp/hard\libg_nano.a(libc_a-memcpy.o)
                                                  C:\QMK_MSYS\tmp\cchXQqT6.ltrans0.ltrans.o
                                                  c:/qmk_msys/mingw64/bin/../lib/gcc/arm-none-eabi/12.2.0/../../../../arm-none-eabi/lib/thumb/v7e-m+fp/hard\libg_nano.a(libc_a-reallocr.o)
                                                  c:/qmk_msys/mingw64/bin/../lib/gcc/arm-none-eabi/12.2.0/../../../../arm-none-eabi/lib/thumb/v7e-m+fp/hard\libg_nano.a(libc_a-fvwrite.o)
                                                  .build/obj_vessel_base/i2c_master.a(i2c_master.o)
memmove                                           c:/qmk_msys/mingw64/bin/../lib/gcc/arm-none-eabi/12.2.0/../../../../arm-none-eabi/lib/thumb/v7e-m+fp/hard\libg_nano.a(libc_a-memmove.o)
                                                  C:\QMK_MSYS\tmp\cchXQqT6.ltrans0.ltrans.o
                                                  c:/qmk_msys/mingw64/bin/../lib/gcc/arm-none-eabi/12.2.0/../../../../arm-none-eabi/lib/thumb/v7e-m+fp/hard\libg_nano.a(libc_a-fvwrite.o)
memset                                            c:/qmk_msys/mingw64/bin/../lib/gcc/arm-none-eabi/12.2.0/../../../../arm-none-eabi/lib/thumb/v7e-m+fp/hard\libg_nano.a(libc_a-memset.o)
                                                  C:\QMK_MSYS\tmp\cchXQqT6.ltrans0.ltrans.o
                                                  c:/qmk_msys/mingw64/bin/../lib/gcc/arm-none-eabi/12.2.0/../../../../arm-none-eabi/lib/thumb/v7e-m+fp/hard\libg_nano.a(libc_a-findfp.o)
memstreams.c.7c1ad5eb                             C:\QMK_MSYS\tmp\ccS74j6j.debug.temp.o
mod_config                                        .build/obj_vessel_base/quantum/keycode_config.o (symbol from plugin)
                                                  .build/obj_vessel_base/quantum/keymap_common.o (symbol from plugin)
msObjectInit                                      .build/obj_vessel_base/lib/chibios/os/hal/lib/streams/memstreams.o (symbol from plugin)
                                                  .build/obj_vessel_base/lib/chibios/os/hal/lib/streams/chscanf.o (symbol from plugin)
                                                  .build/obj_vessel_base/lib/chibios/os/hal/lib/streams/chprintf.o (symbol from plugin)
nkro_report                                       .build/obj_vessel_base/quantum/action_util.o (symbol from plugin)
                                                  .build/obj_vessel_base/protocol/report.o (symbol from plugin)
notify_usb_device_state_change_kb                 .build/obj_vessel_base/protocol/usb_device_state.o (symbol from plugin)
notify_usb_device_state_change_user               .build/obj_vessel_base/protocol/usb_device_state.o (symbol from plugin)
nullObjectInit                                    .build/obj_vessel_base/lib/chibios/os/hal/lib/streams/nullstreams.o (symbol from plugin)
nullstreams.c.8807ad43                            C:\QMK_MSYS\tmp\ccW03RiL.debug.temp.o
nvic.c.2e17abde                                   C:\QMK_MSYS\tmp\ccgfvfMj.debug.temp.o
                                                  C:\QMK_MSYS\tmp\cchXQqT6.ltrans0.ltrans.o
nvicClearPending                                  .build/obj_vessel_base/lib/chibios/os/hal/ports/common/ARMCMx/nvic.o (symbol from plugin)
nvicDisableVector                                 .build/obj_vessel_base/lib/chibios/os/hal/ports/common/ARMCMx/nvic.o (symbol from plugin)
                                                  .build/obj_vessel_base/lib/chibios/os/hal/ports/STM32/LLD/OTGv1/hal_usb_lld.o (symbol from plugin)
                                                  .build/obj_vessel_base/lib/chibios/os/hal/ports/STM32/LLD/I2Cv1/hal_i2c_lld.o (symbol from plugin)
                                                  .build/obj_vessel_base/lib/chibios/os/hal/ports/STM32/LLD/DMAv2/stm32_dma.o (symbol from plugin)
                                                  .build/obj_vessel_base/lib/chibios/os/hal/ports/STM32/STM32F4xx/stm32_isr.o (symbol from plugin)
nvicEnableVector                                  .build/obj_vessel_base/lib/chibios/os/hal/ports/common/ARMCMx/nvic.o (symbol from plugin)
                                                  .build/obj_vessel_base/lib/chibios/os/hal/ports/STM32/LLD/OTGv1/hal_usb_lld.o (symbol from plugin)
                                                  .build/obj_vessel_base/lib/chibios/os/hal/ports/STM32/LLD/I2Cv1/hal_i2c_lld.o (symbol from plugin)
                                                  .build/obj_vessel_base/lib/chibios/os/hal/ports/STM32/LLD/DMAv2/stm32_dma.o (symbol from plugin)
                                                  .build/obj_vessel_base/lib/chibios/os/hal/ports/STM32/STM32F4xx/stm32_isr.o (symbol from plugin)
nvicInit                                          .build/obj_vessel_base/lib/chibios/os/hal/ports/common/ARMCMx/nvic.o (symbol from plugin)
nvicSetPending                                    .build/obj_vessel_base/lib/chibios/os/hal/ports/common/ARMCMx/nvic.o (symbol from plugin)
nvicSetSystemHandlerPriority                      .build/obj_vessel_base/lib/chibios/os/hal/ports/common/ARMCMx/nvic.o (symbol from plugin)
obqFlush                                          .build/obj_vessel_base/lib/chibios/os/hal/src/hal_buffers.o (symbol from plugin)
                                                  .build/obj_vessel_base/protocol/chibios/usb_driver.o (symbol from plugin)
obqGetEmptyBufferTimeout                          .build/obj_vessel_base/lib/chibios/os/hal/src/hal_buffers.o (symbol from plugin)
obqGetEmptyBufferTimeoutS                         .build/obj_vessel_base/lib/chibios/os/hal/src/hal_buffers.o (symbol from plugin)
obqGetFullBufferI                                 .build/obj_vessel_base/lib/chibios/os/hal/src/hal_buffers.o (symbol from plugin)
                                                  .build/obj_vessel_base/protocol/chibios/usb_driver.o (symbol from plugin)
obqObjectInit                                     .build/obj_vessel_base/lib/chibios/os/hal/src/hal_buffers.o (symbol from plugin)
                                                  .build/obj_vessel_base/protocol/chibios/usb_driver.o (symbol from plugin)
obqPostFullBuffer                                 .build/obj_vessel_base/lib/chibios/os/hal/src/hal_buffers.o (symbol from plugin)
obqPostFullBufferS                                .build/obj_vessel_base/lib/chibios/os/hal/src/hal_buffers.o (symbol from plugin)
obqPutTimeout                                     .build/obj_vessel_base/lib/chibios/os/hal/src/hal_buffers.o (symbol from plugin)
                                                  .build/obj_vessel_base/protocol/chibios/usb_driver.o (symbol from plugin)
obqReleaseEmptyBufferI                            .build/obj_vessel_base/lib/chibios/os/hal/src/hal_buffers.o (symbol from plugin)
                                                  .build/obj_vessel_base/protocol/chibios/usb_driver.o (symbol from plugin)
obqResetI                                         .build/obj_vessel_base/lib/chibios/os/hal/src/hal_buffers.o (symbol from plugin)
                                                  .build/obj_vessel_base/protocol/chibios/usb_driver.o (symbol from plugin)
obqTryFlushI                                      .build/obj_vessel_base/lib/chibios/os/hal/src/hal_buffers.o (symbol from plugin)
obqWriteTimeout                                   .build/obj_vessel_base/lib/chibios/os/hal/src/hal_buffers.o (symbol from plugin)
                                                  .build/obj_vessel_base/protocol/chibios/usb_driver.o (symbol from plugin)
oled_active                                       .build/obj_vessel_base/oled_driver.o (symbol from plugin)
oled_advance_char                                 .build/obj_vessel_base/oled_driver.o (symbol from plugin)
oled_advance_page                                 .build/obj_vessel_base/oled_driver.o (symbol from plugin)
oled_brightness                                   .build/obj_vessel_base/oled_driver.o (symbol from plugin)
oled_buffer                                       .build/obj_vessel_base/oled_driver.o (symbol from plugin)
oled_clear                                        .build/obj_vessel_base/oled_driver.o (symbol from plugin)
                                                  .build/obj_vessel_base/quantum/keymap_introspection.o (symbol from plugin)
oled_cursor                                       .build/obj_vessel_base/oled_driver.o (symbol from plugin)
oled_dirty                                        .build/obj_vessel_base/oled_driver.o (symbol from plugin)
oled_driver.c.03c46173                            C:\QMK_MSYS\tmp\ccSLYenH.debug.temp.o
                                                  C:\QMK_MSYS\tmp\cchXQqT6.ltrans0.ltrans.o
oled_driver_init                                  .build/obj_vessel_base/oled_driver.o (symbol from plugin)
oled_get_brightness                               .build/obj_vessel_base/oled_driver.o (symbol from plugin)
oled_init                                         .build/obj_vessel_base/oled_driver.o (symbol from plugin)
                                                  .build/obj_vessel_base/quantum/keyboard.o (symbol from plugin)
                                                  .build/obj_vessel_base/quantum/keymap_introspection.o (symbol from plugin)
oled_init_kb                                      .build/obj_vessel_base/oled_driver.o (symbol from plugin)
oled_init_user                                    .build/obj_vessel_base/oled_driver.o (symbol from plugin)
oled_initialized                                  .build/obj_vessel_base/oled_driver.o (symbol from plugin)
oled_invert                                       .build/obj_vessel_base/oled_driver.o (symbol from plugin)
oled_inverted                                     .build/obj_vessel_base/oled_driver.o (symbol from plugin)
oled_max_chars                                    .build/obj_vessel_base/oled_driver.o (symbol from plugin)
oled_max_lines                                    .build/obj_vessel_base/oled_driver.o (symbol from plugin)
oled_off                                          .build/obj_vessel_base/oled_driver.o (symbol from plugin)
                                                  .build/obj_vessel_base/quantum/quantum.o (symbol from plugin)
                                                  .build/obj_vessel_base/quantum/keymap_introspection.o (symbol from plugin)
oled_on                                           .build/obj_vessel_base/oled_driver.o (symbol from plugin)
                                                  .build/obj_vessel_base/quantum/keyboard.o (symbol from plugin)
                                                  .build/obj_vessel_base/quantum/keymap_introspection.o (symbol from plugin)
oled_pan                                          .build/obj_vessel_base/oled_driver.o (symbol from plugin)
oled_read_raw                                     .build/obj_vessel_base/oled_driver.o (symbol from plugin)
oled_render_dirty                                 .build/obj_vessel_base/oled_driver.o (symbol from plugin)
oled_rotation                                     .build/obj_vessel_base/oled_driver.o (symbol from plugin)
oled_rotation_width                               .build/obj_vessel_base/oled_driver.o (symbol from plugin)
oled_scroll_end                                   .build/obj_vessel_base/oled_driver.o (symbol from plugin)
oled_scroll_left                                  .build/obj_vessel_base/oled_driver.o (symbol from plugin)
oled_scroll_off                                   .build/obj_vessel_base/oled_driver.o (symbol from plugin)
oled_scroll_right                                 .build/obj_vessel_base/oled_driver.o (symbol from plugin)
oled_scroll_set_area                              .build/obj_vessel_base/oled_driver.o (symbol from plugin)
oled_scroll_set_speed                             .build/obj_vessel_base/oled_driver.o (symbol from plugin)
oled_scroll_speed                                 .build/obj_vessel_base/oled_driver.o (symbol from plugin)
oled_scroll_start                                 .build/obj_vessel_base/oled_driver.o (symbol from plugin)
oled_scrolling                                    .build/obj_vessel_base/oled_driver.o (symbol from plugin)
oled_send_cmd                                     .build/obj_vessel_base/oled_driver.o (symbol from plugin)
oled_send_cmd_P                                   .build/obj_vessel_base/oled_driver.o (symbol from plugin)
oled_send_data                                    .build/obj_vessel_base/oled_driver.o (symbol from plugin)
oled_set_brightness                               .build/obj_vessel_base/oled_driver.o (symbol from plugin)
oled_set_cursor                                   .build/obj_vessel_base/oled_driver.o (symbol from plugin)
oled_task                                         .build/obj_vessel_base/oled_driver.o (symbol from plugin)
                                                  .build/obj_vessel_base/quantum/keyboard.o (symbol from plugin)
oled_task_kb                                      .build/obj_vessel_base/oled_driver.o (symbol from plugin)
oled_task_user                                    .build/obj_vessel_base/quantum/keymap_introspection.o (symbol from plugin)
oled_timeout                                      .build/obj_vessel_base/oled_driver.o (symbol from plugin)
oled_write                                        .build/obj_vessel_base/oled_driver.o (symbol from plugin)
oled_write_char                                   .build/obj_vessel_base/oled_driver.o (symbol from plugin)
oled_write_ln                                     .build/obj_vessel_base/oled_driver.o (symbol from plugin)
oled_write_pixel                                  .build/obj_vessel_base/oled_driver.o (symbol from plugin)
oled_write_raw                                    .build/obj_vessel_base/oled_driver.o (symbol from plugin)
                                                  .build/obj_vessel_base/quantum/keymap_introspection.o (symbol from plugin)
oled_write_raw_byte                               .build/obj_vessel_base/oled_driver.o (symbol from plugin)
oneshot_layer_changed_kb                          .build/obj_vessel_base/quantum/action_util.o (symbol from plugin)
oneshot_layer_changed_user                        .build/obj_vessel_base/quantum/action_util.o (symbol from plugin)
oneshot_locked_mods_changed_kb                    .build/obj_vessel_base/quantum/action_util.o (symbol from plugin)
oneshot_locked_mods_changed_user                  .build/obj_vessel_base/quantum/action_util.o (symbol from plugin)
oneshot_mods_changed_kb                           .build/obj_vessel_base/quantum/action_util.o (symbol from plugin)
oneshot_mods_changed_user                         .build/obj_vessel_base/quantum/action_util.o (symbol from plugin)
oqGetI                                            .build/obj_vessel_base/lib/chibios/os/hal/src/hal_queues.o (symbol from plugin)
oqObjectInit                                      .build/obj_vessel_base/lib/chibios/os/hal/src/hal_queues.o (symbol from plugin)
oqPutI                                            .build/obj_vessel_base/lib/chibios/os/hal/src/hal_queues.o (symbol from plugin)
oqPutTimeout                                      .build/obj_vessel_base/lib/chibios/os/hal/src/hal_queues.o (symbol from plugin)
oqResetI                                          .build/obj_vessel_base/lib/chibios/os/hal/src/hal_queues.o (symbol from plugin)
oqWriteI                                          .build/obj_vessel_base/lib/chibios/os/hal/src/hal_queues.o (symbol from plugin)
oqWriteTimeout                                    .build/obj_vessel_base/lib/chibios/os/hal/src/hal_queues.o (symbol from plugin)
osal.c.6409633e                                   C:\QMK_MSYS\tmp\ccwCCBsA.debug.temp.o
palReadBus                                        .build/obj_vessel_base/lib/chibios/os/hal/src/hal_pal.o (symbol from plugin)
palSetBusMode                                     .build/obj_vessel_base/lib/chibios/os/hal/src/hal_pal.o (symbol from plugin)
palWriteBus                                       .build/obj_vessel_base/lib/chibios/os/hal/src/hal_pal.o (symbol from plugin)
peek_matrix                                       .build/obj_vessel_base/quantum/matrix_common.o (symbol from plugin)
perform_space_cadet                               .build/obj_vessel_base/quantum/process_keycode/process_space_cadet.o (symbol from plugin)
platform.c.75b38d9b                               C:\QMK_MSYS\tmp\ccWN46cC.debug.temp.o
                                                  C:\QMK_MSYS\tmp\cchXQqT6.ltrans0.ltrans.o
platform_setup                                    .build/obj_vessel_base/platforms/chibios/platform.o (symbol from plugin)
                                                  .build/obj_vessel_base/quantum/main.o (symbol from plugin)
port_init                                         .build/obj_vessel_base/lib/chibios/os/common/ports/ARMv7-M/chcore.o (symbol from plugin)
                                                  .build/obj_vessel_base/lib/chibios/os/rt/src/chinstances.o (symbol from plugin)
post_process_record_kb                            .build/obj_vessel_base/quantum/quantum.o (symbol from plugin)
post_process_record_quantum                       .build/obj_vessel_base/quantum/quantum.o (symbol from plugin)
post_process_record_user                          .build/obj_vessel_base/quantum/quantum.o (symbol from plugin)
pre_process_record_kb                             .build/obj_vessel_base/quantum/quantum.o (symbol from plugin)
pre_process_record_quantum                        .build/obj_vessel_base/quantum/quantum.o (symbol from plugin)
                                                  .build/obj_vessel_base/quantum/action.o (symbol from plugin)
pre_process_record_user                           .build/obj_vessel_base/quantum/quantum.o (symbol from plugin)
preprocess_tap_dance                              .build/obj_vessel_base/quantum/process_keycode/process_tap_dance.o (symbol from plugin)
                                                  .build/obj_vessel_base/quantum/quantum.o (symbol from plugin)
print.c.a70acbed                                  C:\QMK_MSYS\tmp\ccYOVncC.debug.temp.o
                                                  C:\QMK_MSYS\tmp\cchXQqT6.ltrans0.ltrans.o
print_set_sendchar                                .build/obj_vessel_base/quantum/logging/print.o (symbol from plugin)
                                                  .build/obj_vessel_base/quantum/keyboard.o (symbol from plugin)
printf                                            .build/obj_vessel_base/printf.o (symbol from plugin)
printf.c.3604aa7e                                 C:\QMK_MSYS\tmp\cc8Mz186.debug.temp.o
                                                  C:\QMK_MSYS\tmp\cchXQqT6.ltrans0.ltrans.o
process_action                                    .build/obj_vessel_base/quantum/action.o (symbol from plugin)
process_action_kb                                 .build/obj_vessel_base/quantum/quantum.o (symbol from plugin)
process_grave_esc                                 .build/obj_vessel_base/quantum/process_keycode/process_grave_esc.o (symbol from plugin)
                                                  .build/obj_vessel_base/quantum/quantum.o (symbol from plugin)
process_grave_esc.c.565a0518                      C:\QMK_MSYS\tmp\cccZZvV5.debug.temp.o
                                                  C:\QMK_MSYS\tmp\cchXQqT6.ltrans0.ltrans.o
process_magic                                     .build/obj_vessel_base/quantum/process_keycode/process_magic.o (symbol from plugin)
                                                  .build/obj_vessel_base/quantum/quantum.o (symbol from plugin)
process_magic.c.9819539e                          C:\QMK_MSYS\tmp\cc8PJrsn.debug.temp.o
                                                  C:\QMK_MSYS\tmp\cchXQqT6.ltrans0.ltrans.o
process_programmable_button                       .build/obj_vessel_base/quantum/process_keycode/process_programmable_button.o (symbol from plugin)
                                                  .build/obj_vessel_base/quantum/quantum.o (symbol from plugin)
process_programmable_button.c.4385649c            C:\QMK_MSYS\tmp\ccIZWGTE.debug.temp.o
                                                  C:\QMK_MSYS\tmp\cchXQqT6.ltrans0.ltrans.o
process_record                                    .build/obj_vessel_base/quantum/action.o (symbol from plugin)
                                                  .build/obj_vessel_base/quantum/action_tapping.o (symbol from plugin)
process_record_handler                            .build/obj_vessel_base/quantum/action.o (symbol from plugin)
process_record_kb                                 .build/obj_vessel_base/quantum/quantum.o (symbol from plugin)
process_record_nocache                            .build/obj_vessel_base/quantum/action.o (symbol from plugin)
process_record_quantum                            .build/obj_vessel_base/quantum/quantum.o (symbol from plugin)
process_record_tap_hint                           .build/obj_vessel_base/quantum/action.o (symbol from plugin)
                                                  .build/obj_vessel_base/quantum/action_tapping.o (symbol from plugin)
process_record_user                               .build/obj_vessel_base/quantum/keymap_introspection.o (symbol from plugin)
process_rgb                                       .build/obj_vessel_base/quantum/process_keycode/process_rgb.o (symbol from plugin)
                                                  .build/obj_vessel_base/quantum/quantum.o (symbol from plugin)
process_rgb.c.6be45cf3                            C:\QMK_MSYS\tmp\ccCUU38P.debug.temp.o
                                                  C:\QMK_MSYS\tmp\cchXQqT6.ltrans0.ltrans.o
process_space_cadet                               .build/obj_vessel_base/quantum/process_keycode/process_space_cadet.o (symbol from plugin)
                                                  .build/obj_vessel_base/quantum/quantum.o (symbol from plugin)
process_space_cadet.c.e6b38ab8                    C:\QMK_MSYS\tmp\ccw6TSBs.debug.temp.o
                                                  C:\QMK_MSYS\tmp\cchXQqT6.ltrans0.ltrans.o
process_tap_dance                                 .build/obj_vessel_base/quantum/process_keycode/process_tap_dance.o (symbol from plugin)
                                                  .build/obj_vessel_base/quantum/quantum.o (symbol from plugin)
process_tap_dance.c.c1aa9423                      C:\QMK_MSYS\tmp\ccsnFIeJ.debug.temp.o
                                                  C:\QMK_MSYS\tmp\cchXQqT6.ltrans0.ltrans.o
programmable_button.c.24342d01                    C:\QMK_MSYS\tmp\cc8nUmrV.debug.temp.o
                                                  C:\QMK_MSYS\tmp\cchXQqT6.ltrans0.ltrans.o
programmable_button_add                           .build/obj_vessel_base/quantum/programmable_button.o (symbol from plugin)
programmable_button_clear                         .build/obj_vessel_base/quantum/programmable_button.o (symbol from plugin)
                                                  .build/obj_vessel_base/platforms/chibios/suspend.o (symbol from plugin)
                                                  .build/obj_vessel_base/quantum/action.o (symbol from plugin)
programmable_button_flush                         .build/obj_vessel_base/quantum/programmable_button.o (symbol from plugin)
programmable_button_get_report                    .build/obj_vessel_base/quantum/programmable_button.o (symbol from plugin)
programmable_button_is_on                         .build/obj_vessel_base/quantum/programmable_button.o (symbol from plugin)
programmable_button_register                      .build/obj_vessel_base/quantum/programmable_button.o (symbol from plugin)
                                                  .build/obj_vessel_base/quantum/process_keycode/process_programmable_button.o (symbol from plugin)
programmable_button_remove                        .build/obj_vessel_base/quantum/programmable_button.o (symbol from plugin)
programmable_button_set_report                    .build/obj_vessel_base/quantum/programmable_button.o (symbol from plugin)
programmable_button_unregister                    .build/obj_vessel_base/quantum/programmable_button.o (symbol from plugin)
                                                  .build/obj_vessel_base/quantum/process_keycode/process_programmable_button.o (symbol from plugin)
protocol_keyboard_task                            .build/obj_vessel_base/quantum/main.o (symbol from plugin)
protocol_post_init                                .build/obj_vessel_base/protocol/chibios/chibios.o (symbol from plugin)
                                                  .build/obj_vessel_base/quantum/main.o (symbol from plugin)
protocol_post_task                                .build/obj_vessel_base/protocol/chibios/chibios.o (symbol from plugin)
                                                  .build/obj_vessel_base/quantum/main.o (symbol from plugin)
protocol_pre_init                                 .build/obj_vessel_base/protocol/chibios/chibios.o (symbol from plugin)
                                                  .build/obj_vessel_base/quantum/main.o (symbol from plugin)
protocol_pre_task                                 .build/obj_vessel_base/protocol/chibios/chibios.o (symbol from plugin)
                                                  .build/obj_vessel_base/quantum/main.o (symbol from plugin)
protocol_setup                                    .build/obj_vessel_base/protocol/chibios/chibios.o (symbol from plugin)
                                                  .build/obj_vessel_base/quantum/main.o (symbol from plugin)
putchar_                                          .build/obj_vessel_base/quantum/logging/print.o (symbol from plugin)
                                                  .build/obj_vessel_base/printf.o (symbol from plugin)
quantum.c.1f49cfa1                                C:\QMK_MSYS\tmp\cc4deco1.debug.temp.o
                                                  C:\QMK_MSYS\tmp\cchXQqT6.ltrans0.ltrans.o
quantum_init                                      .build/obj_vessel_base/quantum/keyboard.o (symbol from plugin)
quantum_task                                      .build/obj_vessel_base/quantum/keyboard.o (symbol from plugin)
raise                                             c:/qmk_msys/mingw64/bin/../lib/gcc/arm-none-eabi/12.2.0/../../../../arm-none-eabi/lib/thumb/v7e-m+fp/hard\libg_nano.a(libc_a-signal.o)
                                                  c:/qmk_msys/mingw64/bin/../lib/gcc/arm-none-eabi/12.2.0/../../../../arm-none-eabi/lib/thumb/v7e-m+fp/hard\libg_nano.a(libc_a-abort.o)
rand                                              c:/qmk_msys/mingw64/bin/../lib/gcc/arm-none-eabi/12.2.0/../../../../arm-none-eabi/lib/thumb/v7e-m+fp/hard\libg_nano.a(libc_a-rand.o)
                                                  C:\QMK_MSYS\tmp\cchXQqT6.ltrans0.ltrans.o
                                                  .build/obj_vessel_base/quantum/send_string/send_string.o (symbol from plugin)
                                                  .build/obj_vessel_base/quantum/rgb_matrix/rgb_matrix.o (symbol from plugin)
rand16seed                                        .build/obj_vessel_base/lib/lib8tion/lib8tion.o (symbol from plugin)
                                                  .build/obj_vessel_base/quantum/rgb_matrix/rgb_matrix.o (symbol from plugin)
raw_matrix                                        .build/obj_vessel_base/quantum/matrix_common.o (symbol from plugin)
                                                  .build/obj_vessel_base/quantum/matrix.o (symbol from plugin)
read_source_layers_cache                          .build/obj_vessel_base/quantum/action_layer.o (symbol from plugin)
                                                  .build/obj_vessel_base/quantum/quantum.o (symbol from plugin)
read_source_layers_cache_impl                     .build/obj_vessel_base/quantum/action_layer.o (symbol from plugin)
register_code                                     .build/obj_vessel_base/quantum/action.o (symbol from plugin)
                                                  .build/obj_vessel_base/quantum/send_string/send_string.o (symbol from plugin)
                                                  .build/obj_vessel_base/quantum/quantum.o (symbol from plugin)
                                                  .build/obj_vessel_base/quantum/keymap_introspection.o (symbol from plugin)
register_code16                                   .build/obj_vessel_base/quantum/quantum.o (symbol from plugin)
                                                  .build/obj_vessel_base/quantum/process_keycode/process_tap_dance.o (symbol from plugin)
register_mods                                     .build/obj_vessel_base/quantum/action.o (symbol from plugin)
                                                  .build/obj_vessel_base/quantum/process_keycode/process_space_cadet.o (symbol from plugin)
                                                  .build/obj_vessel_base/quantum/quantum.o (symbol from plugin)
register_mouse                                    .build/obj_vessel_base/quantum/action.o (symbol from plugin)
register_weak_mods                                .build/obj_vessel_base/quantum/action.o (symbol from plugin)
                                                  .build/obj_vessel_base/quantum/quantum.o (symbol from plugin)
report.c.49edc757                                 C:\QMK_MSYS\tmp\cciuobZg.debug.temp.o
                                                  C:\QMK_MSYS\tmp\cchXQqT6.ltrans0.ltrans.o
reset_keyboard                                    .build/obj_vessel_base/quantum/quantum.o (symbol from plugin)
reset_space_cadet                                 .build/obj_vessel_base/quantum/process_keycode/process_space_cadet.o (symbol from plugin)
reset_tap_dance                                   .build/obj_vessel_base/quantum/process_keycode/process_tap_dance.o (symbol from plugin)
restart_usb_driver                                .build/obj_vessel_base/protocol/chibios/usb_main.o (symbol from plugin)
rgb_matrix.c.f8e42409                             C:\QMK_MSYS\tmp\cc84iN5f.debug.temp.o
                                                  C:\QMK_MSYS\tmp\cchXQqT6.ltrans0.ltrans.o
rgb_matrix_config                                 .build/obj_vessel_base/quantum/rgb_matrix/rgb_matrix.o (symbol from plugin)
rgb_matrix_decrease_hue                           .build/obj_vessel_base/quantum/rgb_matrix/rgb_matrix.o (symbol from plugin)
                                                  .build/obj_vessel_base/quantum/process_keycode/process_rgb.o (symbol from plugin)
                                                  .build/obj_vessel_base/quantum/keymap_introspection.o (symbol from plugin)
rgb_matrix_decrease_hue_helper                    .build/obj_vessel_base/quantum/rgb_matrix/rgb_matrix.o (symbol from plugin)
rgb_matrix_decrease_hue_noeeprom                  .build/obj_vessel_base/quantum/rgb_matrix/rgb_matrix.o (symbol from plugin)
rgb_matrix_decrease_sat                           .build/obj_vessel_base/quantum/rgb_matrix/rgb_matrix.o (symbol from plugin)
                                                  .build/obj_vessel_base/quantum/process_keycode/process_rgb.o (symbol from plugin)
                                                  .build/obj_vessel_base/quantum/keymap_introspection.o (symbol from plugin)
rgb_matrix_decrease_sat_helper                    .build/obj_vessel_base/quantum/rgb_matrix/rgb_matrix.o (symbol from plugin)
rgb_matrix_decrease_sat_noeeprom                  .build/obj_vessel_base/quantum/rgb_matrix/rgb_matrix.o (symbol from plugin)
rgb_matrix_decrease_speed                         .build/obj_vessel_base/quantum/rgb_matrix/rgb_matrix.o (symbol from plugin)
                                                  .build/obj_vessel_base/quantum/process_keycode/process_rgb.o (symbol from plugin)
rgb_matrix_decrease_speed_helper                  .build/obj_vessel_base/quantum/rgb_matrix/rgb_matrix.o (symbol from plugin)
rgb_matrix_decrease_speed_noeeprom                .build/obj_vessel_base/quantum/rgb_matrix/rgb_matrix.o (symbol from plugin)
rgb_matrix_decrease_val                           .build/obj_vessel_base/quantum/rgb_matrix/rgb_matrix.o (symbol from plugin)
                                                  .build/obj_vessel_base/quantum/process_keycode/process_rgb.o (symbol from plugin)
rgb_matrix_decrease_val_helper                    .build/obj_vessel_base/quantum/rgb_matrix/rgb_matrix.o (symbol from plugin)
rgb_matrix_decrease_val_noeeprom                  .build/obj_vessel_base/quantum/rgb_matrix/rgb_matrix.o (symbol from plugin)
rgb_matrix_disable                                .build/obj_vessel_base/quantum/rgb_matrix/rgb_matrix.o (symbol from plugin)
                                                  .build/obj_vessel_base/quantum/keymap_introspection.o (symbol from plugin)
rgb_matrix_disable_noeeprom                       .build/obj_vessel_base/quantum/rgb_matrix/rgb_matrix.o (symbol from plugin)
rgb_matrix_driver                                 .build/obj_vessel_base/quantum/rgb_matrix/rgb_matrix_drivers.o (symbol from plugin)
                                                  .build/obj_vessel_base/quantum/rgb_matrix/rgb_matrix.o (symbol from plugin)
rgb_matrix_drivers.c.e9581d23                     C:\QMK_MSYS\tmp\ccaR4n0x.debug.temp.o
                                                  C:\QMK_MSYS\tmp\cchXQqT6.ltrans0.ltrans.o
rgb_matrix_enable                                 .build/obj_vessel_base/quantum/rgb_matrix/rgb_matrix.o (symbol from plugin)
                                                  .build/obj_vessel_base/quantum/keymap_introspection.o (symbol from plugin)
rgb_matrix_enable_noeeprom                        .build/obj_vessel_base/quantum/rgb_matrix/rgb_matrix.o (symbol from plugin)
rgb_matrix_get_flags                              .build/obj_vessel_base/quantum/rgb_matrix/rgb_matrix.o (symbol from plugin)
rgb_matrix_get_hsv                                .build/obj_vessel_base/quantum/rgb_matrix/rgb_matrix.o (symbol from plugin)
rgb_matrix_get_hue                                .build/obj_vessel_base/quantum/rgb_matrix/rgb_matrix.o (symbol from plugin)
rgb_matrix_get_limits                             .build/obj_vessel_base/quantum/rgb_matrix/rgb_matrix.o (symbol from plugin)
rgb_matrix_get_mode                               .build/obj_vessel_base/quantum/rgb_matrix/rgb_matrix.o (symbol from plugin)
rgb_matrix_get_sat                                .build/obj_vessel_base/quantum/rgb_matrix/rgb_matrix.o (symbol from plugin)
rgb_matrix_get_speed                              .build/obj_vessel_base/quantum/rgb_matrix/rgb_matrix.o (symbol from plugin)
rgb_matrix_get_suspend_state                      .build/obj_vessel_base/quantum/rgb_matrix/rgb_matrix.o (symbol from plugin)
rgb_matrix_get_val                                .build/obj_vessel_base/quantum/rgb_matrix/rgb_matrix.o (symbol from plugin)
rgb_matrix_handle_key_event                       .build/obj_vessel_base/quantum/rgb_matrix/rgb_matrix.o (symbol from plugin)
                                                  .build/obj_vessel_base/quantum/keyboard.o (symbol from plugin)
rgb_matrix_hsv_to_rgb                             .build/obj_vessel_base/quantum/rgb_matrix/rgb_matrix.o (symbol from plugin)
rgb_matrix_increase_hue                           .build/obj_vessel_base/quantum/rgb_matrix/rgb_matrix.o (symbol from plugin)
                                                  .build/obj_vessel_base/quantum/process_keycode/process_rgb.o (symbol from plugin)
                                                  .build/obj_vessel_base/quantum/keymap_introspection.o (symbol from plugin)
rgb_matrix_increase_hue_helper                    .build/obj_vessel_base/quantum/rgb_matrix/rgb_matrix.o (symbol from plugin)
rgb_matrix_increase_hue_noeeprom                  .build/obj_vessel_base/quantum/rgb_matrix/rgb_matrix.o (symbol from plugin)
rgb_matrix_increase_sat                           .build/obj_vessel_base/quantum/rgb_matrix/rgb_matrix.o (symbol from plugin)
                                                  .build/obj_vessel_base/quantum/process_keycode/process_rgb.o (symbol from plugin)
                                                  .build/obj_vessel_base/quantum/keymap_introspection.o (symbol from plugin)
rgb_matrix_increase_sat_helper                    .build/obj_vessel_base/quantum/rgb_matrix/rgb_matrix.o (symbol from plugin)
rgb_matrix_increase_sat_noeeprom                  .build/obj_vessel_base/quantum/rgb_matrix/rgb_matrix.o (symbol from plugin)
rgb_matrix_increase_speed                         .build/obj_vessel_base/quantum/rgb_matrix/rgb_matrix.o (symbol from plugin)
                                                  .build/obj_vessel_base/quantum/process_keycode/process_rgb.o (symbol from plugin)
rgb_matrix_increase_speed_helper                  .build/obj_vessel_base/quantum/rgb_matrix/rgb_matrix.o (symbol from plugin)
rgb_matrix_increase_speed_noeeprom                .build/obj_vessel_base/quantum/rgb_matrix/rgb_matrix.o (symbol from plugin)
rgb_matrix_increase_val                           .build/obj_vessel_base/quantum/rgb_matrix/rgb_matrix.o (symbol from plugin)
                                                  .build/obj_vessel_base/quantum/process_keycode/process_rgb.o (symbol from plugin)
rgb_matrix_increase_val_helper                    .build/obj_vessel_base/quantum/rgb_matrix/rgb_matrix.o (symbol from plugin)
rgb_matrix_increase_val_noeeprom                  .build/obj_vessel_base/quantum/rgb_matrix/rgb_matrix.o (symbol from plugin)
rgb_matrix_indicators                             .build/obj_vessel_base/quantum/rgb_matrix/rgb_matrix.o (symbol from plugin)
rgb_matrix_indicators_advanced                    .build/obj_vessel_base/quantum/rgb_matrix/rgb_matrix.o (symbol from plugin)
rgb_matrix_indicators_advanced_kb                 .build/obj_vessel_base/quantum/rgb_matrix/rgb_matrix.o (symbol from plugin)
rgb_matrix_indicators_advanced_user               .build/obj_vessel_base/quantum/rgb_matrix/rgb_matrix.o (symbol from plugin)
rgb_matrix_indicators_kb                          .build/obj_vessel_base/quantum/rgb_matrix/rgb_matrix.o (symbol from plugin)
rgb_matrix_indicators_user                        .build/obj_vessel_base/quantum/rgb_matrix/rgb_matrix.o (symbol from plugin)
rgb_matrix_init                                   .build/obj_vessel_base/quantum/rgb_matrix/rgb_matrix.o (symbol from plugin)
                                                  .build/obj_vessel_base/quantum/keyboard.o (symbol from plugin)
rgb_matrix_is_enabled                             .build/obj_vessel_base/quantum/rgb_matrix/rgb_matrix.o (symbol from plugin)
                                                  .build/obj_vessel_base/quantum/keymap_introspection.o (symbol from plugin)
rgb_matrix_map_row_column_to_led                  .build/obj_vessel_base/quantum/rgb_matrix/rgb_matrix.o (symbol from plugin)
rgb_matrix_map_row_column_to_led_kb               .build/obj_vessel_base/quantum/rgb_matrix/rgb_matrix.o (symbol from plugin)
rgb_matrix_mode                                   .build/obj_vessel_base/quantum/rgb_matrix/rgb_matrix.o (symbol from plugin)
                                                  .build/obj_vessel_base/quantum/process_keycode/process_rgb.o (symbol from plugin)
rgb_matrix_mode_eeprom_helper                     .build/obj_vessel_base/quantum/rgb_matrix/rgb_matrix.o (symbol from plugin)
rgb_matrix_mode_noeeprom                          .build/obj_vessel_base/quantum/rgb_matrix/rgb_matrix.o (symbol from plugin)
rgb_matrix_reload_from_eeprom                     .build/obj_vessel_base/quantum/rgb_matrix/rgb_matrix.o (symbol from plugin)
rgb_matrix_set_color                              .build/obj_vessel_base/quantum/rgb_matrix/rgb_matrix.o (symbol from plugin)
rgb_matrix_set_color_all                          .build/obj_vessel_base/quantum/rgb_matrix/rgb_matrix.o (symbol from plugin)
rgb_matrix_set_flags                              .build/obj_vessel_base/quantum/rgb_matrix/rgb_matrix.o (symbol from plugin)
rgb_matrix_set_flags_eeprom_helper                .build/obj_vessel_base/quantum/rgb_matrix/rgb_matrix.o (symbol from plugin)
rgb_matrix_set_flags_noeeprom                     .build/obj_vessel_base/quantum/rgb_matrix/rgb_matrix.o (symbol from plugin)
rgb_matrix_set_speed                              .build/obj_vessel_base/quantum/rgb_matrix/rgb_matrix.o (symbol from plugin)
rgb_matrix_set_speed_eeprom_helper                .build/obj_vessel_base/quantum/rgb_matrix/rgb_matrix.o (symbol from plugin)
rgb_matrix_set_speed_noeeprom                     .build/obj_vessel_base/quantum/rgb_matrix/rgb_matrix.o (symbol from plugin)
rgb_matrix_set_suspend_state                      .build/obj_vessel_base/quantum/rgb_matrix/rgb_matrix.o (symbol from plugin)
                                                  .build/obj_vessel_base/quantum/quantum.o (symbol from plugin)
rgb_matrix_sethsv                                 .build/obj_vessel_base/quantum/rgb_matrix/rgb_matrix.o (symbol from plugin)
rgb_matrix_sethsv_eeprom_helper                   .build/obj_vessel_base/quantum/rgb_matrix/rgb_matrix.o (symbol from plugin)
rgb_matrix_sethsv_noeeprom                        .build/obj_vessel_base/quantum/rgb_matrix/rgb_matrix.o (symbol from plugin)
rgb_matrix_step                                   .build/obj_vessel_base/quantum/rgb_matrix/rgb_matrix.o (symbol from plugin)
                                                  .build/obj_vessel_base/quantum/process_keycode/process_rgb.o (symbol from plugin)
                                                  .build/obj_vessel_base/quantum/keymap_introspection.o (symbol from plugin)
rgb_matrix_step_helper                            .build/obj_vessel_base/quantum/rgb_matrix/rgb_matrix.o (symbol from plugin)
rgb_matrix_step_noeeprom                          .build/obj_vessel_base/quantum/rgb_matrix/rgb_matrix.o (symbol from plugin)
rgb_matrix_step_reverse                           .build/obj_vessel_base/quantum/rgb_matrix/rgb_matrix.o (symbol from plugin)
                                                  .build/obj_vessel_base/quantum/process_keycode/process_rgb.o (symbol from plugin)
rgb_matrix_step_reverse_helper                    .build/obj_vessel_base/quantum/rgb_matrix/rgb_matrix.o (symbol from plugin)
rgb_matrix_step_reverse_noeeprom                  .build/obj_vessel_base/quantum/rgb_matrix/rgb_matrix.o (symbol from plugin)
rgb_matrix_task                                   .build/obj_vessel_base/quantum/rgb_matrix/rgb_matrix.o (symbol from plugin)
                                                  .build/obj_vessel_base/quantum/keyboard.o (symbol from plugin)
                                                  .build/obj_vessel_base/quantum/quantum.o (symbol from plugin)
rgb_matrix_test                                   .build/obj_vessel_base/quantum/rgb_matrix/rgb_matrix.o (symbol from plugin)
rgb_matrix_toggle                                 .build/obj_vessel_base/quantum/rgb_matrix/rgb_matrix.o (symbol from plugin)
                                                  .build/obj_vessel_base/quantum/process_keycode/process_rgb.o (symbol from plugin)
rgb_matrix_toggle_eeprom_helper                   .build/obj_vessel_base/quantum/rgb_matrix/rgb_matrix.o (symbol from plugin)
rgb_matrix_toggle_noeeprom                        .build/obj_vessel_base/quantum/rgb_matrix/rgb_matrix.o (symbol from plugin)
rgb_matrix_update_pwm_buffers                     .build/obj_vessel_base/quantum/rgb_matrix/rgb_matrix.o (symbol from plugin)
rgb_matrix_ws2812_array                           .build/obj_vessel_base/quantum/rgb_matrix/rgb_matrix_drivers.o (symbol from plugin)
sendByte                                          .build/obj_vessel_base/ws2812_bitbang.o (symbol from plugin)
send_6kro_report                                  .build/obj_vessel_base/quantum/action_util.o (symbol from plugin)
send_byte                                         .build/obj_vessel_base/quantum/send_string/send_string.o (symbol from plugin)
send_char                                         .build/obj_vessel_base/quantum/send_string/send_string.o (symbol from plugin)
send_char_with_delay                              .build/obj_vessel_base/quantum/send_string/send_string.o (symbol from plugin)
send_digitizer                                    .build/obj_vessel_base/protocol/chibios/usb_main.o (symbol from plugin)
                                                  .build/obj_vessel_base/protocol/host.o (symbol from plugin)
send_dword                                        .build/obj_vessel_base/quantum/send_string/send_string.o (symbol from plugin)
send_extra                                        .build/obj_vessel_base/protocol/chibios/usb_main.o (symbol from plugin)
                                                  .build/obj_vessel_base/protocol/chibios/chibios.o (symbol from plugin)
send_joystick                                     .build/obj_vessel_base/protocol/chibios/usb_main.o (symbol from plugin)
                                                  .build/obj_vessel_base/protocol/host.o (symbol from plugin)
send_keyboard                                     .build/obj_vessel_base/protocol/chibios/usb_main.o (symbol from plugin)
                                                  .build/obj_vessel_base/protocol/chibios/chibios.o (symbol from plugin)
send_keyboard_report                              .build/obj_vessel_base/quantum/action_util.o (symbol from plugin)
                                                  .build/obj_vessel_base/quantum/process_keycode/process_tap_dance.o (symbol from plugin)
                                                  .build/obj_vessel_base/quantum/process_keycode/process_grave_esc.o (symbol from plugin)
                                                  .build/obj_vessel_base/quantum/action.o (symbol from plugin)
send_mouse                                        .build/obj_vessel_base/protocol/chibios/usb_main.o (symbol from plugin)
                                                  .build/obj_vessel_base/protocol/chibios/chibios.o (symbol from plugin)
send_nibble                                       .build/obj_vessel_base/quantum/send_string/send_string.o (symbol from plugin)
send_nkro                                         .build/obj_vessel_base/protocol/chibios/usb_main.o (symbol from plugin)
                                                  .build/obj_vessel_base/protocol/chibios/chibios.o (symbol from plugin)
send_nkro_report                                  .build/obj_vessel_base/quantum/action_util.o (symbol from plugin)
send_programmable_button                          .build/obj_vessel_base/protocol/chibios/usb_main.o (symbol from plugin)
                                                  .build/obj_vessel_base/protocol/host.o (symbol from plugin)
send_report                                       .build/obj_vessel_base/protocol/chibios/usb_main.o (symbol from plugin)
                                                  .build/obj_vessel_base/protocol/chibios/usb_report_handling.o (symbol from plugin)
send_string                                       .build/obj_vessel_base/quantum/send_string/send_string.o (symbol from plugin)
send_string.c.558f7fcc                            C:\QMK_MSYS\tmp\cceiRJUb.debug.temp.o
send_string_with_delay                            .build/obj_vessel_base/quantum/send_string/send_string.o (symbol from plugin)
send_word                                         .build/obj_vessel_base/quantum/send_string/send_string.o (symbol from plugin)
sendchar                                          .build/obj_vessel_base/quantum/logging/sendchar.o (symbol from plugin)
                                                  .build/obj_vessel_base/quantum/keyboard.o (symbol from plugin)
sendchar.c.512f54ad                               C:\QMK_MSYS\tmp\cccVh7Rj.debug.temp.o
                                                  C:\QMK_MSYS\tmp\cchXQqT6.ltrans0.ltrans.o
set_activity_timestamps                           .build/obj_vessel_base/quantum/keyboard.o (symbol from plugin)
set_mods                                          .build/obj_vessel_base/quantum/action_util.o (symbol from plugin)
set_single_persistent_default_layer               .build/obj_vessel_base/quantum/quantum.o (symbol from plugin)
set_starlight_color                               .build/obj_vessel_base/quantum/rgb_matrix/rgb_matrix.o (symbol from plugin)
set_starlight_dual_hue_color                      .build/obj_vessel_base/quantum/rgb_matrix/rgb_matrix.o (symbol from plugin)
set_starlight_dual_sat_color                      .build/obj_vessel_base/quantum/rgb_matrix/rgb_matrix.o (symbol from plugin)
set_weak_mods                                     .build/obj_vessel_base/quantum/action_util.o (symbol from plugin)
should_process_encoder                            .build/obj_vessel_base/quantum/encoder.o (symbol from plugin)
should_process_keypress                           .build/obj_vessel_base/quantum/keyboard.o (symbol from plugin)
shutdown_kb                                       .build/obj_vessel_base/quantum/quantum.o (symbol from plugin)
shutdown_quantum                                  .build/obj_vessel_base/quantum/quantum.o (symbol from plugin)
shutdown_user                                     .build/obj_vessel_base/quantum/quantum.o (symbol from plugin)
signal                                            c:/qmk_msys/mingw64/bin/../lib/gcc/arm-none-eabi/12.2.0/../../../../arm-none-eabi/lib/thumb/v7e-m+fp/hard\libg_nano.a(libc_a-signal.o)
snprintf                                          C:\QMK_MSYS\tmp\cchXQqT6.ltrans0.ltrans.o
                                                  .build/obj_vessel_base/printf.o (symbol from plugin)
soft_reset_keyboard                               .build/obj_vessel_base/quantum/quantum.o (symbol from plugin)
source_layers_cache                               .build/obj_vessel_base/quantum/action_layer.o (symbol from plugin)
sprintf                                           C:\QMK_MSYS\tmp\cchXQqT6.ltrans0.ltrans.o
                                                  .build/obj_vessel_base/printf.o (symbol from plugin)
srand                                             c:/qmk_msys/mingw64/bin/../lib/gcc/arm-none-eabi/12.2.0/../../../../arm-none-eabi/lib/thumb/v7e-m+fp/hard\libg_nano.a(libc_a-rand.o)
stGetAlarm                                        .build/obj_vessel_base/lib/chibios/os/hal/src/hal_st.o (symbol from plugin)
stGetCounter                                      .build/obj_vessel_base/lib/chibios/os/hal/src/hal_st.o (symbol from plugin)
                                                  .build/obj_vessel_base/lib/chibios/os/hal/ports/STM32/LLD/I2Cv1/hal_i2c_lld.o (symbol from plugin)
                                                  .build/obj_vessel_base/lib/chibios/os/rt/src/chthreads.o (symbol from plugin)
                                                  .build/obj_vessel_base/lib/chibios/os/rt/src/chinstances.o (symbol from plugin)
                                                  .build/obj_vessel_base/lib/chibios/os/rt/src/chvt.o (symbol from plugin)
                                                  .build/obj_vessel_base/protocol/chibios/usb_report_handling.o (symbol from plugin)
                                                  .build/obj_vessel_base/platforms/chibios/timer.o (symbol from plugin)
stInit                                            .build/obj_vessel_base/lib/chibios/os/hal/src/hal_st.o (symbol from plugin)
                                                  .build/obj_vessel_base/lib/chibios/os/hal/src/hal.o (symbol from plugin)
stIsAlarmActive                                   .build/obj_vessel_base/lib/chibios/os/hal/src/hal_st.o (symbol from plugin)
stSetAlarm                                        .build/obj_vessel_base/lib/chibios/os/hal/src/hal_st.o (symbol from plugin)
                                                  .build/obj_vessel_base/lib/chibios/os/rt/src/chvt.o (symbol from plugin)
stStartAlarm                                      .build/obj_vessel_base/lib/chibios/os/hal/src/hal_st.o (symbol from plugin)
                                                  .build/obj_vessel_base/lib/chibios/os/rt/src/chvt.o (symbol from plugin)
stStopAlarm                                       .build/obj_vessel_base/lib/chibios/os/hal/src/hal_st.o (symbol from plugin)
                                                  .build/obj_vessel_base/lib/chibios/os/rt/src/chvt.o (symbol from plugin)
st_lld_init                                       .build/obj_vessel_base/lib/chibios/os/hal/ports/STM32/LLD/SYSTICKv1/hal_st_lld.o (symbol from plugin)
                                                  .build/obj_vessel_base/lib/chibios/os/hal/src/hal_st.o (symbol from plugin)
st_lld_serve_interrupt                            .build/obj_vessel_base/lib/chibios/os/hal/ports/STM32/LLD/SYSTICKv1/hal_st_lld.o (symbol from plugin)
                                                  .build/obj_vessel_base/lib/chibios/os/hal/ports/STM32/STM32F4xx/stm32_isr.o (symbol from plugin)
stm32_clock_init                                  .build/obj_vessel_base/lib/chibios/os/hal/ports/STM32/STM32F4xx/hal_lld.o (symbol from plugin)
                                                  .build/obj_vessel_base/lib/chibios/os/hal/boards/ST_NUCLEO64_F446RE/board.o (symbol from plugin)
stm32_dfu.c.7a7f347d                              C:\QMK_MSYS\tmp\ccM929jC.debug.temp.o
                                                  C:\QMK_MSYS\tmp\cchXQqT6.ltrans0.ltrans.o
stm32_dma.c.50695bfc                              C:\QMK_MSYS\tmp\cc8qLvrs.debug.temp.o
                                                  C:\QMK_MSYS\tmp\cchXQqT6.ltrans0.ltrans.o
stm32_exti.c.0b34adca                             C:\QMK_MSYS\tmp\ccAgEYYP.debug.temp.o
stm32_isr.c.ee93e3f6                              C:\QMK_MSYS\tmp\ccO3hIUH.debug.temp.o
                                                  C:\QMK_MSYS\tmp\cchXQqT6.ltrans0.ltrans.o
store_or_get_action                               .build/obj_vessel_base/quantum/action_layer.o (symbol from plugin)
                                                  .build/obj_vessel_base/quantum/action.o (symbol from plugin)
suspend.c.45b03014                                C:\QMK_MSYS\tmp\cc8HolSg.debug.temp.o
                                                  C:\QMK_MSYS\tmp\cchXQqT6.ltrans0.ltrans.o
suspend.c.45ff1edc                                C:\QMK_MSYS\tmp\ccc9IsfX.debug.temp.o
                                                  C:\QMK_MSYS\tmp\cchXQqT6.ltrans0.ltrans.o
suspend_power_down                                .build/obj_vessel_base/platforms/chibios/suspend.o (symbol from plugin)
                                                  .build/obj_vessel_base/protocol/chibios/chibios.o (symbol from plugin)
suspend_power_down_kb                             .build/obj_vessel_base/platforms/suspend.o (symbol from plugin)
                                                  .build/obj_vessel_base/quantum/quantum.o (symbol from plugin)
suspend_power_down_quantum                        .build/obj_vessel_base/quantum/quantum.o (symbol from plugin)
                                                  .build/obj_vessel_base/platforms/chibios/suspend.o (symbol from plugin)
suspend_power_down_user                           .build/obj_vessel_base/quantum/keymap_introspection.o (symbol from plugin)
suspend_wakeup_condition                          .build/obj_vessel_base/platforms/suspend.o (symbol from plugin)
                                                  .build/obj_vessel_base/protocol/chibios/chibios.o (symbol from plugin)
suspend_wakeup_init                               .build/obj_vessel_base/platforms/chibios/suspend.o (symbol from plugin)
                                                  .build/obj_vessel_base/protocol/chibios/usb_main.o (symbol from plugin)
suspend_wakeup_init_kb                            .build/obj_vessel_base/platforms/suspend.o (symbol from plugin)
                                                  .build/obj_vessel_base/quantum/quantum.o (symbol from plugin)
suspend_wakeup_init_quantum                       .build/obj_vessel_base/quantum/quantum.o (symbol from plugin)
                                                  .build/obj_vessel_base/platforms/chibios/suspend.o (symbol from plugin)
suspend_wakeup_init_user                          .build/obj_vessel_base/quantum/keymap_introspection.o (symbol from plugin)
switch_events                                     .build/obj_vessel_base/quantum/keyboard.o (symbol from plugin)
sym_eager_pk.c.445c83e6                           C:\QMK_MSYS\tmp\ccSOvWMv.debug.temp.o
                                                  C:\QMK_MSYS\tmp\cchXQqT6.ltrans0.ltrans.o
sync_timer.c.aebca3bf                             C:\QMK_MSYS\tmp\ccOqHm1I.debug.temp.o
synchronization_util.c.2fee918c                   C:\QMK_MSYS\tmp\ccSqBGAB.debug.temp.o
synchronization_util.c.d813bead                   C:\QMK_MSYS\tmp\cccKkgZX.debug.temp.o
syscall_fallbacks.c.de2c9ce9                      C:\QMK_MSYS\tmp\cccYmH44.debug.temp.o
                                                  C:\QMK_MSYS\tmp\cchXQqT6.ltrans0.ltrans.o
syscalls.c.aed0d427                               C:\QMK_MSYS\tmp\ccOue1MD.debug.temp.o
                                                  C:\QMK_MSYS\tmp\cchXQqT6.ltrans0.ltrans.o
tap_code                                          .build/obj_vessel_base/quantum/action.o (symbol from plugin)
                                                  .build/obj_vessel_base/quantum/process_keycode/process_space_cadet.o (symbol from plugin)
                                                  .build/obj_vessel_base/quantum/send_string/send_string.o (symbol from plugin)
                                                  .build/obj_vessel_base/quantum/keymap_introspection.o (symbol from plugin)
tap_code16                                        .build/obj_vessel_base/quantum/quantum.o (symbol from plugin)
tap_code16_delay                                  .build/obj_vessel_base/quantum/quantum.o (symbol from plugin)
tap_code_delay                                    .build/obj_vessel_base/quantum/action.o (symbol from plugin)
                                                  .build/obj_vessel_base/quantum/send_string/send_string.o (symbol from plugin)
                                                  .build/obj_vessel_base/quantum/encoder.o (symbol from plugin)
tap_dance_actions                                 .build/obj_vessel_base/quantum/keymap_introspection.o (symbol from plugin)
                                                  .build/obj_vessel_base/quantum/process_keycode/process_tap_dance.o (symbol from plugin)
tap_dance_dual_role_finished                      .build/obj_vessel_base/quantum/process_keycode/process_tap_dance.o (symbol from plugin)
tap_dance_dual_role_on_each_tap                   .build/obj_vessel_base/quantum/process_keycode/process_tap_dance.o (symbol from plugin)
tap_dance_dual_role_reset                         .build/obj_vessel_base/quantum/process_keycode/process_tap_dance.o (symbol from plugin)
tap_dance_pair_finished                           .build/obj_vessel_base/quantum/process_keycode/process_tap_dance.o (symbol from plugin)
                                                  .build/obj_vessel_base/quantum/keymap_introspection.o (symbol from plugin)
tap_dance_pair_on_each_tap                        .build/obj_vessel_base/quantum/process_keycode/process_tap_dance.o (symbol from plugin)
                                                  .build/obj_vessel_base/quantum/keymap_introspection.o (symbol from plugin)
tap_dance_pair_reset                              .build/obj_vessel_base/quantum/process_keycode/process_tap_dance.o (symbol from plugin)
                                                  .build/obj_vessel_base/quantum/keymap_introspection.o (symbol from plugin)
tap_dance_task                                    .build/obj_vessel_base/quantum/process_keycode/process_tap_dance.o (symbol from plugin)
                                                  .build/obj_vessel_base/quantum/keyboard.o (symbol from plugin)
tap_random_base64                                 .build/obj_vessel_base/quantum/send_string/send_string.o (symbol from plugin)
timer                                             .build/obj_vessel_base/quantum/keymap_introspection.o (symbol from plugin)
timer.c.14e73b38                                  C:\QMK_MSYS\tmp\cc8TVBvW.debug.temp.o
timer.c.a1882be3                                  C:\QMK_MSYS\tmp\cc6gAfgi.debug.temp.o
                                                  C:\QMK_MSYS\tmp\cchXQqT6.ltrans0.ltrans.o
timer_clear                                       .build/obj_vessel_base/platforms/chibios/timer.o (symbol from plugin)
timer_elapsed                                     .build/obj_vessel_base/platforms/chibios/timer.o (symbol from plugin)
                                                  .build/obj_vessel_base/quantum/process_keycode/process_tap_dance.o (symbol from plugin)
                                                  .build/obj_vessel_base/quantum/process_keycode/process_space_cadet.o (symbol from plugin)
                                                  .build/obj_vessel_base/quantum/keymap_introspection.o (symbol from plugin)
timer_elapsed32                                   .build/obj_vessel_base/platforms/chibios/timer.o (symbol from plugin)
                                                  .build/obj_vessel_base/platforms/timer.o (symbol from plugin)
                                                  .build/obj_vessel_base/quantum/rgb_matrix/rgb_matrix.o (symbol from plugin)
                                                  .build/obj_vessel_base/quantum/keyboard.o (symbol from plugin)
                                                  .build/obj_vessel_base/quantum/led.o (symbol from plugin)
                                                  .build/obj_vessel_base/quantum/keymap_introspection.o (symbol from plugin)
timer_elapsed_fast                                .build/obj_vessel_base/platforms/timer.o (symbol from plugin)
timer_init                                        .build/obj_vessel_base/platforms/chibios/timer.o (symbol from plugin)
                                                  .build/obj_vessel_base/quantum/keyboard.o (symbol from plugin)
timer_read                                        .build/obj_vessel_base/platforms/chibios/timer.o (symbol from plugin)
                                                  .build/obj_vessel_base/quantum/process_keycode/process_tap_dance.o (symbol from plugin)
                                                  .build/obj_vessel_base/quantum/process_keycode/process_space_cadet.o (symbol from plugin)
                                                  .build/obj_vessel_base/quantum/encoder.o (symbol from plugin)
                                                  .build/obj_vessel_base/quantum/keyboard.o (symbol from plugin)
                                                  .build/obj_vessel_base/quantum/keymap_introspection.o (symbol from plugin)
timer_read32                                      .build/obj_vessel_base/platforms/chibios/timer.o (symbol from plugin)
                                                  .build/obj_vessel_base/platforms/timer.o (symbol from plugin)
                                                  .build/obj_vessel_base/oled_driver.o (symbol from plugin)
                                                  .build/obj_vessel_base/quantum/rgb_matrix/rgb_matrix.o (symbol from plugin)
                                                  .build/obj_vessel_base/quantum/debounce/sym_eager_pk.o (symbol from plugin)
                                                  .build/obj_vessel_base/quantum/keyboard.o (symbol from plugin)
                                                  .build/obj_vessel_base/quantum/led.o (symbol from plugin)
                                                  .build/obj_vessel_base/quantum/keymap_introspection.o (symbol from plugin)
timer_read_fast                                   .build/obj_vessel_base/platforms/timer.o (symbol from plugin)
tp_buttons                                        .build/obj_vessel_base/quantum/action.o (symbol from plugin)
unregister_code                                   .build/obj_vessel_base/quantum/action.o (symbol from plugin)
                                                  .build/obj_vessel_base/quantum/send_string/send_string.o (symbol from plugin)
                                                  .build/obj_vessel_base/quantum/quantum.o (symbol from plugin)
                                                  .build/obj_vessel_base/quantum/keymap_introspection.o (symbol from plugin)
unregister_code16                                 .build/obj_vessel_base/quantum/quantum.o (symbol from plugin)
                                                  .build/obj_vessel_base/quantum/process_keycode/process_tap_dance.o (symbol from plugin)
unregister_mods                                   .build/obj_vessel_base/quantum/action.o (symbol from plugin)
                                                  .build/obj_vessel_base/quantum/process_keycode/process_space_cadet.o (symbol from plugin)
                                                  .build/obj_vessel_base/quantum/quantum.o (symbol from plugin)
unregister_weak_mods                              .build/obj_vessel_base/quantum/action.o (symbol from plugin)
                                                  .build/obj_vessel_base/quantum/quantum.o (symbol from plugin)
update_source_layers_cache                        .build/obj_vessel_base/quantum/action_layer.o (symbol from plugin)
                                                  .build/obj_vessel_base/quantum/quantum.o (symbol from plugin)
update_source_layers_cache_impl                   .build/obj_vessel_base/quantum/action_layer.o (symbol from plugin)
update_tri_layer                                  .build/obj_vessel_base/quantum/action_layer.o (symbol from plugin)
update_tri_layer_state                            .build/obj_vessel_base/quantum/action_layer.o (symbol from plugin)
usbDisableEndpointsI                              .build/obj_vessel_base/lib/chibios/os/hal/src/hal_usb.o (symbol from plugin)
usbInit                                           .build/obj_vessel_base/lib/chibios/os/hal/src/hal_usb.o (symbol from plugin)
                                                  .build/obj_vessel_base/lib/chibios/os/hal/src/hal.o (symbol from plugin)
usbInitEndpointI                                  .build/obj_vessel_base/lib/chibios/os/hal/src/hal_usb.o (symbol from plugin)
                                                  .build/obj_vessel_base/protocol/chibios/usb_driver.o (symbol from plugin)
usbObjectInit                                     .build/obj_vessel_base/lib/chibios/os/hal/src/hal_usb.o (symbol from plugin)
                                                  .build/obj_vessel_base/lib/chibios/os/hal/ports/STM32/LLD/OTGv1/hal_usb_lld.o (symbol from plugin)
usbReceive                                        .build/obj_vessel_base/lib/chibios/os/hal/src/hal_usb.o (symbol from plugin)
usbStallReceiveI                                  .build/obj_vessel_base/lib/chibios/os/hal/src/hal_usb.o (symbol from plugin)
usbStallTransmitI                                 .build/obj_vessel_base/lib/chibios/os/hal/src/hal_usb.o (symbol from plugin)
usbStart                                          .build/obj_vessel_base/lib/chibios/os/hal/src/hal_usb.o (symbol from plugin)
                                                  .build/obj_vessel_base/protocol/chibios/usb_main.o (symbol from plugin)
usbStartReceiveI                                  .build/obj_vessel_base/lib/chibios/os/hal/src/hal_usb.o (symbol from plugin)
                                                  .build/obj_vessel_base/protocol/chibios/usb_driver.o (symbol from plugin)
usbStartTransmitI                                 .build/obj_vessel_base/lib/chibios/os/hal/src/hal_usb.o (symbol from plugin)
                                                  .build/obj_vessel_base/protocol/chibios/usb_driver.o (symbol from plugin)
usbStop                                           .build/obj_vessel_base/lib/chibios/os/hal/src/hal_usb.o (symbol from plugin)
                                                  .build/obj_vessel_base/protocol/chibios/usb_util.o (symbol from plugin)
                                                  .build/obj_vessel_base/protocol/chibios/usb_main.o (symbol from plugin)
usbTransmit                                       .build/obj_vessel_base/lib/chibios/os/hal/src/hal_usb.o (symbol from plugin)
usbWakeupHost                                     .build/obj_vessel_base/lib/chibios/os/hal/src/hal_usb.o (symbol from plugin)
                                                  .build/obj_vessel_base/protocol/chibios/chibios.o (symbol from plugin)
usb_connected_state                               .build/obj_vessel_base/protocol/chibios/usb_util.o (symbol from plugin)
                                                  .build/obj_vessel_base/protocol/usb_util.o (symbol from plugin)
usb_descriptor.c.5c56bd7d                         C:\QMK_MSYS\tmp\cc4Z73GA.debug.temp.o
                                                  C:\QMK_MSYS\tmp\cchXQqT6.ltrans0.ltrans.o
usb_device_state                                  .build/obj_vessel_base/protocol/usb_device_state.o (symbol from plugin)
usb_device_state.c.ab457b8c                       C:\QMK_MSYS\tmp\ccsytQAB.debug.temp.o
                                                  C:\QMK_MSYS\tmp\cchXQqT6.ltrans0.ltrans.o
usb_device_state_init                             .build/obj_vessel_base/protocol/usb_device_state.o (symbol from plugin)
                                                  .build/obj_vessel_base/protocol/chibios/chibios.o (symbol from plugin)
usb_device_state_set_configuration                .build/obj_vessel_base/protocol/usb_device_state.o (symbol from plugin)
                                                  .build/obj_vessel_base/protocol/chibios/usb_main.o (symbol from plugin)
usb_device_state_set_reset                        .build/obj_vessel_base/protocol/usb_device_state.o (symbol from plugin)
                                                  .build/obj_vessel_base/protocol/chibios/usb_main.o (symbol from plugin)
usb_device_state_set_resume                       .build/obj_vessel_base/protocol/usb_device_state.o (symbol from plugin)
                                                  .build/obj_vessel_base/protocol/chibios/usb_main.o (symbol from plugin)
usb_device_state_set_suspend                      .build/obj_vessel_base/protocol/usb_device_state.o (symbol from plugin)
                                                  .build/obj_vessel_base/protocol/chibios/usb_main.o (symbol from plugin)
usb_disconnect                                    .build/obj_vessel_base/protocol/chibios/usb_util.o (symbol from plugin)
                                                  .build/obj_vessel_base/protocol/usb_util.o (symbol from plugin)
usb_driver.c.b43c6abf                             C:\QMK_MSYS\tmp\cccb7ZLU.debug.temp.o
                                                  C:\QMK_MSYS\tmp\cchXQqT6.ltrans0.ltrans.o
usb_endpoint_in_configure_cb                      .build/obj_vessel_base/protocol/chibios/usb_driver.o (symbol from plugin)
                                                  .build/obj_vessel_base/protocol/chibios/usb_main.o (symbol from plugin)
usb_endpoint_in_flush                             .build/obj_vessel_base/protocol/chibios/usb_driver.o (symbol from plugin)
usb_endpoint_in_init                              .build/obj_vessel_base/protocol/chibios/usb_driver.o (symbol from plugin)
                                                  .build/obj_vessel_base/protocol/chibios/usb_main.o (symbol from plugin)
usb_endpoint_in_is_inactive                       .build/obj_vessel_base/protocol/chibios/usb_driver.o (symbol from plugin)
                                                  .build/obj_vessel_base/protocol/chibios/usb_report_handling.o (symbol from plugin)
usb_endpoint_in_send                              .build/obj_vessel_base/protocol/chibios/usb_driver.o (symbol from plugin)
                                                  .build/obj_vessel_base/protocol/chibios/usb_main.o (symbol from plugin)
usb_endpoint_in_start                             .build/obj_vessel_base/protocol/chibios/usb_driver.o (symbol from plugin)
                                                  .build/obj_vessel_base/protocol/chibios/usb_main.o (symbol from plugin)
usb_endpoint_in_stop                              .build/obj_vessel_base/protocol/chibios/usb_driver.o (symbol from plugin)
                                                  .build/obj_vessel_base/protocol/chibios/usb_main.o (symbol from plugin)
usb_endpoint_in_suspend_cb                        .build/obj_vessel_base/protocol/chibios/usb_driver.o (symbol from plugin)
                                                  .build/obj_vessel_base/protocol/chibios/usb_main.o (symbol from plugin)
usb_endpoint_in_tx_complete_cb                    .build/obj_vessel_base/protocol/chibios/usb_driver.o (symbol from plugin)
                                                  .build/obj_vessel_base/protocol/chibios/usb_endpoints.o (symbol from plugin)
usb_endpoint_in_wakeup_cb                         .build/obj_vessel_base/protocol/chibios/usb_driver.o (symbol from plugin)
                                                  .build/obj_vessel_base/protocol/chibios/usb_main.o (symbol from plugin)
usb_endpoint_interface_lut                        .build/obj_vessel_base/protocol/chibios/usb_endpoints.o (symbol from plugin)
                                                  .build/obj_vessel_base/protocol/chibios/usb_util.o (symbol from plugin)
                                                  .build/obj_vessel_base/protocol/chibios/usb_report_handling.o (symbol from plugin)
                                                  .build/obj_vessel_base/protocol/chibios/chibios.o (symbol from plugin)
                                                  .build/obj_vessel_base/protocol/chibios/usb_main.o (symbol from plugin)
usb_endpoint_out_configure_cb                     .build/obj_vessel_base/protocol/chibios/usb_driver.o (symbol from plugin)
usb_endpoint_out_init                             .build/obj_vessel_base/protocol/chibios/usb_driver.o (symbol from plugin)
usb_endpoint_out_receive                          .build/obj_vessel_base/protocol/chibios/usb_driver.o (symbol from plugin)
usb_endpoint_out_rx_complete_cb                   .build/obj_vessel_base/protocol/chibios/usb_driver.o (symbol from plugin)
usb_endpoint_out_start                            .build/obj_vessel_base/protocol/chibios/usb_driver.o (symbol from plugin)
usb_endpoint_out_stop                             .build/obj_vessel_base/protocol/chibios/usb_driver.o (symbol from plugin)
usb_endpoint_out_suspend_cb                       .build/obj_vessel_base/protocol/chibios/usb_driver.o (symbol from plugin)
usb_endpoint_out_wakeup_cb                        .build/obj_vessel_base/protocol/chibios/usb_driver.o (symbol from plugin)
usb_endpoints.c.e264e99d                          C:\QMK_MSYS\tmp\ccwICi4e.debug.temp.o
                                                  C:\QMK_MSYS\tmp\cchXQqT6.ltrans0.ltrans.o
usb_endpoints_in                                  .build/obj_vessel_base/protocol/chibios/usb_endpoints.o (symbol from plugin)
                                                  .build/obj_vessel_base/protocol/chibios/usb_report_handling.o (symbol from plugin)
                                                  .build/obj_vessel_base/protocol/chibios/usb_main.o (symbol from plugin)
usb_endpoints_out                                 .build/obj_vessel_base/protocol/chibios/usb_endpoints.o (symbol from plugin)
usb_event_queue_init                              .build/obj_vessel_base/protocol/chibios/usb_main.o (symbol from plugin)
                                                  .build/obj_vessel_base/protocol/chibios/chibios.o (symbol from plugin)
usb_event_queue_task                              .build/obj_vessel_base/protocol/chibios/usb_main.o (symbol from plugin)
                                                  .build/obj_vessel_base/protocol/chibios/chibios.o (symbol from plugin)
usb_get_idle_cb                                   .build/obj_vessel_base/protocol/chibios/usb_report_handling.o (symbol from plugin)
                                                  .build/obj_vessel_base/protocol/chibios/usb_main.o (symbol from plugin)
usb_get_idle_rate                                 .build/obj_vessel_base/protocol/chibios/usb_report_handling.o (symbol from plugin)
                                                  .build/obj_vessel_base/protocol/chibios/usb_endpoints.o (symbol from plugin)
usb_get_report                                    .build/obj_vessel_base/protocol/chibios/usb_report_handling.o (symbol from plugin)
                                                  .build/obj_vessel_base/protocol/chibios/usb_endpoints.o (symbol from plugin)
usb_get_report_cb                                 .build/obj_vessel_base/protocol/chibios/usb_report_handling.o (symbol from plugin)
                                                  .build/obj_vessel_base/protocol/chibios/usb_main.o (symbol from plugin)
usb_idle_task                                     .build/obj_vessel_base/protocol/chibios/usb_report_handling.o (symbol from plugin)
                                                  .build/obj_vessel_base/protocol/chibios/chibios.o (symbol from plugin)
usb_idle_timer_elapsed                            .build/obj_vessel_base/protocol/chibios/usb_report_handling.o (symbol from plugin)
                                                  .build/obj_vessel_base/protocol/chibios/usb_endpoints.o (symbol from plugin)
usb_lld_clear_in                                  .build/obj_vessel_base/lib/chibios/os/hal/ports/STM32/LLD/OTGv1/hal_usb_lld.o (symbol from plugin)
                                                  .build/obj_vessel_base/lib/chibios/os/hal/src/hal_usb.o (symbol from plugin)
usb_lld_clear_out                                 .build/obj_vessel_base/lib/chibios/os/hal/ports/STM32/LLD/OTGv1/hal_usb_lld.o (symbol from plugin)
                                                  .build/obj_vessel_base/lib/chibios/os/hal/src/hal_usb.o (symbol from plugin)
usb_lld_disable_endpoints                         .build/obj_vessel_base/lib/chibios/os/hal/ports/STM32/LLD/OTGv1/hal_usb_lld.o (symbol from plugin)
                                                  .build/obj_vessel_base/lib/chibios/os/hal/src/hal_usb.o (symbol from plugin)
usb_lld_get_status_in                             .build/obj_vessel_base/lib/chibios/os/hal/ports/STM32/LLD/OTGv1/hal_usb_lld.o (symbol from plugin)
                                                  .build/obj_vessel_base/lib/chibios/os/hal/src/hal_usb.o (symbol from plugin)
usb_lld_get_status_out                            .build/obj_vessel_base/lib/chibios/os/hal/ports/STM32/LLD/OTGv1/hal_usb_lld.o (symbol from plugin)
                                                  .build/obj_vessel_base/lib/chibios/os/hal/src/hal_usb.o (symbol from plugin)
usb_lld_init                                      .build/obj_vessel_base/lib/chibios/os/hal/ports/STM32/LLD/OTGv1/hal_usb_lld.o (symbol from plugin)
                                                  .build/obj_vessel_base/lib/chibios/os/hal/src/hal_usb.o (symbol from plugin)
usb_lld_init_endpoint                             .build/obj_vessel_base/lib/chibios/os/hal/ports/STM32/LLD/OTGv1/hal_usb_lld.o (symbol from plugin)
                                                  .build/obj_vessel_base/lib/chibios/os/hal/src/hal_usb.o (symbol from plugin)
usb_lld_read_setup                                .build/obj_vessel_base/lib/chibios/os/hal/ports/STM32/LLD/OTGv1/hal_usb_lld.o (symbol from plugin)
                                                  .build/obj_vessel_base/lib/chibios/os/hal/src/hal_usb.o (symbol from plugin)
usb_lld_reset                                     .build/obj_vessel_base/lib/chibios/os/hal/ports/STM32/LLD/OTGv1/hal_usb_lld.o (symbol from plugin)
                                                  .build/obj_vessel_base/lib/chibios/os/hal/src/hal_usb.o (symbol from plugin)
usb_lld_set_address                               .build/obj_vessel_base/lib/chibios/os/hal/ports/STM32/LLD/OTGv1/hal_usb_lld.o (symbol from plugin)
                                                  .build/obj_vessel_base/lib/chibios/os/hal/src/hal_usb.o (symbol from plugin)
usb_lld_stall_in                                  .build/obj_vessel_base/lib/chibios/os/hal/ports/STM32/LLD/OTGv1/hal_usb_lld.o (symbol from plugin)
                                                  .build/obj_vessel_base/lib/chibios/os/hal/src/hal_usb.o (symbol from plugin)
usb_lld_stall_out                                 .build/obj_vessel_base/lib/chibios/os/hal/ports/STM32/LLD/OTGv1/hal_usb_lld.o (symbol from plugin)
                                                  .build/obj_vessel_base/lib/chibios/os/hal/src/hal_usb.o (symbol from plugin)
usb_lld_start                                     .build/obj_vessel_base/lib/chibios/os/hal/ports/STM32/LLD/OTGv1/hal_usb_lld.o (symbol from plugin)
                                                  .build/obj_vessel_base/lib/chibios/os/hal/src/hal_usb.o (symbol from plugin)
usb_lld_start_in                                  .build/obj_vessel_base/lib/chibios/os/hal/ports/STM32/LLD/OTGv1/hal_usb_lld.o (symbol from plugin)
                                                  .build/obj_vessel_base/lib/chibios/os/hal/src/hal_usb.o (symbol from plugin)
usb_lld_start_out                                 .build/obj_vessel_base/lib/chibios/os/hal/ports/STM32/LLD/OTGv1/hal_usb_lld.o (symbol from plugin)
                                                  .build/obj_vessel_base/lib/chibios/os/hal/src/hal_usb.o (symbol from plugin)
usb_lld_stop                                      .build/obj_vessel_base/lib/chibios/os/hal/ports/STM32/LLD/OTGv1/hal_usb_lld.o (symbol from plugin)
                                                  .build/obj_vessel_base/lib/chibios/os/hal/src/hal_usb.o (symbol from plugin)
usb_main.c.ddddf4a0                               C:\QMK_MSYS\tmp\ccm7LIlW.debug.temp.o
                                                  C:\QMK_MSYS\tmp\cchXQqT6.ltrans0.ltrans.o
usb_report_handling.c.3f8ff105                    C:\QMK_MSYS\tmp\ccMloLwz.debug.temp.o
                                                  C:\QMK_MSYS\tmp\cchXQqT6.ltrans0.ltrans.o
usb_reset_report                                  .build/obj_vessel_base/protocol/chibios/usb_report_handling.o (symbol from plugin)
                                                  .build/obj_vessel_base/protocol/chibios/usb_endpoints.o (symbol from plugin)
usb_set_idle_cb                                   .build/obj_vessel_base/protocol/chibios/usb_report_handling.o (symbol from plugin)
                                                  .build/obj_vessel_base/protocol/chibios/usb_main.o (symbol from plugin)
usb_set_idle_rate                                 .build/obj_vessel_base/protocol/chibios/usb_report_handling.o (symbol from plugin)
                                                  .build/obj_vessel_base/protocol/chibios/usb_endpoints.o (symbol from plugin)
usb_set_report                                    .build/obj_vessel_base/protocol/chibios/usb_report_handling.o (symbol from plugin)
                                                  .build/obj_vessel_base/protocol/chibios/usb_endpoints.o (symbol from plugin)
usb_shared_get_idle_rate                          .build/obj_vessel_base/protocol/chibios/usb_report_handling.o (symbol from plugin)
                                                  .build/obj_vessel_base/protocol/chibios/usb_endpoints.o (symbol from plugin)
usb_shared_get_report                             .build/obj_vessel_base/protocol/chibios/usb_report_handling.o (symbol from plugin)
                                                  .build/obj_vessel_base/protocol/chibios/usb_endpoints.o (symbol from plugin)
usb_shared_idle_timer_elapsed                     .build/obj_vessel_base/protocol/chibios/usb_report_handling.o (symbol from plugin)
                                                  .build/obj_vessel_base/protocol/chibios/usb_endpoints.o (symbol from plugin)
usb_shared_reset_report                           .build/obj_vessel_base/protocol/chibios/usb_report_handling.o (symbol from plugin)
                                                  .build/obj_vessel_base/protocol/chibios/usb_endpoints.o (symbol from plugin)
usb_shared_set_idle_rate                          .build/obj_vessel_base/protocol/chibios/usb_report_handling.o (symbol from plugin)
                                                  .build/obj_vessel_base/protocol/chibios/usb_endpoints.o (symbol from plugin)
usb_shared_set_report                             .build/obj_vessel_base/protocol/chibios/usb_report_handling.o (symbol from plugin)
                                                  .build/obj_vessel_base/protocol/chibios/usb_endpoints.o (symbol from plugin)
usb_util.c.6901b511                               C:\QMK_MSYS\tmp\ccsIKUTS.debug.temp.o
usb_util.c.c1695d57                               C:\QMK_MSYS\tmp\cc2fSi8V.debug.temp.o
usb_vbus_state                                    .build/obj_vessel_base/protocol/usb_util.o (symbol from plugin)
vessel.c.ad2b50f5                                 C:\QMK_MSYS\tmp\ccMndiui.debug.temp.o
                                                  C:\QMK_MSYS\tmp\cchXQqT6.ltrans0.ltrans.o
vfctprintf                                        .build/obj_vessel_base/printf.o (symbol from plugin)
vfiprintf                                         c:/qmk_msys/mingw64/bin/../lib/gcc/arm-none-eabi/12.2.0/../../../../arm-none-eabi/lib/thumb/v7e-m+fp/hard\libg_nano.a(libc_a-nano-vfprintf.o)
vfprintf                                          c:/qmk_msys/mingw64/bin/../lib/gcc/arm-none-eabi/12.2.0/../../../../arm-none-eabi/lib/thumb/v7e-m+fp/hard\libg_nano.a(libc_a-nano-vfprintf.o)
vprintf                                           C:\QMK_MSYS\tmp\cchXQqT6.ltrans0.ltrans.o
                                                  .build/obj_vessel_base/printf.o (symbol from plugin)
vsnprintf                                         C:\QMK_MSYS\tmp\cchXQqT6.ltrans0.ltrans.o
                                                  .build/obj_vessel_base/printf.o (symbol from plugin)
vsprintf                                          C:\QMK_MSYS\tmp\cchXQqT6.ltrans0.ltrans.o
                                                  .build/obj_vessel_base/printf.o (symbol from plugin)
wait.c.457b5ced                                   C:\QMK_MSYS\tmp\cc48lXyw.debug.temp.o
ws2812_bitbang.c.3b5de182                         C:\QMK_MSYS\tmp\ccUrqJ2w.debug.temp.o
                                                  C:\QMK_MSYS\tmp\cchXQqT6.ltrans0.ltrans.o
ws2812_dirty                                      .build/obj_vessel_base/quantum/rgb_matrix/rgb_matrix_drivers.o (symbol from plugin)
ws2812_init                                       .build/obj_vessel_base/ws2812_bitbang.o (symbol from plugin)
                                                  .build/obj_vessel_base/quantum/rgb_matrix/rgb_matrix_drivers.o (symbol from plugin)
ws2812_setleds                                    .build/obj_vessel_base/ws2812_bitbang.o (symbol from plugin)
                                                  .build/obj_vessel_base/quantum/rgb_matrix/rgb_matrix_drivers.o (symbol from plugin)
